---
triple:          'arm64-apple-darwin'
binary-path:     '/Users/vincentzhang/CPP Project/03 competition system based on stl/00 competition manage system'
relocations:
  - { offsetInCU: 0x2D97, offset: 0x2D97, size: 0x8, addend: 0x0, symName: __ZNSt3__124__put_character_sequenceB8ue170006IcNS_11char_traitsIcEEEERNS_13basic_ostreamIT_T0_EES7_PKS4_m, symObjAddr: 0x1FC, symBinAddr: 0x100002F84, symSize: 0x1F4 }
  - { offsetInCU: 0x46E4, offset: 0x46E4, size: 0x8, addend: 0x0, symName: __ZNSt3__1lsB8ue170006INS_11char_traitsIcEEEERNS_13basic_ostreamIcT_EES6_PKc, symObjAddr: 0x124, symBinAddr: 0x100002EAC, symSize: 0x48 }
  - { offsetInCU: 0x472A, offset: 0x472A, size: 0x8, addend: 0x0, symName: __ZNSt3__14endlB8ue170006IcNS_11char_traitsIcEEEERNS_13basic_ostreamIT_T0_EES7_, symObjAddr: 0x198, symBinAddr: 0x100002F20, symSize: 0x58 }
  - { offsetInCU: 0x476A, offset: 0x476A, size: 0x8, addend: 0x0, symName: __ZNSt3__116__pad_and_outputB8ue170006IcNS_11char_traitsIcEEEENS_19ostreambuf_iteratorIT_T0_EES6_PKS4_S8_S8_RNS_8ios_baseES4_, symObjAddr: 0x454, symBinAddr: 0x1000031DC, symSize: 0x248 }
  - { offsetInCU: 0x4839, offset: 0x4839, size: 0x8, addend: 0x0, symName: __ZNSt3__112__to_addressB8ue170006IKcEEPT_S3_, symObjAddr: 0x9C4, symBinAddr: 0x10000374C, symSize: 0x14 }
  - { offsetInCU: 0x486E, offset: 0x486E, size: 0x8, addend: 0x0, symName: __ZNSt3__130__libcpp_is_constant_evaluatedB8ue170006Ev, symObjAddr: 0xAF0, symBinAddr: 0x100003878, symSize: 0xC }
  - { offsetInCU: 0x48BE, offset: 0x48BE, size: 0x8, addend: 0x0, symName: __ZNSt3__19use_facetB8ue170006INS_5ctypeIcEEEERKT_RKNS_6localeE, symObjAddr: 0xCA8, symBinAddr: 0x100003A30, symSize: 0x2C }
  - { offsetInCU: 0x4D8B, offset: 0x4D8B, size: 0x8, addend: 0x0, symName: __ZNSt3__118__constexpr_strlenB8ue170006EPKc, symObjAddr: 0xD40, symBinAddr: 0x100003AC8, symSize: 0x24 }
  - { offsetInCU: 0x991D, offset: 0x991D, size: 0x8, addend: 0x0, symName: _main, symObjAddr: 0x0, symBinAddr: 0x100002D88, symSize: 0x114 }
  - { offsetInCU: 0x9953, offset: 0x9953, size: 0x8, addend: 0x0, symName: __ZNSt3__113basic_ostreamIcNS_11char_traitsIcEEElsB8ue170006EPFRS3_S4_E, symObjAddr: 0x16C, symBinAddr: 0x100002EF4, symSize: 0x2C }
  - { offsetInCU: 0x9985, offset: 0x9985, size: 0x8, addend: 0x0, symName: __ZNSt3__111char_traitsIcE6lengthB8ue170006EPKc, symObjAddr: 0x3F0, symBinAddr: 0x100003178, symSize: 0x48 }
  - { offsetInCU: 0x99C5, offset: 0x99C5, size: 0x8, addend: 0x0, symName: __ZNKSt3__113basic_ostreamIcNS_11char_traitsIcEEE6sentrycvbB8ue170006Ev, symObjAddr: 0x438, symBinAddr: 0x1000031C0, symSize: 0x1C }
  - { offsetInCU: 0x99E9, offset: 0x99E9, size: 0x8, addend: 0x0, symName: __ZNSt3__119ostreambuf_iteratorIcNS_11char_traitsIcEEEC1B8ue170006ERNS_13basic_ostreamIcS2_EE, symObjAddr: 0x69C, symBinAddr: 0x100003424, symSize: 0x34 }
  - { offsetInCU: 0x9A1F, offset: 0x9A1F, size: 0x8, addend: 0x0, symName: __ZNKSt3__18ios_base5flagsB8ue170006Ev, symObjAddr: 0x6D0, symBinAddr: 0x100003458, symSize: 0x18 }
  - { offsetInCU: 0x9A45, offset: 0x9A45, size: 0x8, addend: 0x0, symName: __ZNKSt3__19basic_iosIcNS_11char_traitsIcEEE4fillB8ue170006Ev, symObjAddr: 0x6E8, symBinAddr: 0x100003470, symSize: 0x64 }
  - { offsetInCU: 0x9A6B, offset: 0x9A6B, size: 0x8, addend: 0x0, symName: __ZNKSt3__119ostreambuf_iteratorIcNS_11char_traitsIcEEE6failedB8ue170006Ev, symObjAddr: 0x74C, symBinAddr: 0x1000034D4, symSize: 0x24 }
  - { offsetInCU: 0x9A8F, offset: 0x9A8F, size: 0x8, addend: 0x0, symName: __ZNSt3__19basic_iosIcNS_11char_traitsIcEEE8setstateB8ue170006Ej, symObjAddr: 0x770, symBinAddr: 0x1000034F8, symSize: 0x2C }
  - { offsetInCU: 0x9AC2, offset: 0x9AC2, size: 0x8, addend: 0x0, symName: __ZNKSt3__18ios_base5widthB8ue170006Ev, symObjAddr: 0x79C, symBinAddr: 0x100003524, symSize: 0x18 }
  - { offsetInCU: 0x9AE8, offset: 0x9AE8, size: 0x8, addend: 0x0, symName: __ZNSt3__115basic_streambufIcNS_11char_traitsIcEEE5sputnB8ue170006EPKcl, symObjAddr: 0x7B4, symBinAddr: 0x10000353C, symSize: 0x3C }
  - { offsetInCU: 0x9B28, offset: 0x9B28, size: 0x8, addend: 0x0, symName: __ZNSt3__112basic_stringIcNS_11char_traitsIcEENS_9allocatorIcEEEC1B8ue170006Emc, symObjAddr: 0x7F0, symBinAddr: 0x100003578, symSize: 0x3C }
  - { offsetInCU: 0x9B6E, offset: 0x9B6E, size: 0x8, addend: 0x0, symName: __ZNKSt3__112basic_stringIcNS_11char_traitsIcEENS_9allocatorIcEEE4dataB8ue170006Ev, symObjAddr: 0x82C, symBinAddr: 0x1000035B4, symSize: 0x28 }
  - { offsetInCU: 0x9B92, offset: 0x9B92, size: 0x8, addend: 0x0, symName: __ZNSt3__18ios_base5widthB8ue170006El, symObjAddr: 0x854, symBinAddr: 0x1000035DC, symSize: 0x2C }
  - { offsetInCU: 0x9BD6, offset: 0x9BD6, size: 0x8, addend: 0x0, symName: __ZNSt3__112basic_stringIcNS_11char_traitsIcEENS_9allocatorIcEEEC2B8ue170006Emc, symObjAddr: 0x880, symBinAddr: 0x100003608, symSize: 0x4C }
  - { offsetInCU: 0x9C21, offset: 0x9C21, size: 0x8, addend: 0x0, symName: __ZNSt3__117__compressed_pairINS_12basic_stringIcNS_11char_traitsIcEENS_9allocatorIcEEE5__repES5_EC1B8ue170006INS_18__default_init_tagESA_EEOT_OT0_, symObjAddr: 0x8CC, symBinAddr: 0x100003654, symSize: 0x3C }
  - { offsetInCU: 0x9C77, offset: 0x9C77, size: 0x8, addend: 0x0, symName: __ZNSt3__117__compressed_pairINS_12basic_stringIcNS_11char_traitsIcEENS_9allocatorIcEEE5__repES5_EC2B8ue170006INS_18__default_init_tagESA_EEOT_OT0_, symObjAddr: 0x908, symBinAddr: 0x100003690, symSize: 0x3C }
  - { offsetInCU: 0x9CCD, offset: 0x9CCD, size: 0x8, addend: 0x0, symName: __ZNSt3__122__compressed_pair_elemINS_12basic_stringIcNS_11char_traitsIcEENS_9allocatorIcEEE5__repELi0ELb0EEC2B8ue170006ENS_18__default_init_tagE, symObjAddr: 0x944, symBinAddr: 0x1000036CC, symSize: 0x14 }
  - { offsetInCU: 0x9CFF, offset: 0x9CFF, size: 0x8, addend: 0x0, symName: __ZNSt3__122__compressed_pair_elemINS_9allocatorIcEELi1ELb1EEC2B8ue170006ENS_18__default_init_tagE, symObjAddr: 0x958, symBinAddr: 0x1000036E0, symSize: 0x2C }
  - { offsetInCU: 0x9D31, offset: 0x9D31, size: 0x8, addend: 0x0, symName: __ZNSt3__19allocatorIcEC2B8ue170006Ev, symObjAddr: 0x984, symBinAddr: 0x10000370C, symSize: 0x2C }
  - { offsetInCU: 0x9D59, offset: 0x9D59, size: 0x8, addend: 0x0, symName: __ZNSt3__116__non_trivial_ifILb1ENS_9allocatorIcEEEC2B8ue170006Ev, symObjAddr: 0x9B0, symBinAddr: 0x100003738, symSize: 0x14 }
  - { offsetInCU: 0x9D81, offset: 0x9D81, size: 0x8, addend: 0x0, symName: __ZNKSt3__112basic_stringIcNS_11char_traitsIcEENS_9allocatorIcEEE13__get_pointerB8ue170006Ev, symObjAddr: 0x9D8, symBinAddr: 0x100003760, symSize: 0x54 }
  - { offsetInCU: 0x9DA5, offset: 0x9DA5, size: 0x8, addend: 0x0, symName: __ZNKSt3__112basic_stringIcNS_11char_traitsIcEENS_9allocatorIcEEE9__is_longB8ue170006Ev, symObjAddr: 0xA2C, symBinAddr: 0x1000037B4, symSize: 0x74 }
  - { offsetInCU: 0x9DC9, offset: 0x9DC9, size: 0x8, addend: 0x0, symName: __ZNKSt3__112basic_stringIcNS_11char_traitsIcEENS_9allocatorIcEEE18__get_long_pointerB8ue170006Ev, symObjAddr: 0xAA0, symBinAddr: 0x100003828, symSize: 0x28 }
  - { offsetInCU: 0x9DED, offset: 0x9DED, size: 0x8, addend: 0x0, symName: __ZNKSt3__112basic_stringIcNS_11char_traitsIcEENS_9allocatorIcEEE19__get_short_pointerB8ue170006Ev, symObjAddr: 0xAC8, symBinAddr: 0x100003850, symSize: 0x28 }
  - { offsetInCU: 0x9E11, offset: 0x9E11, size: 0x8, addend: 0x0, symName: __ZNKSt3__117__compressed_pairINS_12basic_stringIcNS_11char_traitsIcEENS_9allocatorIcEEE5__repES5_E5firstB8ue170006Ev, symObjAddr: 0xAFC, symBinAddr: 0x100003884, symSize: 0x24 }
  - { offsetInCU: 0x9E35, offset: 0x9E35, size: 0x8, addend: 0x0, symName: __ZNKSt3__122__compressed_pair_elemINS_12basic_stringIcNS_11char_traitsIcEENS_9allocatorIcEEE5__repELi0ELb0EE5__getB8ue170006Ev, symObjAddr: 0xB20, symBinAddr: 0x1000038A8, symSize: 0x14 }
  - { offsetInCU: 0x9E59, offset: 0x9E59, size: 0x8, addend: 0x0, symName: __ZNSt3__114pointer_traitsIPKcE10pointer_toB8ue170006ERS1_, symObjAddr: 0xB34, symBinAddr: 0x1000038BC, symSize: 0x14 }
  - { offsetInCU: 0x9E7B, offset: 0x9E7B, size: 0x8, addend: 0x0, symName: __ZNSt3__119ostreambuf_iteratorIcNS_11char_traitsIcEEEC2B8ue170006ERNS_13basic_ostreamIcS2_EE, symObjAddr: 0xB48, symBinAddr: 0x1000038D0, symSize: 0x68 }
  - { offsetInCU: 0x9EB1, offset: 0x9EB1, size: 0x8, addend: 0x0, symName: __ZNKSt3__19basic_iosIcNS_11char_traitsIcEEE5rdbufB8ue170006Ev, symObjAddr: 0xBB0, symBinAddr: 0x100003938, symSize: 0x24 }
  - { offsetInCU: 0x9ED7, offset: 0x9ED7, size: 0x8, addend: 0x0, symName: __ZNKSt3__18ios_base5rdbufB8ue170006Ev, symObjAddr: 0xBD4, symBinAddr: 0x10000395C, symSize: 0x18 }
  - { offsetInCU: 0x9EFB, offset: 0x9EFB, size: 0x8, addend: 0x0, symName: __ZNSt3__111char_traitsIcE11eq_int_typeB8ue170006Eii, symObjAddr: 0xBEC, symBinAddr: 0x100003974, symSize: 0x28 }
  - { offsetInCU: 0x9F2D, offset: 0x9F2D, size: 0x8, addend: 0x0, symName: __ZNSt3__111char_traitsIcE3eofB8ue170006Ev, symObjAddr: 0xC14, symBinAddr: 0x10000399C, symSize: 0x8 }
  - { offsetInCU: 0x9F40, offset: 0x9F40, size: 0x8, addend: 0x0, symName: __ZNKSt3__19basic_iosIcNS_11char_traitsIcEEE5widenB8ue170006Ec, symObjAddr: 0xC1C, symBinAddr: 0x1000039A4, symSize: 0x8C }
  - { offsetInCU: 0x9FAC, offset: 0x9FAC, size: 0x8, addend: 0x0, symName: __ZNKSt3__15ctypeIcE5widenB8ue170006Ec, symObjAddr: 0xCD4, symBinAddr: 0x100003A5C, symSize: 0x38 }
  - { offsetInCU: 0x9FDF, offset: 0x9FDF, size: 0x8, addend: 0x0, symName: __ZNSt3__18ios_base8setstateB8ue170006Ej, symObjAddr: 0xD0C, symBinAddr: 0x100003A94, symSize: 0x34 }
  - { offsetInCU: 0x7803, offset: 0x11CEC, size: 0x8, addend: 0x0, symName: __ZNSt3__19__shuffleB8ue170006INS_17_ClassicAlgPolicyENS_11__wrap_iterIPiEES4_RNS_13random_deviceEEET0_S7_T1_OT2_, symObjAddr: 0x6570, symBinAddr: 0x10000941C, symSize: 0x148 }
  - { offsetInCU: 0x7C9A, offset: 0x12183, size: 0x8, addend: 0x0, symName: __ZNSt3__17advanceB8ue170006IPillvEEvRT_T0_, symObjAddr: 0x75DC, symBinAddr: 0x10000A488, symSize: 0x38 }
  - { offsetInCU: 0x870D, offset: 0x12BF6, size: 0x8, addend: 0x0, symName: __ZNSt3__111__sift_downB8ue170006INS_17_ClassicAlgPolicyERNS_7greaterIdEENS_16__deque_iteratorIdPdRdPS6_lLl512EEEEEvT1_OT0_NS_15iterator_traitsISA_E15difference_typeESA_, symObjAddr: 0xC4F4, symBinAddr: 0x10000F3A0, symSize: 0x2FC }
  - { offsetInCU: 0x87F1, offset: 0x12CDA, size: 0x8, addend: 0x0, symName: __ZNSt3__117__floyd_sift_downB8ue170006INS_17_ClassicAlgPolicyERNS_7greaterIdEENS_16__deque_iteratorIdPdRdPS6_lLl512EEEEET1_SA_OT0_NS_15iterator_traitsISA_E15difference_typeE, symObjAddr: 0xCC9C, symBinAddr: 0x10000FB48, symSize: 0x158 }
  - { offsetInCU: 0x888A, offset: 0x12D73, size: 0x8, addend: 0x0, symName: __ZNSt3__111__introsortINS_17_ClassicAlgPolicyERNS_7greaterIdEENS_16__deque_iteratorIdPdRdPS6_lLl512EEELb0EEEvT1_SA_T0_NS_15iterator_traitsISA_E15difference_typeEb, symObjAddr: 0xCFE4, symBinAddr: 0x10000FE90, symSize: 0x7CC }
  - { offsetInCU: 0x89C0, offset: 0x12EA9, size: 0x8, addend: 0x0, symName: __ZNSt3__126__insertion_sort_unguardedB8ue170006INS_17_ClassicAlgPolicyERNS_7greaterIdEENS_16__deque_iteratorIdPdRdPS6_lLl512EEEEEvT1_SA_T0_, symObjAddr: 0xDB10, symBinAddr: 0x1000109BC, symSize: 0x19C }
  - { offsetInCU: 0x8AB8, offset: 0x12FA1, size: 0x8, addend: 0x0, symName: __ZNSt3__131__partition_with_equals_on_leftB8ue170006INS_17_ClassicAlgPolicyENS_16__deque_iteratorIdPdRdPS3_lLl512EEERNS_7greaterIdEEEET0_SA_SA_T1_, symObjAddr: 0xE03C, symBinAddr: 0x100010EE8, symSize: 0x2A4 }
  - { offsetInCU: 0x8B77, offset: 0x13060, size: 0x8, addend: 0x0, symName: __ZNSt3__118__bitset_partitionB8ue170006INS_17_ClassicAlgPolicyENS_16__deque_iteratorIdPdRdPS3_lLl512EEERNS_7greaterIdEEEENS_4pairIT0_bEESB_SB_T1_, symObjAddr: 0xE2E0, symBinAddr: 0x10001118C, symSize: 0x3E4 }
  - { offsetInCU: 0x8C76, offset: 0x1315F, size: 0x8, addend: 0x0, symName: __ZNSt3__124__swap_bitmap_pos_withinB8ue170006INS_17_ClassicAlgPolicyENS_16__deque_iteratorIdPdRdPS3_lLl512EEEEEvRT0_S8_RyS9_, symObjAddr: 0xF7CC, symBinAddr: 0x100012678, symSize: 0x1CC }
  - { offsetInCU: 0x8D46, offset: 0x1322F, size: 0x8, addend: 0x0, symName: __ZNSt3__132__partition_with_equals_on_rightB8ue170006INS_17_ClassicAlgPolicyENS_16__deque_iteratorIdPdRdPS3_lLl512EEERNS_7greaterIdEEEENS_4pairIT0_bEESB_SB_T1_, symObjAddr: 0xE6C4, symBinAddr: 0x100011570, symSize: 0x284 }
  - { offsetInCU: 0x8E14, offset: 0x132FD, size: 0x8, addend: 0x0, symName: __ZNSt3__127__insertion_sort_incompleteB8ue170006INS_17_ClassicAlgPolicyERNS_7greaterIdEENS_16__deque_iteratorIdPdRdPS6_lLl512EEEEEbT1_SA_T0_, symObjAddr: 0xE948, symBinAddr: 0x1000117F4, symSize: 0x4A4 }
  - { offsetInCU: 0xA011, offset: 0x144FA, size: 0x8, addend: 0x0, symName: __ZNSt3__19make_pairB8ue170006IRiR10competitorEENS_4pairINS_18__unwrap_ref_decayIT_E4typeENS5_IT0_E4typeEEEOS6_OS9_, symObjAddr: 0x980, symBinAddr: 0x100004394, symSize: 0x40 }
  - { offsetInCU: 0xA119, offset: 0x14602, size: 0x8, addend: 0x0, symName: __ZNSt3__17shuffleB8ue170006INS_11__wrap_iterIPiEERNS_13random_deviceEEEvT_S6_OT0_, symObjAddr: 0xD04, symBinAddr: 0x100004718, symSize: 0x48 }
  - { offsetInCU: 0xA170, offset: 0x14659, size: 0x8, addend: 0x0, symName: __ZNSt3__18for_eachB8ue170006INS_11__wrap_iterIPiEEPFviEEET0_T_S7_S6_, symObjAddr: 0xDAC, symBinAddr: 0x1000047C0, symSize: 0x6C }
  - { offsetInCU: 0xA1CA, offset: 0x146B3, size: 0x8, addend: 0x0, symName: __ZNSt3__1neB8ue170006IPiEEbRKNS_11__wrap_iterIT_EES6_, symObjAddr: 0x1154, symBinAddr: 0x100004B68, symSize: 0x34 }
  - { offsetInCU: 0xA20D, offset: 0x146F6, size: 0x8, addend: 0x0, symName: __ZNSt3__14sortB8ue170006INS_16__deque_iteratorIdPdRdPS2_lLl512EEENS_7greaterIdEEEEvT_S8_T0_, symObjAddr: 0x1260, symBinAddr: 0x100004C74, symSize: 0x50 }
  - { offsetInCU: 0xA268, offset: 0x14751, size: 0x8, addend: 0x0, symName: __ZNSt3__110accumulateB8ue170006INS_16__deque_iteratorIdPdRdPS2_lLl512EEEfEET0_T_S7_S6_, symObjAddr: 0x15EC, symBinAddr: 0x100005000, symSize: 0x80 }
  - { offsetInCU: 0xA2C2, offset: 0x147AB, size: 0x8, addend: 0x0, symName: __ZNSt3__117__libcpp_allocateB8ue170006Emm, symObjAddr: 0x1CDC, symBinAddr: 0x1000055EC, symSize: 0x28 }
  - { offsetInCU: 0xA2FF, offset: 0x147E8, size: 0x8, addend: 0x0, symName: __ZNSt3__121__libcpp_operator_newB8ue170006IJmEEEPvDpT_, symObjAddr: 0x1D18, symBinAddr: 0x100005628, symSize: 0x24 }
  - { offsetInCU: 0xA36B, offset: 0x14854, size: 0x8, addend: 0x0, symName: __ZNSt3__112__to_addressB8ue170006IiEEPT_S2_, symObjAddr: 0x2658, symBinAddr: 0x100005F68, symSize: 0x14 }
  - { offsetInCU: 0xA3A0, offset: 0x14889, size: 0x8, addend: 0x0, symName: __ZNSt3__119__libcpp_deallocateB8ue170006EPvmm, symObjAddr: 0x2760, symBinAddr: 0x100006070, symSize: 0x30 }
  - { offsetInCU: 0xA3E9, offset: 0x148D2, size: 0x8, addend: 0x0, symName: __ZNSt3__127__do_deallocate_handle_sizeB8ue170006IJEEEvPvmDpT_, symObjAddr: 0x2790, symBinAddr: 0x1000060A0, symSize: 0x28 }
  - { offsetInCU: 0xA429, offset: 0x14912, size: 0x8, addend: 0x0, symName: __ZNSt3__124__libcpp_operator_deleteB8ue170006IJPvEEEvDpT_, symObjAddr: 0x27B8, symBinAddr: 0x1000060C8, symSize: 0x24 }
  - { offsetInCU: 0xA492, offset: 0x1497B, size: 0x8, addend: 0x0, symName: __ZNSt3__13maxB8ue170006ImEERKT_S3_S3_, symObjAddr: 0x3ED4, symBinAddr: 0x100006D80, symSize: 0x2C }
  - { offsetInCU: 0xA4D5, offset: 0x149BE, size: 0x8, addend: 0x0, symName: __ZNSt3__13minB8ue170006ImEERKT_S3_S3_, symObjAddr: 0x3F00, symBinAddr: 0x100006DAC, symSize: 0x2C }
  - { offsetInCU: 0xA723, offset: 0x14C0C, size: 0x8, addend: 0x0, symName: __ZNSt3__13minB8ue170006ImNS_6__lessIvvEEEERKT_S5_S5_T0_, symObjAddr: 0x3F8C, symBinAddr: 0x100006E38, symSize: 0x54 }
  - { offsetInCU: 0xA7C4, offset: 0x14CAD, size: 0x8, addend: 0x0, symName: __ZNSt3__120__throw_length_errorB8ue170006EPKc, symObjAddr: 0x4068, symBinAddr: 0x100006F14, symSize: 0x64 }
  - { offsetInCU: 0xA7EF, offset: 0x14CD8, size: 0x8, addend: 0x0, symName: __ZNSt3__13maxB8ue170006ImNS_6__lessIvvEEEERKT_S5_S5_T0_, symObjAddr: 0x414C, symBinAddr: 0x100006FF8, symSize: 0x54 }
  - { offsetInCU: 0xA849, offset: 0x14D32, size: 0x8, addend: 0x0, symName: __ZNSt3__119__allocate_at_leastB8ue170006INS_9allocatorIiEEEENS_19__allocation_resultINS_16allocator_traitsIT_E7pointerEEERS5_m, symObjAddr: 0x42B0, symBinAddr: 0x10000715C, symSize: 0x40 }
  - { offsetInCU: 0xA88C, offset: 0x14D75, size: 0x8, addend: 0x0, symName: __ZNSt3__142__uninitialized_allocator_move_if_noexceptB8ue170006INS_9allocatorIiEENS_16reverse_iteratorIPiEES5_ivEET1_RT_T0_S9_S6_, symObjAddr: 0x4490, symBinAddr: 0x10000733C, symSize: 0xE8 }
  - { offsetInCU: 0xA90B, offset: 0x14DF4, size: 0x8, addend: 0x0, symName: __ZNSt3__14swapB8ue170006IPiEEvRT_S3_, symObjAddr: 0x45C4, symBinAddr: 0x100007470, symSize: 0x3C }
  - { offsetInCU: 0xA95C, offset: 0x14E45, size: 0x8, addend: 0x0, symName: __ZNSt3__1neB8ue170006IPiS1_EEbRKNS_16reverse_iteratorIT_EERKNS2_IT0_EE, symObjAddr: 0x46AC, symBinAddr: 0x100007558, symSize: 0x48 }
  - { offsetInCU: 0xA9CF, offset: 0x14EB8, size: 0x8, addend: 0x0, symName: __ZNSt3__114__construct_atB8ue170006IiJiEPiEEPT_S3_DpOT0_, symObjAddr: 0x46F4, symBinAddr: 0x1000075A0, symSize: 0x2C }
  - { offsetInCU: 0xAA41, offset: 0x14F2A, size: 0x8, addend: 0x0, symName: __ZNSt3__112__to_addressB8ue170006INS_16reverse_iteratorIPiEEvEEu7__decayIDTclsr19__to_address_helperIT_EE6__callclsr3stdE7declvalIRKS4_EEEEES6_, symObjAddr: 0x4720, symBinAddr: 0x1000075CC, symSize: 0x24 }
  - { offsetInCU: 0xAA78, offset: 0x14F61, size: 0x8, addend: 0x0, symName: __ZNSt3__14moveB8ue170006INS_16reverse_iteratorIPiEES3_EET0_T_S5_S4_, symObjAddr: 0x478C, symBinAddr: 0x100007638, symSize: 0x78 }
  - { offsetInCU: 0xAAFC, offset: 0x14FE5, size: 0x8, addend: 0x0, symName: __ZNSt3__16__moveB8ue170006INS_17_ClassicAlgPolicyENS_16reverse_iteratorIPiEES4_S4_EENS_4pairIT0_T2_EES6_T1_S7_, symObjAddr: 0x4874, symBinAddr: 0x100007720, symSize: 0x64 }
  - { offsetInCU: 0xAB68, offset: 0x15051, size: 0x8, addend: 0x0, symName: __ZNSt3__123__dispatch_copy_or_moveB8ue170006INS_17_ClassicAlgPolicyENS_11__move_loopIS1_EENS_14__move_trivialENS_16reverse_iteratorIPiEES7_S7_EENS_4pairIT2_T4_EES9_T3_SA_, symObjAddr: 0x48D8, symBinAddr: 0x100007784, symSize: 0x64 }
  - { offsetInCU: 0xABE6, offset: 0x150CF, size: 0x8, addend: 0x0, symName: __ZNSt3__121__unwrap_and_dispatchB8ue170006INS_10__overloadINS_11__move_loopINS_17_ClassicAlgPolicyEEENS_14__move_trivialEEENS_16reverse_iteratorIPiEES9_S9_Li0EEENS_4pairIT0_T2_EESB_T1_SC_, symObjAddr: 0x493C, symBinAddr: 0x1000077E8, symSize: 0x12C }
  - { offsetInCU: 0xAC77, offset: 0x15160, size: 0x8, addend: 0x0, symName: __ZNSt3__114__unwrap_rangeB8ue170006INS_16reverse_iteratorIPiEES3_EENS_4pairIT0_S5_EET_S7_, symObjAddr: 0x4A68, symBinAddr: 0x100007914, symSize: 0x84 }
  - { offsetInCU: 0xADCB, offset: 0x152B4, size: 0x8, addend: 0x0, symName: __ZNSt3__113__unwrap_iterB8ue170006INS_16reverse_iteratorIPiEENS_18__unwrap_iter_implIS3_Lb0EEELi0EEEDTclsrT0_8__unwrapclsr3stdE7declvalIT_EEEES7_, symObjAddr: 0x4B8C, symBinAddr: 0x100007A38, symSize: 0x44 }
  - { offsetInCU: 0xAE10, offset: 0x152F9, size: 0x8, addend: 0x0, symName: __ZNSt3__19make_pairB8ue170006INS_16reverse_iteratorIPiEES3_EENS_4pairINS_18__unwrap_ref_decayIT_E4typeENS5_IT0_E4typeEEEOS6_OS9_, symObjAddr: 0x4BD0, symBinAddr: 0x100007A7C, symSize: 0x38 }
  - { offsetInCU: 0xAE5F, offset: 0x15348, size: 0x8, addend: 0x0, symName: __ZNSt3__114__rewrap_rangeB8ue170006INS_16reverse_iteratorIPiEES3_EET_S4_T0_, symObjAddr: 0x4C08, symBinAddr: 0x100007AB4, symSize: 0x5C }
  - { offsetInCU: 0xAEAB, offset: 0x15394, size: 0x8, addend: 0x0, symName: __ZNSt3__113__rewrap_iterB8ue170006INS_16reverse_iteratorIPiEES3_NS_18__unwrap_iter_implIS3_Lb0EEEEET_S6_T0_, symObjAddr: 0x4C64, symBinAddr: 0x100007B10, symSize: 0x88 }
  - { offsetInCU: 0xB10F, offset: 0x155F8, size: 0x8, addend: 0x0, symName: __ZNSt3__127__tree_balance_after_insertB8ue170006IPNS_16__tree_node_baseIPvEEEEvT_S5_, symObjAddr: 0x5CC0, symBinAddr: 0x100008B6C, symSize: 0x340 }
  - { offsetInCU: 0xB185, offset: 0x1566E, size: 0x8, addend: 0x0, symName: __ZNSt3__120__tree_is_left_childB8ue170006IPNS_16__tree_node_baseIPvEEEEbT_, symObjAddr: 0x6018, symBinAddr: 0x100008EC4, symSize: 0x2C }
  - { offsetInCU: 0xB1BA, offset: 0x156A3, size: 0x8, addend: 0x0, symName: __ZNSt3__118__tree_left_rotateB8ue170006IPNS_16__tree_node_baseIPvEEEEvT_, symObjAddr: 0x6044, symBinAddr: 0x100008EF0, symSize: 0xEC }
  - { offsetInCU: 0xB1FD, offset: 0x156E6, size: 0x8, addend: 0x0, symName: __ZNSt3__119__tree_right_rotateB8ue170006IPNS_16__tree_node_baseIPvEEEEvT_, symObjAddr: 0x6130, symBinAddr: 0x100008FDC, symSize: 0xCC }
  - { offsetInCU: 0xB240, offset: 0x15729, size: 0x8, addend: 0x0, symName: __ZNSt3__1miB8ue170006IPiS1_EENS_11__wrap_iterIT_E15difference_typeERKS4_RKNS2_IT0_EE, symObjAddr: 0x66D8, symBinAddr: 0x100009584, symSize: 0x48 }
  - { offsetInCU: 0xB28C, offset: 0x15775, size: 0x8, addend: 0x0, symName: __ZNSt3__1ltB8ue170006IPiEEbRKNS_11__wrap_iterIT_EES6_, symObjAddr: 0x677C, symBinAddr: 0x100009628, symSize: 0x48 }
  - { offsetInCU: 0xB2CF, offset: 0x157B8, size: 0x8, addend: 0x0, symName: __ZNSt3__113__countl_zeroB8ue170006ImEEiT_, symObjAddr: 0x6AF8, symBinAddr: 0x1000099A4, symSize: 0x54 }
  - { offsetInCU: 0xB304, offset: 0x157ED, size: 0x8, addend: 0x0, symName: __ZNSt3__112__libcpp_clzB8ue170006Em, symObjAddr: 0x6FBC, symBinAddr: 0x100009E68, symSize: 0x1C }
  - { offsetInCU: 0xB330, offset: 0x15819, size: 0x8, addend: 0x0, symName: __ZNSt3__19iter_swapB8ue170006INS_11__wrap_iterIPiEES3_EEvT_T0_, symObjAddr: 0x700C, symBinAddr: 0x100009EB8, symSize: 0x50 }
  - { offsetInCU: 0xB379, offset: 0x15862, size: 0x8, addend: 0x0, symName: __ZNSt3__14swapB8ue170006IiEEvRT_S2_, symObjAddr: 0x705C, symBinAddr: 0x100009F08, symSize: 0x3C }
  - { offsetInCU: 0xB3CA, offset: 0x158B3, size: 0x8, addend: 0x0, symName: __ZNSt3__18distanceB8ue170006IPiEENS_15iterator_traitsIT_E15difference_typeES3_S3_, symObjAddr: 0x72D8, symBinAddr: 0x10000A184, symSize: 0x2C }
  - { offsetInCU: 0xB40D, offset: 0x158F6, size: 0x8, addend: 0x0, symName: __ZNSt3__14nextB8ue170006IPiEENS_9enable_ifIXsr29__has_input_iterator_categoryIT_EE5valueES3_E4typeES3_NS_15iterator_traitsIS3_E15difference_typeE, symObjAddr: 0x7304, symBinAddr: 0x10000A1B0, symSize: 0x34 }
  - { offsetInCU: 0xB450, offset: 0x15939, size: 0x8, addend: 0x0, symName: __ZNSt3__14copyB8ue170006IPiS1_EET0_T_S3_S2_, symObjAddr: 0x7338, symBinAddr: 0x10000A1E4, symSize: 0x40 }
  - { offsetInCU: 0xB4AA, offset: 0x15993, size: 0x8, addend: 0x0, symName: __ZNSt3__16__copyB8ue170006INS_17_ClassicAlgPolicyEPiS2_S2_EENS_4pairIT0_T2_EES4_T1_S5_, symObjAddr: 0x740C, symBinAddr: 0x10000A2B8, symSize: 0x44 }
  - { offsetInCU: 0xB516, offset: 0x159FF, size: 0x8, addend: 0x0, symName: __ZNSt3__121__convert_to_integralB8ue170006El, symObjAddr: 0x7614, symBinAddr: 0x10000A4C0, symSize: 0x14 }
  - { offsetInCU: 0xB542, offset: 0x15A2B, size: 0x8, addend: 0x0, symName: __ZNSt3__19__advanceB8ue170006IPiEEvRT_NS_15iterator_traitsIS2_E15difference_typeENS_26random_access_iterator_tagE, symObjAddr: 0x7628, symBinAddr: 0x10000A4D4, symSize: 0x28 }
  - { offsetInCU: 0xB58C, offset: 0x15A75, size: 0x8, addend: 0x0, symName: __ZNSt3__130__uninitialized_allocator_copyB8ue170006INS_9allocatorIiEEPiS3_S3_EET2_RT_T0_T1_S4_, symObjAddr: 0x7650, symBinAddr: 0x10000A4FC, symSize: 0x80 }
  - { offsetInCU: 0xB629, offset: 0x15B12, size: 0x8, addend: 0x0, symName: __ZNSt3__114__unwrap_rangeB8ue170006IPiS1_EENS_4pairIT0_S3_EET_S5_, symObjAddr: 0x76D0, symBinAddr: 0x10000A57C, symSize: 0x60 }
  - { offsetInCU: 0xB675, offset: 0x15B5E, size: 0x8, addend: 0x0, symName: __ZNSt3__135__uninitialized_allocator_copy_implB8ue170006INS_9allocatorIiEEPiS3_S3_EET2_RT_T0_T1_S4_, symObjAddr: 0x7730, symBinAddr: 0x10000A5DC, symSize: 0xFC }
  - { offsetInCU: 0xB713, offset: 0x15BFC, size: 0x8, addend: 0x0, symName: __ZNSt3__113__unwrap_iterB8ue170006IPiNS_18__unwrap_iter_implIS1_Lb1EEELi0EEEDTclsrT0_8__unwrapclsr3stdE7declvalIT_EEEES5_, symObjAddr: 0x782C, symBinAddr: 0x10000A6D8, symSize: 0x24 }
  - { offsetInCU: 0xB758, offset: 0x15C41, size: 0x8, addend: 0x0, symName: __ZNSt3__113__rewrap_iterB8ue170006IPiS1_NS_18__unwrap_iter_implIS1_Lb1EEEEET_S4_T0_, symObjAddr: 0x7850, symBinAddr: 0x10000A6FC, symSize: 0x50 }
  - { offsetInCU: 0xB7AD, offset: 0x15C96, size: 0x8, addend: 0x0, symName: __ZNSt3__19make_pairB8ue170006IPiS1_EENS_4pairINS_18__unwrap_ref_decayIT_E4typeENS3_IT0_E4typeEEEOS4_OS7_, symObjAddr: 0x78A0, symBinAddr: 0x10000A74C, symSize: 0x38 }
  - { offsetInCU: 0xB8A9, offset: 0x15D92, size: 0x8, addend: 0x0, symName: __ZNSt3__122__make_exception_guardB8ue170006INS_29_AllocatorDestroyRangeReverseINS_9allocatorIiEEPiEEEENS_28__exception_guard_exceptionsIT_EES7_, symObjAddr: 0x7948, symBinAddr: 0x10000A7F4, symSize: 0x4C }
  - { offsetInCU: 0xB8DF, offset: 0x15DC8, size: 0x8, addend: 0x0, symName: __ZNSt3__119__allocator_destroyB8ue170006INS_9allocatorIiEENS_16reverse_iteratorIPiEES5_EEvRT_T0_T1_, symObjAddr: 0x7BC8, symBinAddr: 0x10000AA74, symSize: 0x70 }
  - { offsetInCU: 0xB996, offset: 0x15E7F, size: 0x8, addend: 0x0, symName: __ZNSt3__123__dispatch_copy_or_moveB8ue170006INS_17_ClassicAlgPolicyENS_11__copy_loopIS1_EENS_14__copy_trivialEPiS5_S5_EENS_4pairIT2_T4_EES7_T3_S8_, symObjAddr: 0x7CAC, symBinAddr: 0x10000AB58, symSize: 0x44 }
  - { offsetInCU: 0xBA14, offset: 0x15EFD, size: 0x8, addend: 0x0, symName: __ZNSt3__121__unwrap_and_dispatchB8ue170006INS_10__overloadINS_11__copy_loopINS_17_ClassicAlgPolicyEEENS_14__copy_trivialEEEPiS7_S7_Li0EEENS_4pairIT0_T2_EES9_T1_SA_, symObjAddr: 0x7CF0, symBinAddr: 0x10000AB9C, symSize: 0xB4 }
  - { offsetInCU: 0xBAEA, offset: 0x15FD3, size: 0x8, addend: 0x0, symName: __ZNSt3__114__rewrap_rangeB8ue170006IPiS1_EET_S2_T0_, symObjAddr: 0x7DEC, symBinAddr: 0x10000AC98, symSize: 0x2C }
  - { offsetInCU: 0xBB36, offset: 0x1601F, size: 0x8, addend: 0x0, symName: __ZNSt3__119__copy_trivial_implB8ue170006IiiEENS_4pairIPT_PT0_EES3_S3_S5_, symObjAddr: 0x7E18, symBinAddr: 0x10000ACC4, symSize: 0x80 }
  - { offsetInCU: 0xBB9E, offset: 0x16087, size: 0x8, addend: 0x0, symName: __ZNSt3__119__constexpr_memmoveB8ue170006IiiLi0EEEPT_S2_PT0_NS_15__element_countE, symObjAddr: 0x7E98, symBinAddr: 0x10000AD44, symSize: 0xA0 }
  - { offsetInCU: 0xBC0D, offset: 0x160F6, size: 0x8, addend: 0x0, symName: __ZNSt3__19make_pairB8ue170006IRPiS1_EENS_4pairINS_18__unwrap_ref_decayIT_E4typeENS4_IT0_E4typeEEEOS5_OS8_, symObjAddr: 0x7F38, symBinAddr: 0x10000ADE4, symSize: 0x38 }
  - { offsetInCU: 0xBC5C, offset: 0x16145, size: 0x8, addend: 0x0, symName: __ZNSt3__110__distanceB8ue170006IPiEENS_15iterator_traitsIT_E15difference_typeES3_S3_NS_26random_access_iterator_tagE, symObjAddr: 0x7F70, symBinAddr: 0x10000AE1C, symSize: 0x28 }
  - { offsetInCU: 0xBCA9, offset: 0x16192, size: 0x8, addend: 0x0, symName: __ZNSt3__1eqB8ue170006IPiEEbRKNS_11__wrap_iterIT_EES6_, symObjAddr: 0x7F98, symBinAddr: 0x10000AE44, symSize: 0x48 }
  - { offsetInCU: 0xBCEC, offset: 0x161D5, size: 0x8, addend: 0x0, symName: __ZNSt3__112__to_addressB8ue170006IdEEPT_S2_, symObjAddr: 0x89BC, symBinAddr: 0x10000B868, symSize: 0x14 }
  - { offsetInCU: 0xBD21, offset: 0x1620A, size: 0x8, addend: 0x0, symName: __ZNSt3__112__to_addressB8ue170006IPdEEPT_S3_, symObjAddr: 0x8C28, symBinAddr: 0x10000BAD4, symSize: 0x14 }
  - { offsetInCU: 0xBD56, offset: 0x1623F, size: 0x8, addend: 0x0, symName: __ZNSt3__1neB8ue170006ERKNS_16__deque_iteratorIdPdRdPS1_lLl512EEES6_, symObjAddr: 0x9104, symBinAddr: 0x10000BFB0, symSize: 0x34 }
  - { offsetInCU: 0xBD93, offset: 0x1627C, size: 0x8, addend: 0x0, symName: __ZNSt3__1eqB8ue170006ERKNS_16__deque_iteratorIdPdRdPS1_lLl512EEES6_, symObjAddr: 0x9258, symBinAddr: 0x10000C104, symSize: 0x30 }
  - { offsetInCU: 0xC25D, offset: 0x16746, size: 0x8, addend: 0x0, symName: __ZNSt3__14swapB8ue170006IPPdEEvRT_S4_, symObjAddr: 0xA740, symBinAddr: 0x10000D5EC, symSize: 0x3C }
  - { offsetInCU: 0xC2AE, offset: 0x16797, size: 0x8, addend: 0x0, symName: __ZNSt3__14moveB8ue170006IPPdS2_EET0_T_S4_S3_, symObjAddr: 0xA824, symBinAddr: 0x10000D6D0, symSize: 0x40 }
  - { offsetInCU: 0xC327, offset: 0x16810, size: 0x8, addend: 0x0, symName: __ZNSt3__16__moveB8ue170006INS_17_ClassicAlgPolicyEPPdS3_S3_EENS_4pairIT0_T2_EES5_T1_S6_, symObjAddr: 0xA92C, symBinAddr: 0x10000D7D8, symSize: 0x44 }
  - { offsetInCU: 0xC393, offset: 0x1687C, size: 0x8, addend: 0x0, symName: __ZNSt3__123__dispatch_copy_or_moveB8ue170006INS_17_ClassicAlgPolicyENS_11__move_loopIS1_EENS_14__move_trivialEPPdS6_S6_EENS_4pairIT2_T4_EES8_T3_S9_, symObjAddr: 0xA970, symBinAddr: 0x10000D81C, symSize: 0x44 }
  - { offsetInCU: 0xC411, offset: 0x168FA, size: 0x8, addend: 0x0, symName: __ZNSt3__121__unwrap_and_dispatchB8ue170006INS_10__overloadINS_11__move_loopINS_17_ClassicAlgPolicyEEENS_14__move_trivialEEEPPdS8_S8_Li0EEENS_4pairIT0_T2_EESA_T1_SB_, symObjAddr: 0xA9B4, symBinAddr: 0x10000D860, symSize: 0xB4 }
  - { offsetInCU: 0xC4A0, offset: 0x16989, size: 0x8, addend: 0x0, symName: __ZNSt3__114__unwrap_rangeB8ue170006IPPdS2_EENS_4pairIT0_S4_EET_S6_, symObjAddr: 0xAA68, symBinAddr: 0x10000D914, symSize: 0x60 }
  - { offsetInCU: 0xC5E0, offset: 0x16AC9, size: 0x8, addend: 0x0, symName: __ZNSt3__113__unwrap_iterB8ue170006IPPdNS_18__unwrap_iter_implIS2_Lb1EEELi0EEEDTclsrT0_8__unwrapclsr3stdE7declvalIT_EEEES6_, symObjAddr: 0xAB10, symBinAddr: 0x10000D9BC, symSize: 0x24 }
  - { offsetInCU: 0xC625, offset: 0x16B0E, size: 0x8, addend: 0x0, symName: __ZNSt3__19make_pairB8ue170006IPPdS2_EENS_4pairINS_18__unwrap_ref_decayIT_E4typeENS4_IT0_E4typeEEEOS5_OS8_, symObjAddr: 0xAB34, symBinAddr: 0x10000D9E0, symSize: 0x38 }
  - { offsetInCU: 0xC674, offset: 0x16B5D, size: 0x8, addend: 0x0, symName: __ZNSt3__114__rewrap_rangeB8ue170006IPPdS2_EET_S3_T0_, symObjAddr: 0xAB6C, symBinAddr: 0x10000DA18, symSize: 0x2C }
  - { offsetInCU: 0xC6C0, offset: 0x16BA9, size: 0x8, addend: 0x0, symName: __ZNSt3__113__rewrap_iterB8ue170006IPPdS2_NS_18__unwrap_iter_implIS2_Lb1EEEEET_S5_T0_, symObjAddr: 0xAB98, symBinAddr: 0x10000DA44, symSize: 0x50 }
  - { offsetInCU: 0xC715, offset: 0x16BFE, size: 0x8, addend: 0x0, symName: __ZNSt3__119__copy_trivial_implB8ue170006IPdS1_EENS_4pairIPT_PT0_EES4_S4_S6_, symObjAddr: 0xABE8, symBinAddr: 0x10000DA94, symSize: 0x80 }
  - { offsetInCU: 0xC77D, offset: 0x16C66, size: 0x8, addend: 0x0, symName: __ZNSt3__119__constexpr_memmoveB8ue170006IPdS1_Li0EEEPT_S3_PT0_NS_15__element_countE, symObjAddr: 0xAC68, symBinAddr: 0x10000DB14, symSize: 0xA0 }
  - { offsetInCU: 0xC7EC, offset: 0x16CD5, size: 0x8, addend: 0x0, symName: __ZNSt3__19make_pairB8ue170006IRPPdS2_EENS_4pairINS_18__unwrap_ref_decayIT_E4typeENS5_IT0_E4typeEEEOS6_OS9_, symObjAddr: 0xAD08, symBinAddr: 0x10000DBB4, symSize: 0x38 }
  - { offsetInCU: 0xC88E, offset: 0x16D77, size: 0x8, addend: 0x0, symName: __ZNSt3__18distanceB8ue170006INS_13move_iteratorIPPdEEEENS_15iterator_traitsIT_E15difference_typeES6_S6_, symObjAddr: 0xAF08, symBinAddr: 0x10000DDB4, symSize: 0x3C }
  - { offsetInCU: 0xC8D1, offset: 0x16DBA, size: 0x8, addend: 0x0, symName: __ZNSt3__110__distanceB8ue170006INS_13move_iteratorIPPdEEEENS_15iterator_traitsIT_E15difference_typeES6_S6_NS_26random_access_iterator_tagE, symObjAddr: 0xB10C, symBinAddr: 0x10000DFB8, symSize: 0x30 }
  - { offsetInCU: 0xC91E, offset: 0x16E07, size: 0x8, addend: 0x0, symName: __ZNSt3__1miB8ue170006IPPdS2_EENS_13move_iteratorIT_E15difference_typeERKS5_RKNS3_IT0_EE, symObjAddr: 0xB13C, symBinAddr: 0x10000DFE8, symSize: 0x48 }
  - { offsetInCU: 0xC96D, offset: 0x16E56, size: 0x8, addend: 0x0, symName: __ZNSt3__113move_backwardB8ue170006IPPdS2_EET0_T_S4_S3_, symObjAddr: 0xB2A0, symBinAddr: 0x10000E14C, symSize: 0x40 }
  - { offsetInCU: 0xC9C7, offset: 0x16EB0, size: 0x8, addend: 0x0, symName: __ZNSt3__115__move_backwardB8ue170006INS_17_ClassicAlgPolicyEPPdS3_S3_EENS_4pairIT0_T2_EES5_T1_S6_, symObjAddr: 0xB2E0, symBinAddr: 0x10000E18C, symSize: 0x44 }
  - { offsetInCU: 0xCA33, offset: 0x16F1C, size: 0x8, addend: 0x0, symName: __ZNSt3__123__dispatch_copy_or_moveB8ue170006INS_17_ClassicAlgPolicyENS_20__move_backward_loopIS1_EENS_23__move_backward_trivialEPPdS6_S6_EENS_4pairIT2_T4_EES8_T3_S9_, symObjAddr: 0xB324, symBinAddr: 0x10000E1D0, symSize: 0x44 }
  - { offsetInCU: 0xCAB1, offset: 0x16F9A, size: 0x8, addend: 0x0, symName: __ZNSt3__121__unwrap_and_dispatchB8ue170006INS_10__overloadINS_20__move_backward_loopINS_17_ClassicAlgPolicyEEENS_23__move_backward_trivialEEEPPdS8_S8_Li0EEENS_4pairIT0_T2_EESA_T1_SB_, symObjAddr: 0xB368, symBinAddr: 0x10000E214, symSize: 0xB4 }
  - { offsetInCU: 0xCB87, offset: 0x17070, size: 0x8, addend: 0x0, symName: __ZNSt3__128__copy_backward_trivial_implB8ue170006IPdS1_EENS_4pairIPT_PT0_EES4_S4_S6_, symObjAddr: 0xB464, symBinAddr: 0x10000E310, symSize: 0x90 }
  - { offsetInCU: 0xCBEF, offset: 0x170D8, size: 0x8, addend: 0x0, symName: __ZNSt3__19make_pairB8ue170006IRPPdS3_EENS_4pairINS_18__unwrap_ref_decayIT_E4typeENS5_IT0_E4typeEEEOS6_OS9_, symObjAddr: 0xB4F4, symBinAddr: 0x10000E3A0, symSize: 0x38 }
  - { offsetInCU: 0xCC3E, offset: 0x17127, size: 0x8, addend: 0x0, symName: __ZNSt3__119__allocate_at_leastB8ue170006INS_9allocatorIPdEEEENS_19__allocation_resultINS_16allocator_traitsIT_E7pointerEEERS6_m, symObjAddr: 0xB63C, symBinAddr: 0x10000E4E8, symSize: 0x40 }
  - { offsetInCU: 0xCC81, offset: 0x1716A, size: 0x8, addend: 0x0, symName: __ZNSt3__111__sort_implB8ue170006INS_17_ClassicAlgPolicyENS_16__deque_iteratorIdPdRdPS3_lLl512EEENS_7greaterIdEEEEvT0_S9_RT1_, symObjAddr: 0xBD84, symBinAddr: 0x10000EC30, symSize: 0x188 }
  - { offsetInCU: 0xCCE5, offset: 0x171CE, size: 0x8, addend: 0x0, symName: __ZNSt3__123__debug_randomize_rangeB8ue170006INS_17_ClassicAlgPolicyENS_16__deque_iteratorIdPdRdPS3_lLl512EEES6_EEvT0_T1_, symObjAddr: 0xBF0C, symBinAddr: 0x10000EDB8, symSize: 0x1C }
  - { offsetInCU: 0xCD37, offset: 0x17220, size: 0x8, addend: 0x0, symName: __ZNSt3__114__partial_sortB8ue170006INS_17_ClassicAlgPolicyENS_7greaterIdEENS_16__deque_iteratorIdPdRdPS5_lLl512EEES8_EET1_S9_S9_T2_RT0_, symObjAddr: 0xBF28, symBinAddr: 0x10000EDD4, symSize: 0x110 }
  - { offsetInCU: 0xCDC0, offset: 0x172A9, size: 0x8, addend: 0x0, symName: __ZNSt3__113__unwrap_iterB8ue170006INS_16__deque_iteratorIdPdRdPS2_lLl512EEENS_18__unwrap_iter_implIS5_Lb0EEELi0EEEDTclsrT0_8__unwrapclsr3stdE7declvalIT_EEEES9_, symObjAddr: 0xC038, symBinAddr: 0x10000EEE4, symSize: 0x44 }
  - { offsetInCU: 0xCE05, offset: 0x172EE, size: 0x8, addend: 0x0, symName: __ZNSt3__115__sort_dispatchB8ue170006INS_17_ClassicAlgPolicyENS_16__deque_iteratorIdPdRdPS3_lLl512EEENS_7greaterIdEEEEvT0_S9_RT1_, symObjAddr: 0xC07C, symBinAddr: 0x10000EF28, symSize: 0x80 }
  - { offsetInCU: 0xCE84, offset: 0x1736D, size: 0x8, addend: 0x0, symName: __ZNSt3__135__check_strict_weak_ordering_sortedB8ue170006INS_16__deque_iteratorIdPdRdPS2_lLl512EEENS_7greaterIdEEEEvT_S8_RT0_, symObjAddr: 0xC0FC, symBinAddr: 0x10000EFA8, symSize: 0x20 }
  - { offsetInCU: 0xCEDB, offset: 0x173C4, size: 0x8, addend: 0x0, symName: __ZNSt3__119__partial_sort_implB8ue170006INS_17_ClassicAlgPolicyERNS_7greaterIdEENS_16__deque_iteratorIdPdRdPS6_lLl512EEES9_EET1_SA_SA_T2_OT0_, symObjAddr: 0xC148, symBinAddr: 0x10000EFF4, symSize: 0x1A0 }
  - { offsetInCU: 0xCF74, offset: 0x1745D, size: 0x8, addend: 0x0, symName: __ZNSt3__111__make_heapB8ue170006INS_17_ClassicAlgPolicyERNS_7greaterIdEENS_16__deque_iteratorIdPdRdPS6_lLl512EEEEEvT1_SA_OT0_, symObjAddr: 0xC2E8, symBinAddr: 0x10000F194, symSize: 0xE8 }
  - { offsetInCU: 0xD018, offset: 0x17501, size: 0x8, addend: 0x0, symName: __ZNSt3__1miB8ue170006ERKNS_16__deque_iteratorIdPdRdPS1_lLl512EEES6_, symObjAddr: 0xC3D0, symBinAddr: 0x10000F27C, symSize: 0xA4 }
  - { offsetInCU: 0xD0BF, offset: 0x175A8, size: 0x8, addend: 0x0, symName: __ZNSt3__111__sort_heapB8ue170006INS_17_ClassicAlgPolicyERNS_7greaterIdEENS_16__deque_iteratorIdPdRdPS6_lLl512EEEEEvT1_SA_OT0_, symObjAddr: 0xC7F0, symBinAddr: 0x10000F69C, symSize: 0xD8 }
  - { offsetInCU: 0xD165, offset: 0x1764E, size: 0x8, addend: 0x0, symName: __ZNSt3__19iter_swapB8ue170006INS_16__deque_iteratorIdPdRdPS2_lLl512EEES5_EEvT_T0_, symObjAddr: 0xCA18, symBinAddr: 0x10000F8C4, symSize: 0x58 }
  - { offsetInCU: 0xD1AE, offset: 0x17697, size: 0x8, addend: 0x0, symName: __ZNSt3__14swapB8ue170006IdEEvRT_S2_, symObjAddr: 0xCA70, symBinAddr: 0x10000F91C, symSize: 0x3C }
  - { offsetInCU: 0xD224, offset: 0x1770D, size: 0x8, addend: 0x0, symName: __ZNSt3__110__pop_heapB8ue170006INS_17_ClassicAlgPolicyENS_7greaterIdEENS_16__deque_iteratorIdPdRdPS5_lLl512EEEEEvT1_S9_RT0_NS_15iterator_traitsIS9_E15difference_typeE, symObjAddr: 0xCAD8, symBinAddr: 0x10000F984, symSize: 0x15C }
  - { offsetInCU: 0xD2D7, offset: 0x177C0, size: 0x8, addend: 0x0, symName: __ZNSt3__19__sift_upB8ue170006INS_17_ClassicAlgPolicyERNS_7greaterIdEENS_16__deque_iteratorIdPdRdPS6_lLl512EEEEEvT1_SA_OT0_NS_15iterator_traitsISA_E15difference_typeE, symObjAddr: 0xCDF4, symBinAddr: 0x10000FCA0, symSize: 0x178 }
  - { offsetInCU: 0xD3D3, offset: 0x178BC, size: 0x8, addend: 0x0, symName: __ZNSt3__17__log2iB8ue170006IlEET_S1_, symObjAddr: 0xCF90, symBinAddr: 0x10000FE3C, symSize: 0x54 }
  - { offsetInCU: 0xD40A, offset: 0x178F3, size: 0x8, addend: 0x0, symName: __ZNSt3__124__sort3_maybe_branchlessB8ue170006INS_17_ClassicAlgPolicyERNS_7greaterIdEENS_16__deque_iteratorIdPdRdPS6_lLl512EEEEENS_9enable_ifIXntsr21__use_branchless_sortIT0_T1_EE5valueEvE4typeESC_SC_SC_SB_, symObjAddr: 0xD7C8, symBinAddr: 0x100010674, symSize: 0x6C }
  - { offsetInCU: 0xD47B, offset: 0x17964, size: 0x8, addend: 0x0, symName: __ZNSt3__124__sort4_maybe_branchlessB8ue170006INS_17_ClassicAlgPolicyERNS_7greaterIdEENS_16__deque_iteratorIdPdRdPS6_lLl512EEEEENS_9enable_ifIXntsr21__use_branchless_sortIT0_T1_EE5valueEvE4typeESC_SC_SC_SC_SB_, symObjAddr: 0xD834, symBinAddr: 0x1000106E0, symSize: 0x90 }
  - { offsetInCU: 0xD4FB, offset: 0x179E4, size: 0x8, addend: 0x0, symName: __ZNSt3__124__sort5_maybe_branchlessB8ue170006INS_17_ClassicAlgPolicyERNS_7greaterIdEENS_16__deque_iteratorIdPdRdPS6_lLl512EEEEENS_9enable_ifIXntsr21__use_branchless_sortIT0_T1_EE5valueEvE4typeESC_SC_SC_SC_SC_SB_, symObjAddr: 0xD8C4, symBinAddr: 0x100010770, symSize: 0xB8 }
  - { offsetInCU: 0xD58A, offset: 0x17A73, size: 0x8, addend: 0x0, symName: __ZNSt3__116__insertion_sortB8ue170006INS_17_ClassicAlgPolicyERNS_7greaterIdEENS_16__deque_iteratorIdPdRdPS6_lLl512EEEEEvT1_SA_T0_, symObjAddr: 0xD97C, symBinAddr: 0x100010828, symSize: 0x194 }
  - { offsetInCU: 0xD653, offset: 0x17B3C, size: 0x8, addend: 0x0, symName: __ZNSt3__114__partial_sortB8ue170006INS_17_ClassicAlgPolicyERNS_7greaterIdEENS_16__deque_iteratorIdPdRdPS6_lLl512EEES9_EET1_SA_SA_T2_RT0_, symObjAddr: 0xDCAC, symBinAddr: 0x100010B58, symSize: 0x110 }
  - { offsetInCU: 0xD6DC, offset: 0x17BC5, size: 0x8, addend: 0x0, symName: __ZNSt3__17__sort3B8ue170006INS_17_ClassicAlgPolicyERNS_7greaterIdEENS_16__deque_iteratorIdPdRdPS6_lLl512EEEEEjT1_SA_SA_T0_, symObjAddr: 0xDDBC, symBinAddr: 0x100010C68, symSize: 0x1F4 }
  - { offsetInCU: 0xD75C, offset: 0x17C45, size: 0x8, addend: 0x0, symName: __ZNSt3__17__sort4B8ue170006INS_17_ClassicAlgPolicyERNS_7greaterIdEENS_16__deque_iteratorIdPdRdPS6_lLl512EEEEEvT1_SA_SA_SA_T0_, symObjAddr: 0xEE04, symBinAddr: 0x100011CB0, symSize: 0x160 }
  - { offsetInCU: 0xD7D9, offset: 0x17CC2, size: 0x8, addend: 0x0, symName: __ZNSt3__17__sort5B8ue170006INS_17_ClassicAlgPolicyERNS_7greaterIdEENS_16__deque_iteratorIdPdRdPS6_lLl512EEEEEvT1_SA_SA_SA_SA_T0_, symObjAddr: 0xEF64, symBinAddr: 0x100011E10, symSize: 0x1D8 }
  - { offsetInCU: 0xD866, offset: 0x17D4F, size: 0x8, addend: 0x0, symName: __ZNSt3__1ltB8ue170006ERKNS_16__deque_iteratorIdPdRdPS1_lLl512EEES6_, symObjAddr: 0xF170, symBinAddr: 0x10001201C, symSize: 0x98 }
  - { offsetInCU: 0xD8A4, offset: 0x17D8D, size: 0x8, addend: 0x0, symName: __ZNSt3__1geB8ue170006ERKNS_16__deque_iteratorIdPdRdPS1_lLl512EEES6_, symObjAddr: 0xF208, symBinAddr: 0x1000120B4, symSize: 0x34 }
  - { offsetInCU: 0xD8E1, offset: 0x17DCA, size: 0x8, addend: 0x0, symName: __ZNSt3__122__populate_left_bitsetB8ue170006IRNS_7greaterIdEENS_16__deque_iteratorIdPdRdPS5_lLl512EEEdEEvT0_T_RT1_Ry, symObjAddr: 0xF23C, symBinAddr: 0x1000120E8, symSize: 0xC0 }
  - { offsetInCU: 0xD99F, offset: 0x17E88, size: 0x8, addend: 0x0, symName: __ZNSt3__123__populate_right_bitsetB8ue170006IRNS_7greaterIdEENS_16__deque_iteratorIdPdRdPS5_lLl512EEEdEEvT0_T_RT1_Ry, symObjAddr: 0xF2FC, symBinAddr: 0x1000121A8, symSize: 0xB8 }
  - { offsetInCU: 0xDA5D, offset: 0x17F46, size: 0x8, addend: 0x0, symName: __ZNSt3__117__swap_bitmap_posB8ue170006INS_17_ClassicAlgPolicyENS_16__deque_iteratorIdPdRdPS3_lLl512EEEEEvT0_S7_RyS8_, symObjAddr: 0xF3B4, symBinAddr: 0x100012260, symSize: 0x118 }
  - { offsetInCU: 0xDB00, offset: 0x17FE9, size: 0x8, addend: 0x0, symName: __ZNSt3__133__bitset_partition_partial_blocksB8ue170006INS_17_ClassicAlgPolicyERNS_7greaterIdEENS_16__deque_iteratorIdPdRdPS6_lLl512EEEdEEvRT1_SB_T0_RT2_RySF_, symObjAddr: 0xF4CC, symBinAddr: 0x100012378, symSize: 0x300 }
  - { offsetInCU: 0xDC8E, offset: 0x18177, size: 0x8, addend: 0x0, symName: __ZNSt3__19make_pairB8ue170006IRNS_16__deque_iteratorIdPdRdPS2_lLl512EEERbEENS_4pairINS_18__unwrap_ref_decayIT_E4typeENS9_IT0_E4typeEEEOSA_OSD_, symObjAddr: 0xF998, symBinAddr: 0x100012844, symSize: 0x38 }
  - { offsetInCU: 0xDCDD, offset: 0x181C6, size: 0x8, addend: 0x0, symName: __ZNSt3__112__libcpp_ctzB8ue170006Ey, symObjAddr: 0xF9D0, symBinAddr: 0x10001287C, symSize: 0x20 }
  - { offsetInCU: 0xDD09, offset: 0x181F2, size: 0x8, addend: 0x0, symName: __ZNSt3__113__libcpp_blsrB8ue170006Ey, symObjAddr: 0xF9F0, symBinAddr: 0x10001289C, symSize: 0x2C }
  - { offsetInCU: 0xDD35, offset: 0x1821E, size: 0x8, addend: 0x0, symName: __ZNSt3__112__libcpp_clzB8ue170006Ey, symObjAddr: 0xFA68, symBinAddr: 0x100012914, symSize: 0x1C }
  - { offsetInCU: 0xE101, offset: 0x185EA, size: 0x8, addend: 0x0, symName: __ZSt28__throw_bad_array_new_lengthB8ue170006v, symObjAddr: 0x1CA8, symBinAddr: 0x1000055B8, symSize: 0x34 }
  - { offsetInCU: 0xEA0A, offset: 0x18EF3, size: 0x8, addend: 0x0, symName: __ZNSt3__16vectorIiNS_9allocatorIiEEE26__swap_out_circular_bufferERNS_14__split_bufferIiRS2_EE, symObjAddr: 0x3D08, symBinAddr: 0x100006BB4, symSize: 0x110 }
  - { offsetInCU: 0xEAA0, offset: 0x18F89, size: 0x8, addend: 0x0, symName: __ZNSt3__124uniform_int_distributionIlEclINS_13random_deviceEEElRT_RKNS1_10param_typeE, symObjAddr: 0x67C4, symBinAddr: 0x100009670, symSize: 0x174 }
  - { offsetInCU: 0x10A6A, offset: 0x1AF53, size: 0x8, addend: 0x0, symName: __ZN9interfaceC2Ev, symObjAddr: 0x0, symBinAddr: 0x100003AEC, symSize: 0x10C }
  - { offsetInCU: 0x10A95, offset: 0x1AF7E, size: 0x8, addend: 0x0, symName: __ZNSt3__16vectorIiNS_9allocatorIiEEEC1B8ue170006Ev, symObjAddr: 0x10C, symBinAddr: 0x100003BF8, symSize: 0x2C }
  - { offsetInCU: 0x10ABD, offset: 0x1AFA6, size: 0x8, addend: 0x0, symName: __ZNSt3__13mapIi10competitorNS_4lessIiEENS_9allocatorINS_4pairIKiS1_EEEEEC1B8ue170006Ev, symObjAddr: 0x138, symBinAddr: 0x100003C24, symSize: 0x2C }
  - { offsetInCU: 0x10AE5, offset: 0x1AFCE, size: 0x8, addend: 0x0, symName: __ZN9interface9init_compEv, symObjAddr: 0x164, symBinAddr: 0x100003C50, symSize: 0x58 }
  - { offsetInCU: 0x10B0C, offset: 0x1AFF5, size: 0x8, addend: 0x0, symName: __ZN9interface17create_competitorEv, symObjAddr: 0x1BC, symBinAddr: 0x100003CA8, symSize: 0x254 }
  - { offsetInCU: 0x10B97, offset: 0x1B080, size: 0x8, addend: 0x0, symName: __ZNSt3__13mapIi10competitorNS_4lessIiEENS_9allocatorINS_4pairIKiS1_EEEEED1B8ue170006Ev, symObjAddr: 0x410, symBinAddr: 0x100003EFC, symSize: 0x2C }
  - { offsetInCU: 0x10BBF, offset: 0x1B0A8, size: 0x8, addend: 0x0, symName: __ZNSt3__16vectorIiNS_9allocatorIiEEED1B8ue170006Ev, symObjAddr: 0x448, symBinAddr: 0x100003F28, symSize: 0x2C }
  - { offsetInCU: 0x10BE7, offset: 0x1B0D0, size: 0x8, addend: 0x0, symName: __ZN9interfaceC1Ev, symObjAddr: 0x474, symBinAddr: 0x100003F54, symSize: 0x2C }
  - { offsetInCU: 0x10C12, offset: 0x1B0FB, size: 0x8, addend: 0x0, symName: __ZN9interfaceD2Ev, symObjAddr: 0x4A0, symBinAddr: 0x100003F80, symSize: 0xCC }
  - { offsetInCU: 0x10C3D, offset: 0x1B126, size: 0x8, addend: 0x0, symName: __ZN9interfaceD1Ev, symObjAddr: 0x56C, symBinAddr: 0x10000404C, symSize: 0x2C }
  - { offsetInCU: 0x10C68, offset: 0x1B151, size: 0x8, addend: 0x0, symName: __ZN9interface9show_manuEv, symObjAddr: 0x598, symBinAddr: 0x100004078, symSize: 0xE4 }
  - { offsetInCU: 0x10C8F, offset: 0x1B178, size: 0x8, addend: 0x0, symName: __ZNSt3__16vectorIiNS_9allocatorIiEEE5clearB8ue170006Ev, symObjAddr: 0x748, symBinAddr: 0x10000415C, symSize: 0x44 }
  - { offsetInCU: 0x10CC2, offset: 0x1B1AB, size: 0x8, addend: 0x0, symName: __ZNSt3__13mapIi10competitorNS_4lessIiEENS_9allocatorINS_4pairIKiS1_EEEEE5clearB8ue170006Ev, symObjAddr: 0x78C, symBinAddr: 0x1000041A0, symSize: 0x24 }
  - { offsetInCU: 0x10CEB, offset: 0x1B1D4, size: 0x8, addend: 0x0, symName: __ZNSt3__112basic_stringIcNS_11char_traitsIcEENS_9allocatorIcEEEC1B8ue170006ILi0EEEPKc, symObjAddr: 0x7B0, symBinAddr: 0x1000041C4, symSize: 0x34 }
  - { offsetInCU: 0x10D29, offset: 0x1B212, size: 0x8, addend: 0x0, symName: __ZNKSt3__112basic_stringIcNS_11char_traitsIcEENS_9allocatorIcEEE4sizeB8ue170006Ev, symObjAddr: 0x7E4, symBinAddr: 0x1000041F8, symSize: 0x54 }
  - { offsetInCU: 0x10D4D, offset: 0x1B236, size: 0x8, addend: 0x0, symName: __ZNSt3__112basic_stringIcNS_11char_traitsIcEENS_9allocatorIcEEEixB8ue170006Em, symObjAddr: 0x838, symBinAddr: 0x10000424C, symSize: 0x30 }
  - { offsetInCU: 0x10D80, offset: 0x1B269, size: 0x8, addend: 0x0, symName: __ZNSt3__112basic_stringIcNS_11char_traitsIcEENS_9allocatorIcEEEpLB8ue170006Ec, symObjAddr: 0x868, symBinAddr: 0x10000427C, symSize: 0x34 }
  - { offsetInCU: 0x10DB8, offset: 0x1B2A1, size: 0x8, addend: 0x0, symName: __ZN10competitorC1Ev, symObjAddr: 0x89C, symBinAddr: 0x1000042B0, symSize: 0x2C }
  - { offsetInCU: 0x10DE3, offset: 0x1B2CC, size: 0x8, addend: 0x0, symName: __ZNSt3__16vectorIiNS_9allocatorIiEEE9push_backB8ue170006ERKi, symObjAddr: 0x8C8, symBinAddr: 0x1000042DC, symSize: 0x6C }
  - { offsetInCU: 0x10E18, offset: 0x1B301, size: 0x8, addend: 0x0, symName: __ZNSt3__13mapIi10competitorNS_4lessIiEENS_9allocatorINS_4pairIKiS1_EEEEE6insertB8ue170006ERKS7_, symObjAddr: 0x934, symBinAddr: 0x100004348, symSize: 0x4C }
  - { offsetInCU: 0x10E64, offset: 0x1B34D, size: 0x8, addend: 0x0, symName: __ZNSt3__14pairIKi10competitorEC1B8ue170006IiS2_EERKNS0_IT_T0_EE, symObjAddr: 0x9C0, symBinAddr: 0x1000043D4, symSize: 0x34 }
  - { offsetInCU: 0x10EAC, offset: 0x1B395, size: 0x8, addend: 0x0, symName: __ZNSt3__14pairIKi10competitorED1Ev, symObjAddr: 0x9F4, symBinAddr: 0x100004408, symSize: 0x2C }
  - { offsetInCU: 0x10ED7, offset: 0x1B3C0, size: 0x8, addend: 0x0, symName: __ZNSt3__14pairIi10competitorED1Ev, symObjAddr: 0xA20, symBinAddr: 0x100004434, symSize: 0x2C }
  - { offsetInCU: 0x10F02, offset: 0x1B3EB, size: 0x8, addend: 0x0, symName: __ZN10competitorD1Ev, symObjAddr: 0xA4C, symBinAddr: 0x100004460, symSize: 0x2C }
  - { offsetInCU: 0x10F2C, offset: 0x1B415, size: 0x8, addend: 0x0, symName: __Z7printeri, symObjAddr: 0xA78, symBinAddr: 0x10000448C, symSize: 0x38 }
  - { offsetInCU: 0x10F56, offset: 0x1B43F, size: 0x8, addend: 0x0, symName: __ZN9interface16competition_drawEv, symObjAddr: 0xAB0, symBinAddr: 0x1000044C4, symSize: 0x254 }
  - { offsetInCU: 0x10F8B, offset: 0x1B474, size: 0x8, addend: 0x0, symName: __ZNSt3__16vectorIiNS_9allocatorIiEEE5beginB8ue170006Ev, symObjAddr: 0xD4C, symBinAddr: 0x100004760, symSize: 0x30 }
  - { offsetInCU: 0x10FB1, offset: 0x1B49A, size: 0x8, addend: 0x0, symName: __ZNSt3__16vectorIiNS_9allocatorIiEEE3endB8ue170006Ev, symObjAddr: 0xD7C, symBinAddr: 0x100004790, symSize: 0x30 }
  - { offsetInCU: 0x10FD7, offset: 0x1B4C0, size: 0x8, addend: 0x0, symName: __ZN9interface7contestEv, symObjAddr: 0xE18, symBinAddr: 0x10000482C, symSize: 0x2D4 }
  - { offsetInCU: 0x11087, offset: 0x1B570, size: 0x8, addend: 0x0, symName: __ZNSt3__16vectorIiNS_9allocatorIiEEEaSB8ue170006ERKS3_, symObjAddr: 0x10EC, symBinAddr: 0x100004B00, symSize: 0x68 }
  - { offsetInCU: 0x110BC, offset: 0x1B5A5, size: 0x8, addend: 0x0, symName: __ZNSt3__15dequeIdNS_9allocatorIdEEEC1B8ue170006Ev, symObjAddr: 0x1188, symBinAddr: 0x100004B9C, symSize: 0x2C }
  - { offsetInCU: 0x110E4, offset: 0x1B5CD, size: 0x8, addend: 0x0, symName: __ZNSt3__15dequeIdNS_9allocatorIdEEE9push_backERKd, symObjAddr: 0x11B4, symBinAddr: 0x100004BC8, symSize: 0xAC }
  - { offsetInCU: 0x11128, offset: 0x1B611, size: 0x8, addend: 0x0, symName: __ZNSt3__15dequeIdNS_9allocatorIdEEE5beginB8ue170006Ev, symObjAddr: 0x12B0, symBinAddr: 0x100004CC4, symSize: 0xCC }
  - { offsetInCU: 0x1115B, offset: 0x1B644, size: 0x8, addend: 0x0, symName: __ZNSt3__15dequeIdNS_9allocatorIdEEE3endB8ue170006Ev, symObjAddr: 0x137C, symBinAddr: 0x100004D90, symSize: 0xBC }
  - { offsetInCU: 0x1119D, offset: 0x1B686, size: 0x8, addend: 0x0, symName: __ZNSt3__15dequeIdNS_9allocatorIdEEE9pop_frontEv, symObjAddr: 0x1438, symBinAddr: 0x100004E4C, symSize: 0xD4 }
  - { offsetInCU: 0x111F0, offset: 0x1B6D9, size: 0x8, addend: 0x0, symName: __ZNSt3__15dequeIdNS_9allocatorIdEEE8pop_backEv, symObjAddr: 0x150C, symBinAddr: 0x100004F20, symSize: 0xE0 }
  - { offsetInCU: 0x11252, offset: 0x1B73B, size: 0x8, addend: 0x0, symName: __ZNKSt3__15dequeIdNS_9allocatorIdEEE4sizeB8ue170006Ev, symObjAddr: 0x166C, symBinAddr: 0x100005080, symSize: 0x28 }
  - { offsetInCU: 0x11276, offset: 0x1B75F, size: 0x8, addend: 0x0, symName: __ZNSt3__15dequeIdNS_9allocatorIdEEED1B8ue170006Ev, symObjAddr: 0x1694, symBinAddr: 0x1000050A8, symSize: 0x2C }
  - { offsetInCU: 0x1129E, offset: 0x1B787, size: 0x8, addend: 0x0, symName: __ZNSt3__111__wrap_iterIPiEppB8ue170006Ei, symObjAddr: 0x16C0, symBinAddr: 0x1000050D4, symSize: 0x34 }
  - { offsetInCU: 0x112DA, offset: 0x1B7C3, size: 0x8, addend: 0x0, symName: __ZN9interface17start_competitionEv, symObjAddr: 0x16F4, symBinAddr: 0x100005108, symSize: 0x30 }
  - { offsetInCU: 0x11301, offset: 0x1B7EA, size: 0x8, addend: 0x0, symName: __ZN9interface11exit_systemEv, symObjAddr: 0x1724, symBinAddr: 0x100005138, symSize: 0x60 }
  - { offsetInCU: 0x11328, offset: 0x1B811, size: 0x8, addend: 0x0, symName: __ZN10competitorC2Ev, symObjAddr: 0x1784, symBinAddr: 0x100005198, symSize: 0x2C }
  - { offsetInCU: 0x11353, offset: 0x1B83C, size: 0x8, addend: 0x0, symName: __ZNSt3__112basic_stringIcNS_11char_traitsIcEENS_9allocatorIcEEEC1B8ue170006Ev, symObjAddr: 0x17B0, symBinAddr: 0x1000051C4, symSize: 0x2C }
  - { offsetInCU: 0x1137B, offset: 0x1B864, size: 0x8, addend: 0x0, symName: __ZNSt3__112basic_stringIcNS_11char_traitsIcEENS_9allocatorIcEEEC2B8ue170006Ev, symObjAddr: 0x17DC, symBinAddr: 0x1000051F0, symSize: 0x3C }
  - { offsetInCU: 0x113A8, offset: 0x1B891, size: 0x8, addend: 0x0, symName: __ZNSt3__112basic_stringIcNS_11char_traitsIcEENS_9allocatorIcEEE14__default_initB8ue170006Ev, symObjAddr: 0x1854, symBinAddr: 0x10000522C, symSize: 0xB0 }
  - { offsetInCU: 0x113F9, offset: 0x1B8E2, size: 0x8, addend: 0x0, symName: __ZNSt3__117__compressed_pairINS_12basic_stringIcNS_11char_traitsIcEENS_9allocatorIcEEE5__repES5_E5firstB8ue170006Ev, symObjAddr: 0x19C0, symBinAddr: 0x1000052DC, symSize: 0x24 }
  - { offsetInCU: 0x1141D, offset: 0x1B906, size: 0x8, addend: 0x0, symName: __ZNSt3__112basic_stringIcNS_11char_traitsIcEENS_9allocatorIcEEE11__recommendB8ue170006Em, symObjAddr: 0x19F0, symBinAddr: 0x100005300, symSize: 0x9C }
  - { offsetInCU: 0x1144F, offset: 0x1B938, size: 0x8, addend: 0x0, symName: __ZNSt3__116allocator_traitsINS_9allocatorIcEEE8allocateB8ue170006ERS2_m, symObjAddr: 0x1A8C, symBinAddr: 0x10000539C, symSize: 0x2C }
  - { offsetInCU: 0x11481, offset: 0x1B96A, size: 0x8, addend: 0x0, symName: __ZNSt3__112basic_stringIcNS_11char_traitsIcEENS_9allocatorIcEEE7__allocB8ue170006Ev, symObjAddr: 0x1AB8, symBinAddr: 0x1000053C8, symSize: 0x24 }
  - { offsetInCU: 0x114A5, offset: 0x1B98E, size: 0x8, addend: 0x0, symName: __ZNSt3__112basic_stringIcNS_11char_traitsIcEENS_9allocatorIcEEE16__begin_lifetimeB8ue170006EPcm, symObjAddr: 0x1ADC, symBinAddr: 0x1000053EC, symSize: 0x14 }
  - { offsetInCU: 0x114D7, offset: 0x1B9C0, size: 0x8, addend: 0x0, symName: __ZNSt3__112basic_stringIcNS_11char_traitsIcEENS_9allocatorIcEEE18__set_long_pointerB8ue170006EPc, symObjAddr: 0x1AF0, symBinAddr: 0x100005400, symSize: 0x38 }
  - { offsetInCU: 0x1150A, offset: 0x1B9F3, size: 0x8, addend: 0x0, symName: __ZNSt3__112basic_stringIcNS_11char_traitsIcEENS_9allocatorIcEEE14__set_long_capB8ue170006Em, symObjAddr: 0x1B28, symBinAddr: 0x100005438, symSize: 0x70 }
  - { offsetInCU: 0x1153D, offset: 0x1BA26, size: 0x8, addend: 0x0, symName: __ZNSt3__112basic_stringIcNS_11char_traitsIcEENS_9allocatorIcEEE15__set_long_sizeB8ue170006Em, symObjAddr: 0x1B98, symBinAddr: 0x1000054A8, symSize: 0x38 }
  - { offsetInCU: 0x11570, offset: 0x1BA59, size: 0x8, addend: 0x0, symName: __ZNSt3__122__compressed_pair_elemINS_12basic_stringIcNS_11char_traitsIcEENS_9allocatorIcEEE5__repELi0ELb0EE5__getB8ue170006Ev, symObjAddr: 0x1BD0, symBinAddr: 0x1000054E0, symSize: 0x14 }
  - { offsetInCU: 0x11594, offset: 0x1BA7D, size: 0x8, addend: 0x0, symName: __ZNSt3__112basic_stringIcNS_11char_traitsIcEENS_9allocatorIcEEE10__align_itB8ue170006ILm16EEEmm, symObjAddr: 0x1BE4, symBinAddr: 0x1000054F4, symSize: 0x1C }
  - { offsetInCU: 0x115C1, offset: 0x1BAAA, size: 0x8, addend: 0x0, symName: __ZNSt3__19allocatorIcE8allocateB8ue170006Em, symObjAddr: 0x1C00, symBinAddr: 0x100005510, symSize: 0x84 }
  - { offsetInCU: 0x115FD, offset: 0x1BAE6, size: 0x8, addend: 0x0, symName: __ZNSt3__116allocator_traitsINS_9allocatorIcEEE8max_sizeB8ue170006IS2_vEEmRKS2_, symObjAddr: 0x1C84, symBinAddr: 0x100005594, symSize: 0x24 }
  - { offsetInCU: 0x1162B, offset: 0x1BB14, size: 0x8, addend: 0x0, symName: __ZNKSt3__19allocatorIcE8max_sizeB8ue170006Ev, symObjAddr: 0x1D04, symBinAddr: 0x100005614, symSize: 0x14 }
  - { offsetInCU: 0x1164F, offset: 0x1BB38, size: 0x8, addend: 0x0, symName: __ZNSt3__117__compressed_pairINS_12basic_stringIcNS_11char_traitsIcEENS_9allocatorIcEEE5__repES5_E6secondB8ue170006Ev, symObjAddr: 0x1D3C, symBinAddr: 0x10000564C, symSize: 0x24 }
  - { offsetInCU: 0x11673, offset: 0x1BB5C, size: 0x8, addend: 0x0, symName: __ZNSt3__122__compressed_pair_elemINS_9allocatorIcEELi1ELb1EE5__getB8ue170006Ev, symObjAddr: 0x1D60, symBinAddr: 0x100005670, symSize: 0x14 }
  - { offsetInCU: 0x11697, offset: 0x1BB80, size: 0x8, addend: 0x0, symName: __ZNSt3__14pairIKi10competitorED2Ev, symObjAddr: 0x1D74, symBinAddr: 0x100005684, symSize: 0x30 }
  - { offsetInCU: 0x116C2, offset: 0x1BBAB, size: 0x8, addend: 0x0, symName: __ZNSt3__14pairIi10competitorED2Ev, symObjAddr: 0x1DA4, symBinAddr: 0x1000056B4, symSize: 0x30 }
  - { offsetInCU: 0x116ED, offset: 0x1BBD6, size: 0x8, addend: 0x0, symName: __ZN10competitorD2Ev, symObjAddr: 0x1DD4, symBinAddr: 0x1000056E4, symSize: 0x2C }
  - { offsetInCU: 0x11718, offset: 0x1BC01, size: 0x8, addend: 0x0, symName: __ZNSt3__16vectorIiNS_9allocatorIiEEEC2B8ue170006Ev, symObjAddr: 0x1E00, symBinAddr: 0x100005710, symSize: 0x44 }
  - { offsetInCU: 0x11745, offset: 0x1BC2E, size: 0x8, addend: 0x0, symName: __ZNSt3__117__compressed_pairIPiNS_9allocatorIiEEEC1B8ue170006IDnNS_18__default_init_tagEEEOT_OT0_, symObjAddr: 0x1E44, symBinAddr: 0x100005754, symSize: 0x3C }
  - { offsetInCU: 0x1179B, offset: 0x1BC84, size: 0x8, addend: 0x0, symName: __ZNSt3__117__compressed_pairIPiNS_9allocatorIiEEEC2B8ue170006IDnNS_18__default_init_tagEEEOT_OT0_, symObjAddr: 0x1E80, symBinAddr: 0x100005790, symSize: 0x40 }
  - { offsetInCU: 0x117F1, offset: 0x1BCDA, size: 0x8, addend: 0x0, symName: __ZNSt3__122__compressed_pair_elemIPiLi0ELb0EEC2B8ue170006IDnvEEOT_, symObjAddr: 0x1EC0, symBinAddr: 0x1000057D0, symSize: 0x1C }
  - { offsetInCU: 0x11832, offset: 0x1BD1B, size: 0x8, addend: 0x0, symName: __ZNSt3__122__compressed_pair_elemINS_9allocatorIiEELi1ELb1EEC2B8ue170006ENS_18__default_init_tagE, symObjAddr: 0x1EDC, symBinAddr: 0x1000057EC, symSize: 0x2C }
  - { offsetInCU: 0x11864, offset: 0x1BD4D, size: 0x8, addend: 0x0, symName: __ZNSt3__19allocatorIiEC2B8ue170006Ev, symObjAddr: 0x1F08, symBinAddr: 0x100005818, symSize: 0x2C }
  - { offsetInCU: 0x1188C, offset: 0x1BD75, size: 0x8, addend: 0x0, symName: __ZNSt3__116__non_trivial_ifILb1ENS_9allocatorIiEEEC2B8ue170006Ev, symObjAddr: 0x1F34, symBinAddr: 0x100005844, symSize: 0x14 }
  - { offsetInCU: 0x118B4, offset: 0x1BD9D, size: 0x8, addend: 0x0, symName: __ZNSt3__13mapIi10competitorNS_4lessIiEENS_9allocatorINS_4pairIKiS1_EEEEEC2B8ue170006Ev, symObjAddr: 0x1F48, symBinAddr: 0x100005858, symSize: 0x40 }
  - { offsetInCU: 0x118DC, offset: 0x1BDC5, size: 0x8, addend: 0x0, symName: __ZNSt3__119__map_value_compareIiNS_12__value_typeIi10competitorEENS_4lessIiEELb1EEC1B8ue170006ES5_, symObjAddr: 0x1F88, symBinAddr: 0x100005898, symSize: 0x2C }
  - { offsetInCU: 0x11913, offset: 0x1BDFC, size: 0x8, addend: 0x0, symName: __ZNSt3__16__treeINS_12__value_typeIi10competitorEENS_19__map_value_compareIiS3_NS_4lessIiEELb1EEENS_9allocatorIS3_EEEC1ERKS7_, symObjAddr: 0x1FB4, symBinAddr: 0x1000058C4, symSize: 0x34 }
  - { offsetInCU: 0x1194D, offset: 0x1BE36, size: 0x8, addend: 0x0, symName: __ZNSt3__119__map_value_compareIiNS_12__value_typeIi10competitorEENS_4lessIiEELb1EEC2B8ue170006ES5_, symObjAddr: 0x1FE8, symBinAddr: 0x1000058F8, symSize: 0x14 }
  - { offsetInCU: 0x11984, offset: 0x1BE6D, size: 0x8, addend: 0x0, symName: __ZNSt3__16__treeINS_12__value_typeIi10competitorEENS_19__map_value_compareIiS3_NS_4lessIiEELb1EEENS_9allocatorIS3_EEEC2ERKS7_, symObjAddr: 0x1FFC, symBinAddr: 0x10000590C, symSize: 0x70 }
  - { offsetInCU: 0x119BE, offset: 0x1BEA7, size: 0x8, addend: 0x0, symName: __ZNSt3__117__compressed_pairINS_15__tree_end_nodeIPNS_16__tree_node_baseIPvEEEENS_9allocatorINS_11__tree_nodeINS_12__value_typeIi10competitorEES3_EEEEEC1B8ue170006ILb1EvEEv, symObjAddr: 0x206C, symBinAddr: 0x10000597C, symSize: 0x2C }
  - { offsetInCU: 0x119F7, offset: 0x1BEE0, size: 0x8, addend: 0x0, symName: __ZNSt3__117__compressed_pairImNS_19__map_value_compareIiNS_12__value_typeIi10competitorEENS_4lessIiEELb1EEEEC1B8ue170006IiRKS7_EEOT_OT0_, symObjAddr: 0x2098, symBinAddr: 0x1000059A8, symSize: 0x3C }
  - { offsetInCU: 0x11A4D, offset: 0x1BF36, size: 0x8, addend: 0x0, symName: __ZNSt3__16__treeINS_12__value_typeIi10competitorEENS_19__map_value_compareIiS3_NS_4lessIiEELb1EEENS_9allocatorIS3_EEE10__end_nodeB8ue170006Ev, symObjAddr: 0x20D4, symBinAddr: 0x1000059E4, symSize: 0x2C }
  - { offsetInCU: 0x11A71, offset: 0x1BF5A, size: 0x8, addend: 0x0, symName: __ZNSt3__16__treeINS_12__value_typeIi10competitorEENS_19__map_value_compareIiS3_NS_4lessIiEELb1EEENS_9allocatorIS3_EEE12__begin_nodeB8ue170006Ev, symObjAddr: 0x2100, symBinAddr: 0x100005A10, symSize: 0x14 }
  - { offsetInCU: 0x11A95, offset: 0x1BF7E, size: 0x8, addend: 0x0, symName: __ZNSt3__117__compressed_pairINS_15__tree_end_nodeIPNS_16__tree_node_baseIPvEEEENS_9allocatorINS_11__tree_nodeINS_12__value_typeIi10competitorEES3_EEEEEC2B8ue170006ILb1EvEEv, symObjAddr: 0x2114, symBinAddr: 0x100005A24, symSize: 0x34 }
  - { offsetInCU: 0x11AC9, offset: 0x1BFB2, size: 0x8, addend: 0x0, symName: __ZNSt3__122__compressed_pair_elemINS_15__tree_end_nodeIPNS_16__tree_node_baseIPvEEEELi0ELb0EEC2B8ue170006ENS_16__value_init_tagE, symObjAddr: 0x2148, symBinAddr: 0x100005A58, symSize: 0x2C }
  - { offsetInCU: 0x11AFB, offset: 0x1BFE4, size: 0x8, addend: 0x0, symName: __ZNSt3__122__compressed_pair_elemINS_9allocatorINS_11__tree_nodeINS_12__value_typeIi10competitorEEPvEEEELi1ELb1EEC2B8ue170006ENS_16__value_init_tagE, symObjAddr: 0x2174, symBinAddr: 0x100005A84, symSize: 0x2C }
  - { offsetInCU: 0x11B2D, offset: 0x1C016, size: 0x8, addend: 0x0, symName: __ZNSt3__115__tree_end_nodeIPNS_16__tree_node_baseIPvEEEC1B8ue170006Ev, symObjAddr: 0x21A0, symBinAddr: 0x100005AB0, symSize: 0x2C }
  - { offsetInCU: 0x11B55, offset: 0x1C03E, size: 0x8, addend: 0x0, symName: __ZNSt3__115__tree_end_nodeIPNS_16__tree_node_baseIPvEEEC2B8ue170006Ev, symObjAddr: 0x21CC, symBinAddr: 0x100005ADC, symSize: 0x18 }
  - { offsetInCU: 0x11B7D, offset: 0x1C066, size: 0x8, addend: 0x0, symName: __ZNSt3__19allocatorINS_11__tree_nodeINS_12__value_typeIi10competitorEEPvEEEC2B8ue170006Ev, symObjAddr: 0x21E4, symBinAddr: 0x100005AF4, symSize: 0x2C }
  - { offsetInCU: 0x11BA5, offset: 0x1C08E, size: 0x8, addend: 0x0, symName: __ZNSt3__116__non_trivial_ifILb1ENS_9allocatorINS_11__tree_nodeINS_12__value_typeIi10competitorEEPvEEEEEC2B8ue170006Ev, symObjAddr: 0x2210, symBinAddr: 0x100005B20, symSize: 0x14 }
  - { offsetInCU: 0x11BCD, offset: 0x1C0B6, size: 0x8, addend: 0x0, symName: __ZNSt3__117__compressed_pairImNS_19__map_value_compareIiNS_12__value_typeIi10competitorEENS_4lessIiEELb1EEEEC2B8ue170006IiRKS7_EEOT_OT0_, symObjAddr: 0x2224, symBinAddr: 0x100005B34, symSize: 0x44 }
  - { offsetInCU: 0x11C23, offset: 0x1C10C, size: 0x8, addend: 0x0, symName: __ZNSt3__122__compressed_pair_elemImLi0ELb0EEC2B8ue170006IivEEOT_, symObjAddr: 0x2268, symBinAddr: 0x100005B78, symSize: 0x24 }
  - { offsetInCU: 0x11C64, offset: 0x1C14D, size: 0x8, addend: 0x0, symName: __ZNSt3__122__compressed_pair_elemINS_19__map_value_compareIiNS_12__value_typeIi10competitorEENS_4lessIiEELb1EEELi1ELb1EEC2B8ue170006IRKS7_vEEOT_, symObjAddr: 0x228C, symBinAddr: 0x100005B9C, symSize: 0x18 }
  - { offsetInCU: 0x11CA5, offset: 0x1C18E, size: 0x8, addend: 0x0, symName: __ZNSt3__114pointer_traitsIPNS_15__tree_end_nodeIPNS_16__tree_node_baseIPvEEEEE10pointer_toB8ue170006ERS6_, symObjAddr: 0x22A4, symBinAddr: 0x100005BB4, symSize: 0x14 }
  - { offsetInCU: 0x11CC7, offset: 0x1C1B0, size: 0x8, addend: 0x0, symName: __ZNSt3__117__compressed_pairINS_15__tree_end_nodeIPNS_16__tree_node_baseIPvEEEENS_9allocatorINS_11__tree_nodeINS_12__value_typeIi10competitorEES3_EEEEE5firstB8ue170006Ev, symObjAddr: 0x22B8, symBinAddr: 0x100005BC8, symSize: 0x24 }
  - { offsetInCU: 0x11CEB, offset: 0x1C1D4, size: 0x8, addend: 0x0, symName: __ZNSt3__122__compressed_pair_elemINS_15__tree_end_nodeIPNS_16__tree_node_baseIPvEEEELi0ELb0EE5__getB8ue170006Ev, symObjAddr: 0x22DC, symBinAddr: 0x100005BEC, symSize: 0x14 }
  - { offsetInCU: 0x11D0F, offset: 0x1C1F8, size: 0x8, addend: 0x0, symName: __ZNSt3__16vectorIiNS_9allocatorIiEEED2B8ue170006Ev, symObjAddr: 0x22F0, symBinAddr: 0x100005C00, symSize: 0x3C }
  - { offsetInCU: 0x11D37, offset: 0x1C220, size: 0x8, addend: 0x0, symName: __ZNSt3__16vectorIiNS_9allocatorIiEEE16__destroy_vectorC1B8ue170006ERS3_, symObjAddr: 0x232C, symBinAddr: 0x100005C3C, symSize: 0x34 }
  - { offsetInCU: 0x11D6E, offset: 0x1C257, size: 0x8, addend: 0x0, symName: __ZNSt3__16vectorIiNS_9allocatorIiEEE16__destroy_vectorclB8ue170006Ev, symObjAddr: 0x2360, symBinAddr: 0x100005C70, symSize: 0x90 }
  - { offsetInCU: 0x11D92, offset: 0x1C27B, size: 0x8, addend: 0x0, symName: __ZNSt3__16vectorIiNS_9allocatorIiEEE16__destroy_vectorC2B8ue170006ERS3_, symObjAddr: 0x23F0, symBinAddr: 0x100005D00, symSize: 0x20 }
  - { offsetInCU: 0x11DC9, offset: 0x1C2B2, size: 0x8, addend: 0x0, symName: __ZNSt3__16vectorIiNS_9allocatorIiEEE7__clearB8ue170006Ev, symObjAddr: 0x2410, symBinAddr: 0x100005D20, symSize: 0x28 }
  - { offsetInCU: 0x11DED, offset: 0x1C2D6, size: 0x8, addend: 0x0, symName: __ZNKSt3__16vectorIiNS_9allocatorIiEEE17__annotate_deleteB8ue170006Ev, symObjAddr: 0x2438, symBinAddr: 0x100005D48, symSize: 0xB8 }
  - { offsetInCU: 0x11E11, offset: 0x1C2FA, size: 0x8, addend: 0x0, symName: __ZNSt3__116allocator_traitsINS_9allocatorIiEEE10deallocateB8ue170006ERS2_Pim, symObjAddr: 0x24F0, symBinAddr: 0x100005E00, symSize: 0x34 }
  - { offsetInCU: 0x11E52, offset: 0x1C33B, size: 0x8, addend: 0x0, symName: __ZNSt3__16vectorIiNS_9allocatorIiEEE7__allocB8ue170006Ev, symObjAddr: 0x2524, symBinAddr: 0x100005E34, symSize: 0x28 }
  - { offsetInCU: 0x11E76, offset: 0x1C35F, size: 0x8, addend: 0x0, symName: __ZNKSt3__16vectorIiNS_9allocatorIiEEE8capacityB8ue170006Ev, symObjAddr: 0x254C, symBinAddr: 0x100005E5C, symSize: 0x40 }
  - { offsetInCU: 0x11E9A, offset: 0x1C383, size: 0x8, addend: 0x0, symName: __ZNSt3__16vectorIiNS_9allocatorIiEEE22__base_destruct_at_endB8ue170006EPi, symObjAddr: 0x258C, symBinAddr: 0x100005E9C, symSize: 0xA0 }
  - { offsetInCU: 0x11EDC, offset: 0x1C3C5, size: 0x8, addend: 0x0, symName: __ZNSt3__116allocator_traitsINS_9allocatorIiEEE7destroyB8ue170006IivEEvRS2_PT_, symObjAddr: 0x262C, symBinAddr: 0x100005F3C, symSize: 0x2C }
  - { offsetInCU: 0x11F19, offset: 0x1C402, size: 0x8, addend: 0x0, symName: __ZNSt3__19allocatorIiE7destroyB8ue170006EPi, symObjAddr: 0x266C, symBinAddr: 0x100005F7C, symSize: 0x14 }
  - { offsetInCU: 0x11F4B, offset: 0x1C434, size: 0x8, addend: 0x0, symName: __ZNKSt3__16vectorIiNS_9allocatorIiEEE31__annotate_contiguous_containerB8ue170006EPKvS5_S5_S5_, symObjAddr: 0x2680, symBinAddr: 0x100005F90, symSize: 0x20 }
  - { offsetInCU: 0x11F9F, offset: 0x1C488, size: 0x8, addend: 0x0, symName: __ZNKSt3__16vectorIiNS_9allocatorIiEEE4dataB8ue170006Ev, symObjAddr: 0x26A0, symBinAddr: 0x100005FB0, symSize: 0x28 }
  - { offsetInCU: 0x11FC3, offset: 0x1C4AC, size: 0x8, addend: 0x0, symName: __ZNKSt3__16vectorIiNS_9allocatorIiEEE4sizeB8ue170006Ev, symObjAddr: 0x26C8, symBinAddr: 0x100005FD8, symSize: 0x28 }
  - { offsetInCU: 0x11FE7, offset: 0x1C4D0, size: 0x8, addend: 0x0, symName: __ZNSt3__19allocatorIiE10deallocateB8ue170006EPim, symObjAddr: 0x26F0, symBinAddr: 0x100006000, symSize: 0x70 }
  - { offsetInCU: 0x12027, offset: 0x1C510, size: 0x8, addend: 0x0, symName: __ZNSt3__117__compressed_pairIPiNS_9allocatorIiEEE6secondB8ue170006Ev, symObjAddr: 0x27DC, symBinAddr: 0x1000060EC, symSize: 0x24 }
  - { offsetInCU: 0x1204B, offset: 0x1C534, size: 0x8, addend: 0x0, symName: __ZNSt3__122__compressed_pair_elemINS_9allocatorIiEELi1ELb1EE5__getB8ue170006Ev, symObjAddr: 0x2800, symBinAddr: 0x100006110, symSize: 0x14 }
  - { offsetInCU: 0x1206F, offset: 0x1C558, size: 0x8, addend: 0x0, symName: __ZNKSt3__16vectorIiNS_9allocatorIiEEE9__end_capB8ue170006Ev, symObjAddr: 0x2814, symBinAddr: 0x100006124, symSize: 0x28 }
  - { offsetInCU: 0x12093, offset: 0x1C57C, size: 0x8, addend: 0x0, symName: __ZNKSt3__117__compressed_pairIPiNS_9allocatorIiEEE5firstB8ue170006Ev, symObjAddr: 0x283C, symBinAddr: 0x10000614C, symSize: 0x24 }
  - { offsetInCU: 0x120B7, offset: 0x1C5A0, size: 0x8, addend: 0x0, symName: __ZNKSt3__122__compressed_pair_elemIPiLi0ELb0EE5__getB8ue170006Ev, symObjAddr: 0x2860, symBinAddr: 0x100006170, symSize: 0x14 }
  - { offsetInCU: 0x120DB, offset: 0x1C5C4, size: 0x8, addend: 0x0, symName: __ZNSt3__13mapIi10competitorNS_4lessIiEENS_9allocatorINS_4pairIKiS1_EEEEED2B8ue170006Ev, symObjAddr: 0x2874, symBinAddr: 0x100006184, symSize: 0x2C }
  - { offsetInCU: 0x12103, offset: 0x1C5EC, size: 0x8, addend: 0x0, symName: __ZNSt3__16__treeINS_12__value_typeIi10competitorEENS_19__map_value_compareIiS3_NS_4lessIiEELb1EEENS_9allocatorIS3_EEED1Ev, symObjAddr: 0x28A0, symBinAddr: 0x1000061B0, symSize: 0x2C }
  - { offsetInCU: 0x1212E, offset: 0x1C617, size: 0x8, addend: 0x0, symName: __ZNSt3__16__treeINS_12__value_typeIi10competitorEENS_19__map_value_compareIiS3_NS_4lessIiEELb1EEENS_9allocatorIS3_EEED2Ev, symObjAddr: 0x28CC, symBinAddr: 0x1000061DC, symSize: 0x38 }
  - { offsetInCU: 0x12159, offset: 0x1C642, size: 0x8, addend: 0x0, symName: __ZNSt3__16__treeINS_12__value_typeIi10competitorEENS_19__map_value_compareIiS3_NS_4lessIiEELb1EEENS_9allocatorIS3_EEE7destroyEPNS_11__tree_nodeIS3_PvEE, symObjAddr: 0x2904, symBinAddr: 0x100006214, symSize: 0xC0 }
  - { offsetInCU: 0x121AC, offset: 0x1C695, size: 0x8, addend: 0x0, symName: __ZNKSt3__16__treeINS_12__value_typeIi10competitorEENS_19__map_value_compareIiS3_NS_4lessIiEELb1EEENS_9allocatorIS3_EEE6__rootB8ue170006Ev, symObjAddr: 0x29C4, symBinAddr: 0x1000062D4, symSize: 0x28 }
  - { offsetInCU: 0x121D0, offset: 0x1C6B9, size: 0x8, addend: 0x0, symName: __ZNSt3__16__treeINS_12__value_typeIi10competitorEENS_19__map_value_compareIiS3_NS_4lessIiEELb1EEENS_9allocatorIS3_EEE12__node_allocB8ue170006Ev, symObjAddr: 0x29EC, symBinAddr: 0x1000062FC, symSize: 0x28 }
  - { offsetInCU: 0x121F4, offset: 0x1C6DD, size: 0x8, addend: 0x0, symName: __ZNSt3__116allocator_traitsINS_9allocatorINS_11__tree_nodeINS_12__value_typeIi10competitorEEPvEEEEE7destroyB8ue170006INS_4pairIKiS4_EEvvEEvRS8_PT_, symObjAddr: 0x2A14, symBinAddr: 0x100006324, symSize: 0x28 }
  - { offsetInCU: 0x12230, offset: 0x1C719, size: 0x8, addend: 0x0, symName: __ZNSt3__122__tree_key_value_typesINS_12__value_typeIi10competitorEEE9__get_ptrB8ue170006ERS3_, symObjAddr: 0x2A3C, symBinAddr: 0x10000634C, symSize: 0x24 }
  - { offsetInCU: 0x12253, offset: 0x1C73C, size: 0x8, addend: 0x0, symName: __ZNSt3__116allocator_traitsINS_9allocatorINS_11__tree_nodeINS_12__value_typeIi10competitorEEPvEEEEE10deallocateB8ue170006ERS8_PS7_m, symObjAddr: 0x2A60, symBinAddr: 0x100006370, symSize: 0x34 }
  - { offsetInCU: 0x12294, offset: 0x1C77D, size: 0x8, addend: 0x0, symName: __ZNSt3__117__compressed_pairINS_15__tree_end_nodeIPNS_16__tree_node_baseIPvEEEENS_9allocatorINS_11__tree_nodeINS_12__value_typeIi10competitorEES3_EEEEE6secondB8ue170006Ev, symObjAddr: 0x2A94, symBinAddr: 0x1000063A4, symSize: 0x24 }
  - { offsetInCU: 0x122B8, offset: 0x1C7A1, size: 0x8, addend: 0x0, symName: __ZNSt3__122__compressed_pair_elemINS_9allocatorINS_11__tree_nodeINS_12__value_typeIi10competitorEEPvEEEELi1ELb1EE5__getB8ue170006Ev, symObjAddr: 0x2AB8, symBinAddr: 0x1000063C8, symSize: 0x14 }
  - { offsetInCU: 0x122DC, offset: 0x1C7C5, size: 0x8, addend: 0x0, symName: __ZNSt3__112__value_typeIi10competitorE11__get_valueB8ue170006Ev, symObjAddr: 0x2ACC, symBinAddr: 0x1000063DC, symSize: 0x14 }
  - { offsetInCU: 0x12300, offset: 0x1C7E9, size: 0x8, addend: 0x0, symName: __ZNSt3__19allocatorINS_11__tree_nodeINS_12__value_typeIi10competitorEEPvEEE10deallocateB8ue170006EPS6_m, symObjAddr: 0x2AE0, symBinAddr: 0x1000063F0, symSize: 0x74 }
  - { offsetInCU: 0x12340, offset: 0x1C829, size: 0x8, addend: 0x0, symName: __ZNKSt3__16__treeINS_12__value_typeIi10competitorEENS_19__map_value_compareIiS3_NS_4lessIiEELb1EEENS_9allocatorIS3_EEE10__end_nodeB8ue170006Ev, symObjAddr: 0x2B54, symBinAddr: 0x100006464, symSize: 0x2C }
  - { offsetInCU: 0x12364, offset: 0x1C84D, size: 0x8, addend: 0x0, symName: __ZNKSt3__117__compressed_pairINS_15__tree_end_nodeIPNS_16__tree_node_baseIPvEEEENS_9allocatorINS_11__tree_nodeINS_12__value_typeIi10competitorEES3_EEEEE5firstB8ue170006Ev, symObjAddr: 0x2B80, symBinAddr: 0x100006490, symSize: 0x24 }
  - { offsetInCU: 0x12388, offset: 0x1C871, size: 0x8, addend: 0x0, symName: __ZNKSt3__122__compressed_pair_elemINS_15__tree_end_nodeIPNS_16__tree_node_baseIPvEEEELi0ELb0EE5__getB8ue170006Ev, symObjAddr: 0x2BA4, symBinAddr: 0x1000064B4, symSize: 0x14 }
  - { offsetInCU: 0x123AC, offset: 0x1C895, size: 0x8, addend: 0x0, symName: __ZNKSt3__16vectorIiNS_9allocatorIiEEE17__annotate_shrinkB8ue170006Em, symObjAddr: 0x361C, symBinAddr: 0x1000064C8, symSize: 0xB4 }
  - { offsetInCU: 0x123DF, offset: 0x1C8C8, size: 0x8, addend: 0x0, symName: __ZNSt3__16__treeINS_12__value_typeIi10competitorEENS_19__map_value_compareIiS3_NS_4lessIiEELb1EEENS_9allocatorIS3_EEE5clearEv, symObjAddr: 0x36D0, symBinAddr: 0x10000657C, symSize: 0x74 }
  - { offsetInCU: 0x12405, offset: 0x1C8EE, size: 0x8, addend: 0x0, symName: __ZNSt3__16__treeINS_12__value_typeIi10competitorEENS_19__map_value_compareIiS3_NS_4lessIiEELb1EEENS_9allocatorIS3_EEE4sizeB8ue170006Ev, symObjAddr: 0x3744, symBinAddr: 0x1000065F0, symSize: 0x28 }
  - { offsetInCU: 0x12429, offset: 0x1C912, size: 0x8, addend: 0x0, symName: __ZNSt3__117__compressed_pairImNS_19__map_value_compareIiNS_12__value_typeIi10competitorEENS_4lessIiEELb1EEEE5firstB8ue170006Ev, symObjAddr: 0x376C, symBinAddr: 0x100006618, symSize: 0x24 }
  - { offsetInCU: 0x1244D, offset: 0x1C936, size: 0x8, addend: 0x0, symName: __ZNSt3__122__compressed_pair_elemImLi0ELb0EE5__getB8ue170006Ev, symObjAddr: 0x3790, symBinAddr: 0x10000663C, symSize: 0x14 }
  - { offsetInCU: 0x12471, offset: 0x1C95A, size: 0x8, addend: 0x0, symName: __ZNSt3__112basic_stringIcNS_11char_traitsIcEENS_9allocatorIcEEEC2B8ue170006ILi0EEEPKc, symObjAddr: 0x37A4, symBinAddr: 0x100006650, symSize: 0x58 }
  - { offsetInCU: 0x124AF, offset: 0x1C998, size: 0x8, addend: 0x0, symName: __ZNKSt3__112basic_stringIcNS_11char_traitsIcEENS_9allocatorIcEEE15__get_long_sizeB8ue170006Ev, symObjAddr: 0x37FC, symBinAddr: 0x1000066A8, symSize: 0x28 }
  - { offsetInCU: 0x124D3, offset: 0x1C9BC, size: 0x8, addend: 0x0, symName: __ZNKSt3__112basic_stringIcNS_11char_traitsIcEENS_9allocatorIcEEE16__get_short_sizeB8ue170006Ev, symObjAddr: 0x3824, symBinAddr: 0x1000066D0, symSize: 0x34 }
  - { offsetInCU: 0x124F7, offset: 0x1C9E0, size: 0x8, addend: 0x0, symName: __ZNSt3__112basic_stringIcNS_11char_traitsIcEENS_9allocatorIcEEE13__get_pointerB8ue170006Ev, symObjAddr: 0x3858, symBinAddr: 0x100006704, symSize: 0x54 }
  - { offsetInCU: 0x1251B, offset: 0x1CA04, size: 0x8, addend: 0x0, symName: __ZNSt3__112basic_stringIcNS_11char_traitsIcEENS_9allocatorIcEEE18__get_long_pointerB8ue170006Ev, symObjAddr: 0x38AC, symBinAddr: 0x100006758, symSize: 0x28 }
  - { offsetInCU: 0x1253F, offset: 0x1CA28, size: 0x8, addend: 0x0, symName: __ZNSt3__112basic_stringIcNS_11char_traitsIcEENS_9allocatorIcEEE19__get_short_pointerB8ue170006Ev, symObjAddr: 0x38D4, symBinAddr: 0x100006780, symSize: 0x28 }
  - { offsetInCU: 0x12563, offset: 0x1CA4C, size: 0x8, addend: 0x0, symName: __ZNSt3__114pointer_traitsIPcE10pointer_toB8ue170006ERc, symObjAddr: 0x38FC, symBinAddr: 0x1000067A8, symSize: 0x14 }
  - { offsetInCU: 0x12585, offset: 0x1CA6E, size: 0x8, addend: 0x0, symName: __ZNSt3__16vectorIiNS_9allocatorIiEEE9__end_capB8ue170006Ev, symObjAddr: 0x3910, symBinAddr: 0x1000067BC, symSize: 0x28 }
  - { offsetInCU: 0x125A9, offset: 0x1CA92, size: 0x8, addend: 0x0, symName: __ZNSt3__16vectorIiNS_9allocatorIiEEE22__construct_one_at_endB8ue170006IJRKiEEEvDpOT_, symObjAddr: 0x3938, symBinAddr: 0x1000067E4, symSize: 0x98 }
  - { offsetInCU: 0x125F6, offset: 0x1CADF, size: 0x8, addend: 0x0, symName: __ZNSt3__16vectorIiNS_9allocatorIiEEE21__push_back_slow_pathIRKiEEvOT_, symObjAddr: 0x39D0, symBinAddr: 0x10000687C, symSize: 0xE0 }
  - { offsetInCU: 0x12652, offset: 0x1CB3B, size: 0x8, addend: 0x0, symName: __ZNSt3__117__compressed_pairIPiNS_9allocatorIiEEE5firstB8ue170006Ev, symObjAddr: 0x3AB0, symBinAddr: 0x10000695C, symSize: 0x24 }
  - { offsetInCU: 0x12676, offset: 0x1CB5F, size: 0x8, addend: 0x0, symName: __ZNSt3__122__compressed_pair_elemIPiLi0ELb0EE5__getB8ue170006Ev, symObjAddr: 0x3AD4, symBinAddr: 0x100006980, symSize: 0x14 }
  - { offsetInCU: 0x126B3, offset: 0x1CB9C, size: 0x8, addend: 0x0, symName: __ZNSt3__16vectorIiNS_9allocatorIiEEE21_ConstructTransactionC1B8ue170006ERS3_m, symObjAddr: 0x3AE8, symBinAddr: 0x100006994, symSize: 0x3C }
  - { offsetInCU: 0x126F9, offset: 0x1CBE2, size: 0x8, addend: 0x0, symName: __ZNSt3__116allocator_traitsINS_9allocatorIiEEE9constructB8ue170006IiJRKiEvEEvRS2_PT_DpOT0_, symObjAddr: 0x3B24, symBinAddr: 0x1000069D0, symSize: 0x34 }
  - { offsetInCU: 0x12750, offset: 0x1CC39, size: 0x8, addend: 0x0, symName: __ZNSt3__16vectorIiNS_9allocatorIiEEE21_ConstructTransactionD1B8ue170006Ev, symObjAddr: 0x3B58, symBinAddr: 0x100006A04, symSize: 0x2C }
  - { offsetInCU: 0x12778, offset: 0x1CC61, size: 0x8, addend: 0x0, symName: __ZNSt3__16vectorIiNS_9allocatorIiEEE21_ConstructTransactionC2B8ue170006ERS3_m, symObjAddr: 0x3B84, symBinAddr: 0x100006A30, symSize: 0x44 }
  - { offsetInCU: 0x127BE, offset: 0x1CCA7, size: 0x8, addend: 0x0, symName: __ZNSt3__19allocatorIiE9constructB8ue170006IiJRKiEEEvPT_DpOT0_, symObjAddr: 0x3BC8, symBinAddr: 0x100006A74, symSize: 0x28 }
  - { offsetInCU: 0x12812, offset: 0x1CCFB, size: 0x8, addend: 0x0, symName: __ZNSt3__16vectorIiNS_9allocatorIiEEE21_ConstructTransactionD2B8ue170006Ev, symObjAddr: 0x3BF0, symBinAddr: 0x100006A9C, symSize: 0x20 }
  - { offsetInCU: 0x1283A, offset: 0x1CD23, size: 0x8, addend: 0x0, symName: __ZNKSt3__16vectorIiNS_9allocatorIiEEE11__recommendB8ue170006Em, symObjAddr: 0x3C10, symBinAddr: 0x100006ABC, symSize: 0xB4 }
  - { offsetInCU: 0x1288D, offset: 0x1CD76, size: 0x8, addend: 0x0, symName: __ZNSt3__114__split_bufferIiRNS_9allocatorIiEEEC1EmmS3_, symObjAddr: 0x3CC4, symBinAddr: 0x100006B70, symSize: 0x44 }
  - { offsetInCU: 0x128E2, offset: 0x1CDCB, size: 0x8, addend: 0x0, symName: __ZNSt3__114__split_bufferIiRNS_9allocatorIiEEED1Ev, symObjAddr: 0x3E18, symBinAddr: 0x100006CC4, symSize: 0x2C }
  - { offsetInCU: 0x1290D, offset: 0x1CDF6, size: 0x8, addend: 0x0, symName: __ZNKSt3__16vectorIiNS_9allocatorIiEEE8max_sizeEv, symObjAddr: 0x3E44, symBinAddr: 0x100006CF0, symSize: 0x74 }
  - { offsetInCU: 0x12933, offset: 0x1CE1C, size: 0x8, addend: 0x0, symName: __ZNKSt3__16vectorIiNS_9allocatorIiEEE20__throw_length_errorB8ue170006Ev, symObjAddr: 0x3EB8, symBinAddr: 0x100006D64, symSize: 0x1C }
  - { offsetInCU: 0x12961, offset: 0x1CE4A, size: 0x8, addend: 0x0, symName: __ZNSt3__116allocator_traitsINS_9allocatorIiEEE8max_sizeB8ue170006IS2_vEEmRKS2_, symObjAddr: 0x3F2C, symBinAddr: 0x100006DD8, symSize: 0x24 }
  - { offsetInCU: 0x1298F, offset: 0x1CE78, size: 0x8, addend: 0x0, symName: __ZNKSt3__16vectorIiNS_9allocatorIiEEE7__allocB8ue170006Ev, symObjAddr: 0x3F50, symBinAddr: 0x100006DFC, symSize: 0x28 }
  - { offsetInCU: 0x129B3, offset: 0x1CE9C, size: 0x8, addend: 0x0, symName: __ZNSt3__114numeric_limitsIlE3maxB8ue170006Ev, symObjAddr: 0x3F78, symBinAddr: 0x100006E24, symSize: 0x14 }
  - { offsetInCU: 0x129D1, offset: 0x1CEBA, size: 0x8, addend: 0x0, symName: __ZNKSt3__16__lessIvvEclB8ue170006ImmEEbRKT_RKT0_, symObjAddr: 0x3FE0, symBinAddr: 0x100006E8C, symSize: 0x34 }
  - { offsetInCU: 0x12A23, offset: 0x1CF0C, size: 0x8, addend: 0x0, symName: __ZNKSt3__19allocatorIiE8max_sizeB8ue170006Ev, symObjAddr: 0x4014, symBinAddr: 0x100006EC0, symSize: 0x14 }
  - { offsetInCU: 0x12A47, offset: 0x1CF30, size: 0x8, addend: 0x0, symName: __ZNKSt3__117__compressed_pairIPiNS_9allocatorIiEEE6secondB8ue170006Ev, symObjAddr: 0x4028, symBinAddr: 0x100006ED4, symSize: 0x24 }
  - { offsetInCU: 0x12A6B, offset: 0x1CF54, size: 0x8, addend: 0x0, symName: __ZNKSt3__122__compressed_pair_elemINS_9allocatorIiEELi1ELb1EE5__getB8ue170006Ev, symObjAddr: 0x404C, symBinAddr: 0x100006EF8, symSize: 0x14 }
  - { offsetInCU: 0x12A8F, offset: 0x1CF78, size: 0x8, addend: 0x0, symName: __ZNSt3__123__libcpp_numeric_limitsIlLb1EE3maxB8ue170006Ev, symObjAddr: 0x4060, symBinAddr: 0x100006F0C, symSize: 0x8 }
  - { offsetInCU: 0x12AA2, offset: 0x1CF8B, size: 0x8, addend: 0x0, symName: __ZNSt12length_errorC1B8ue170006EPKc, symObjAddr: 0x40CC, symBinAddr: 0x100006F78, symSize: 0x34 }
  - { offsetInCU: 0x12AD8, offset: 0x1CFC1, size: 0x8, addend: 0x0, symName: __ZNSt12length_errorC2B8ue170006EPKc, symObjAddr: 0x4100, symBinAddr: 0x100006FAC, symSize: 0x4C }
  - { offsetInCU: 0x12B0E, offset: 0x1CFF7, size: 0x8, addend: 0x0, symName: __ZNSt3__114__split_bufferIiRNS_9allocatorIiEEEC2EmmS3_, symObjAddr: 0x41A0, symBinAddr: 0x10000704C, symSize: 0xD4 }
  - { offsetInCU: 0x12B81, offset: 0x1D06A, size: 0x8, addend: 0x0, symName: __ZNSt3__117__compressed_pairIPiRNS_9allocatorIiEEEC1B8ue170006IDnS4_EEOT_OT0_, symObjAddr: 0x4274, symBinAddr: 0x100007120, symSize: 0x3C }
  - { offsetInCU: 0x12BD7, offset: 0x1D0C0, size: 0x8, addend: 0x0, symName: __ZNSt3__114__split_bufferIiRNS_9allocatorIiEEE7__allocB8ue170006Ev, symObjAddr: 0x42F0, symBinAddr: 0x10000719C, symSize: 0x28 }
  - { offsetInCU: 0x12BFB, offset: 0x1D0E4, size: 0x8, addend: 0x0, symName: __ZNSt3__114__split_bufferIiRNS_9allocatorIiEEE9__end_capB8ue170006Ev, symObjAddr: 0x4318, symBinAddr: 0x1000071C4, symSize: 0x28 }
  - { offsetInCU: 0x12C1F, offset: 0x1D108, size: 0x8, addend: 0x0, symName: __ZNSt3__117__compressed_pairIPiRNS_9allocatorIiEEEC2B8ue170006IDnS4_EEOT_OT0_, symObjAddr: 0x4340, symBinAddr: 0x1000071EC, symSize: 0x48 }
  - { offsetInCU: 0x12C75, offset: 0x1D15E, size: 0x8, addend: 0x0, symName: __ZNSt3__122__compressed_pair_elemIRNS_9allocatorIiEELi1ELb0EEC2B8ue170006IS3_vEEOT_, symObjAddr: 0x4388, symBinAddr: 0x100007234, symSize: 0x20 }
  - { offsetInCU: 0x12CB6, offset: 0x1D19F, size: 0x8, addend: 0x0, symName: __ZNSt3__19allocatorIiE8allocateB8ue170006Em, symObjAddr: 0x43A8, symBinAddr: 0x100007254, symSize: 0x84 }
  - { offsetInCU: 0x12CE8, offset: 0x1D1D1, size: 0x8, addend: 0x0, symName: __ZNSt3__117__compressed_pairIPiRNS_9allocatorIiEEE6secondB8ue170006Ev, symObjAddr: 0x442C, symBinAddr: 0x1000072D8, symSize: 0x28 }
  - { offsetInCU: 0x12D0C, offset: 0x1D1F5, size: 0x8, addend: 0x0, symName: __ZNSt3__122__compressed_pair_elemIRNS_9allocatorIiEELi1ELb0EE5__getB8ue170006Ev, symObjAddr: 0x4454, symBinAddr: 0x100007300, symSize: 0x18 }
  - { offsetInCU: 0x12D30, offset: 0x1D219, size: 0x8, addend: 0x0, symName: __ZNSt3__117__compressed_pairIPiRNS_9allocatorIiEEE5firstB8ue170006Ev, symObjAddr: 0x446C, symBinAddr: 0x100007318, symSize: 0x24 }
  - { offsetInCU: 0x12D54, offset: 0x1D23D, size: 0x8, addend: 0x0, symName: __ZNSt3__116reverse_iteratorIPiEC1B8ue170006ES1_, symObjAddr: 0x4578, symBinAddr: 0x100007424, symSize: 0x34 }
  - { offsetInCU: 0x12D8A, offset: 0x1D273, size: 0x8, addend: 0x0, symName: __ZNKSt3__116reverse_iteratorIPiE4baseB8ue170006Ev, symObjAddr: 0x45AC, symBinAddr: 0x100007458, symSize: 0x18 }
  - { offsetInCU: 0x12DAE, offset: 0x1D297, size: 0x8, addend: 0x0, symName: __ZNKSt3__16vectorIiNS_9allocatorIiEEE14__annotate_newB8ue170006Em, symObjAddr: 0x4600, symBinAddr: 0x1000074AC, symSize: 0xAC }
  - { offsetInCU: 0x12DE1, offset: 0x1D2CA, size: 0x8, addend: 0x0, symName: __ZNKSt3__116reverse_iteratorIPiEdeB8ue170006Ev, symObjAddr: 0x4744, symBinAddr: 0x1000075F0, symSize: 0x28 }
  - { offsetInCU: 0x12E13, offset: 0x1D2FC, size: 0x8, addend: 0x0, symName: __ZNSt3__116reverse_iteratorIPiEppB8ue170006Ev, symObjAddr: 0x476C, symBinAddr: 0x100007618, symSize: 0x20 }
  - { offsetInCU: 0x12E3C, offset: 0x1D325, size: 0x8, addend: 0x0, symName: __ZNSt3__119__to_address_helperINS_16reverse_iteratorIPiEEvE6__callB8ue170006ERKS3_, symObjAddr: 0x4804, symBinAddr: 0x1000076B0, symSize: 0x4C }
  - { offsetInCU: 0x12E5E, offset: 0x1D347, size: 0x8, addend: 0x0, symName: __ZNKSt3__116reverse_iteratorIPiEptB8ue170006Ev, symObjAddr: 0x4850, symBinAddr: 0x1000076FC, symSize: 0x24 }
  - { offsetInCU: 0x12EA5, offset: 0x1D38E, size: 0x8, addend: 0x0, symName: __ZNKSt3__111__move_loopINS_17_ClassicAlgPolicyEEclB8ue170006INS_16reverse_iteratorIPiEES6_S6_EENS_4pairIT_T1_EES8_T0_S9_, symObjAddr: 0x4AEC, symBinAddr: 0x100007998, symSize: 0xA0 }
  - { offsetInCU: 0x12F0E, offset: 0x1D3F7, size: 0x8, addend: 0x0, symName: __ZNSt3__18_IterOpsINS_17_ClassicAlgPolicyEE11__iter_moveB8ue170006IRNS_16reverse_iteratorIPiEEEENS_9enable_ifIXsr12is_referenceIDTdeclsr3stdE7declvalIRT_EEEEE5valueEDTclsr3stdE4movedeclsr3stdE7declvalISA_EEEEE4typeEOS9_, symObjAddr: 0x4CEC, symBinAddr: 0x100007B98, symSize: 0x28 }
  - { offsetInCU: 0x12F39, offset: 0x1D422, size: 0x8, addend: 0x0, symName: __ZNSt3__18_IterOpsINS_17_ClassicAlgPolicyEE25__validate_iter_referenceB8ue170006IRNS_16reverse_iteratorIPiEEEEvv, symObjAddr: 0x4D14, symBinAddr: 0x100007BC0, symSize: 0x4 }
  - { offsetInCU: 0x12F56, offset: 0x1D43F, size: 0x8, addend: 0x0, symName: __ZNSt3__118__unwrap_iter_implINS_16reverse_iteratorIPiEELb0EE8__unwrapB8ue170006ES3_, symObjAddr: 0x4D18, symBinAddr: 0x100007BC4, symSize: 0x24 }
  - { offsetInCU: 0x12F78, offset: 0x1D461, size: 0x8, addend: 0x0, symName: __ZNSt3__14pairINS_16reverse_iteratorIPiEES3_EC1B8ue170006ERKS3_S6_, symObjAddr: 0x4D3C, symBinAddr: 0x100007BE8, symSize: 0x3C }
  - { offsetInCU: 0x12FBC, offset: 0x1D4A5, size: 0x8, addend: 0x0, symName: __ZNSt3__14pairINS_16reverse_iteratorIPiEES3_EC2B8ue170006ERKS3_S6_, symObjAddr: 0x4D78, symBinAddr: 0x100007C24, symSize: 0x34 }
  - { offsetInCU: 0x13000, offset: 0x1D4E9, size: 0x8, addend: 0x0, symName: __ZNSt3__118__unwrap_iter_implINS_16reverse_iteratorIPiEELb0EE8__rewrapB8ue170006ES3_S3_, symObjAddr: 0x4DAC, symBinAddr: 0x100007C58, symSize: 0x2C }
  - { offsetInCU: 0x1302C, offset: 0x1D515, size: 0x8, addend: 0x0, symName: __ZNSt3__116reverse_iteratorIPiEC2B8ue170006ES1_, symObjAddr: 0x4DD8, symBinAddr: 0x100007C84, symSize: 0x28 }
  - { offsetInCU: 0x13062, offset: 0x1D54B, size: 0x8, addend: 0x0, symName: __ZNSt3__114__split_bufferIiRNS_9allocatorIiEEED2Ev, symObjAddr: 0x4E00, symBinAddr: 0x100007CAC, symSize: 0x80 }
  - { offsetInCU: 0x1308D, offset: 0x1D576, size: 0x8, addend: 0x0, symName: __ZNSt3__114__split_bufferIiRNS_9allocatorIiEEE5clearB8ue170006Ev, symObjAddr: 0x4E80, symBinAddr: 0x100007D2C, symSize: 0x28 }
  - { offsetInCU: 0x130B1, offset: 0x1D59A, size: 0x8, addend: 0x0, symName: __ZNKSt3__114__split_bufferIiRNS_9allocatorIiEEE8capacityB8ue170006Ev, symObjAddr: 0x4EA8, symBinAddr: 0x100007D54, symSize: 0x40 }
  - { offsetInCU: 0x130D5, offset: 0x1D5BE, size: 0x8, addend: 0x0, symName: __ZNSt3__114__split_bufferIiRNS_9allocatorIiEEE17__destruct_at_endB8ue170006EPi, symObjAddr: 0x4EE8, symBinAddr: 0x100007D94, symSize: 0x2C }
  - { offsetInCU: 0x13107, offset: 0x1D5F0, size: 0x8, addend: 0x0, symName: __ZNSt3__114__split_bufferIiRNS_9allocatorIiEEE17__destruct_at_endB8ue170006EPiNS_17integral_constantIbLb0EEE, symObjAddr: 0x4F14, symBinAddr: 0x100007DC0, symSize: 0x94 }
  - { offsetInCU: 0x13145, offset: 0x1D62E, size: 0x8, addend: 0x0, symName: __ZNKSt3__114__split_bufferIiRNS_9allocatorIiEEE9__end_capB8ue170006Ev, symObjAddr: 0x4FA8, symBinAddr: 0x100007E54, symSize: 0x28 }
  - { offsetInCU: 0x13169, offset: 0x1D652, size: 0x8, addend: 0x0, symName: __ZNKSt3__117__compressed_pairIPiRNS_9allocatorIiEEE5firstB8ue170006Ev, symObjAddr: 0x4FD0, symBinAddr: 0x100007E7C, symSize: 0x24 }
  - { offsetInCU: 0x1318D, offset: 0x1D676, size: 0x8, addend: 0x0, symName: __ZNSt3__14pairIi10competitorEC1B8ue170006ERKiRKS1_, symObjAddr: 0x4FF4, symBinAddr: 0x100007EA0, symSize: 0x3C }
  - { offsetInCU: 0x131D1, offset: 0x1D6BA, size: 0x8, addend: 0x0, symName: __ZNSt3__14pairIi10competitorEC2B8ue170006ERKiRKS1_, symObjAddr: 0x5030, symBinAddr: 0x100007EDC, symSize: 0x48 }
  - { offsetInCU: 0x13215, offset: 0x1D6FE, size: 0x8, addend: 0x0, symName: __ZN10competitorC1ERKS_, symObjAddr: 0x5078, symBinAddr: 0x100007F24, symSize: 0x34 }
  - { offsetInCU: 0x13249, offset: 0x1D732, size: 0x8, addend: 0x0, symName: __ZN10competitorC2ERKS_, symObjAddr: 0x50AC, symBinAddr: 0x100007F58, symSize: 0x40 }
  - { offsetInCU: 0x1327D, offset: 0x1D766, size: 0x8, addend: 0x0, symName: __ZNSt3__16__treeINS_12__value_typeIi10competitorEENS_19__map_value_compareIiS3_NS_4lessIiEELb1EEENS_9allocatorIS3_EEE15__insert_uniqueB8ue170006ERKNS_4pairIKiS2_EE, symObjAddr: 0x50EC, symBinAddr: 0x100007F98, symSize: 0x50 }
  - { offsetInCU: 0x132B0, offset: 0x1D799, size: 0x8, addend: 0x0, symName: __ZNSt3__14pairINS_14__map_iteratorINS_15__tree_iteratorINS_12__value_typeIi10competitorEEPNS_11__tree_nodeIS5_PvEElEEEEbEC1B8ue170006ISA_bEERKNS0_IT_T0_EE, symObjAddr: 0x513C, symBinAddr: 0x100007FE8, symSize: 0x34 }
  - { offsetInCU: 0x132F8, offset: 0x1D7E1, size: 0x8, addend: 0x0, symName: __ZNSt3__16__treeINS_12__value_typeIi10competitorEENS_19__map_value_compareIiS3_NS_4lessIiEELb1EEENS_9allocatorIS3_EEE25__emplace_unique_key_argsIiJRKNS_4pairIKiS2_EEEEENSC_INS_15__tree_iteratorIS3_PNS_11__tree_nodeIS3_PvEElEEbEERKT_DpOT0_, symObjAddr: 0x5170, symBinAddr: 0x10000801C, symSize: 0xF0 }
  - { offsetInCU: 0x133A2, offset: 0x1D88B, size: 0x8, addend: 0x0, symName: __ZNSt3__122__tree_key_value_typesINS_12__value_typeIi10competitorEEE9__get_keyB8ue170006IKNS_4pairIKiS2_EEEENS_9enable_ifIXsr17__is_same_uncvrefIT_S8_EE5valueERS7_E4typeERSB_, symObjAddr: 0x5260, symBinAddr: 0x10000810C, symSize: 0x14 }
  - { offsetInCU: 0x133CE, offset: 0x1D8B7, size: 0x8, addend: 0x0, symName: __ZNSt3__16__treeINS_12__value_typeIi10competitorEENS_19__map_value_compareIiS3_NS_4lessIiEELb1EEENS_9allocatorIS3_EEE12__find_equalIiEERPNS_16__tree_node_baseIPvEERPNS_15__tree_end_nodeISF_EERKT_, symObjAddr: 0x5274, symBinAddr: 0x100008120, symSize: 0x184 }
  - { offsetInCU: 0x13439, offset: 0x1D922, size: 0x8, addend: 0x0, symName: __ZNSt3__16__treeINS_12__value_typeIi10competitorEENS_19__map_value_compareIiS3_NS_4lessIiEELb1EEENS_9allocatorIS3_EEE16__construct_nodeIJRKNS_4pairIKiS2_EEEEENS_10unique_ptrINS_11__tree_nodeIS3_PvEENS_22__tree_node_destructorINS8_ISK_EEEEEEDpOT_, symObjAddr: 0x53F8, symBinAddr: 0x1000082A4, symSize: 0x118 }
  - { offsetInCU: 0x13498, offset: 0x1D981, size: 0x8, addend: 0x0, symName: __ZNSt3__16__treeINS_12__value_typeIi10competitorEENS_19__map_value_compareIiS3_NS_4lessIiEELb1EEENS_9allocatorIS3_EEE16__insert_node_atEPNS_15__tree_end_nodeIPNS_16__tree_node_baseIPvEEEERSF_SF_, symObjAddr: 0x5510, symBinAddr: 0x1000083BC, symSize: 0xCC }
  - { offsetInCU: 0x134EB, offset: 0x1D9D4, size: 0x8, addend: 0x0, symName: __ZNKSt3__110unique_ptrINS_11__tree_nodeINS_12__value_typeIi10competitorEEPvEENS_22__tree_node_destructorINS_9allocatorIS6_EEEEE3getB8ue170006Ev, symObjAddr: 0x55DC, symBinAddr: 0x100008488, symSize: 0x28 }
  - { offsetInCU: 0x1350F, offset: 0x1D9F8, size: 0x8, addend: 0x0, symName: __ZNSt3__110unique_ptrINS_11__tree_nodeINS_12__value_typeIi10competitorEEPvEENS_22__tree_node_destructorINS_9allocatorIS6_EEEEE7releaseB8ue170006Ev, symObjAddr: 0x5604, symBinAddr: 0x1000084B0, symSize: 0x44 }
  - { offsetInCU: 0x13542, offset: 0x1DA2B, size: 0x8, addend: 0x0, symName: __ZNSt3__110unique_ptrINS_11__tree_nodeINS_12__value_typeIi10competitorEEPvEENS_22__tree_node_destructorINS_9allocatorIS6_EEEEED1B8ue170006Ev, symObjAddr: 0x5648, symBinAddr: 0x1000084F4, symSize: 0x2C }
  - { offsetInCU: 0x1356A, offset: 0x1DA53, size: 0x8, addend: 0x0, symName: __ZNSt3__115__tree_iteratorINS_12__value_typeIi10competitorEEPNS_11__tree_nodeIS3_PvEElEC1B8ue170006ES7_, symObjAddr: 0x5674, symBinAddr: 0x100008520, symSize: 0x34 }
  - { offsetInCU: 0x135A1, offset: 0x1DA8A, size: 0x8, addend: 0x0, symName: __ZNSt3__14pairINS_15__tree_iteratorINS_12__value_typeIi10competitorEEPNS_11__tree_nodeIS4_PvEElEEbEC1B8ue170006ERKS9_RKb, symObjAddr: 0x56A8, symBinAddr: 0x100008554, symSize: 0x3C }
  - { offsetInCU: 0x135E5, offset: 0x1DACE, size: 0x8, addend: 0x0, symName: __ZNKSt3__16__treeINS_12__value_typeIi10competitorEENS_19__map_value_compareIiS3_NS_4lessIiEELb1EEENS_9allocatorIS3_EEE10__root_ptrB8ue170006Ev, symObjAddr: 0x56E4, symBinAddr: 0x100008590, symSize: 0x24 }
  - { offsetInCU: 0x13609, offset: 0x1DAF2, size: 0x8, addend: 0x0, symName: __ZNSt3__16__treeINS_12__value_typeIi10competitorEENS_19__map_value_compareIiS3_NS_4lessIiEELb1EEENS_9allocatorIS3_EEE10value_compB8ue170006Ev, symObjAddr: 0x5708, symBinAddr: 0x1000085B4, symSize: 0x28 }
  - { offsetInCU: 0x1362D, offset: 0x1DB16, size: 0x8, addend: 0x0, symName: __ZNKSt3__119__map_value_compareIiNS_12__value_typeIi10competitorEENS_4lessIiEELb1EEclB8ue170006ERKiRKS3_, symObjAddr: 0x5730, symBinAddr: 0x1000085DC, symSize: 0x50 }
  - { offsetInCU: 0x1366F, offset: 0x1DB58, size: 0x8, addend: 0x0, symName: __ZNKSt3__119__map_value_compareIiNS_12__value_typeIi10competitorEENS_4lessIiEELb1EEclB8ue170006ERKS3_RKi, symObjAddr: 0x5780, symBinAddr: 0x10000862C, symSize: 0x48 }
  - { offsetInCU: 0x136B1, offset: 0x1DB9A, size: 0x8, addend: 0x0, symName: __ZNSt3__117__compressed_pairImNS_19__map_value_compareIiNS_12__value_typeIi10competitorEENS_4lessIiEELb1EEEE6secondB8ue170006Ev, symObjAddr: 0x57C8, symBinAddr: 0x100008674, symSize: 0x24 }
  - { offsetInCU: 0x136D5, offset: 0x1DBBE, size: 0x8, addend: 0x0, symName: __ZNSt3__122__compressed_pair_elemINS_19__map_value_compareIiNS_12__value_typeIi10competitorEENS_4lessIiEELb1EEELi1ELb1EE5__getB8ue170006Ev, symObjAddr: 0x57EC, symBinAddr: 0x100008698, symSize: 0x14 }
  - { offsetInCU: 0x136F9, offset: 0x1DBE2, size: 0x8, addend: 0x0, symName: __ZNKSt3__14lessIiEclB8ue170006ERKiS3_, symObjAddr: 0x5800, symBinAddr: 0x1000086AC, symSize: 0x34 }
  - { offsetInCU: 0x1373B, offset: 0x1DC24, size: 0x8, addend: 0x0, symName: __ZNKSt3__112__value_typeIi10competitorE11__get_valueB8ue170006Ev, symObjAddr: 0x5834, symBinAddr: 0x1000086E0, symSize: 0x14 }
  - { offsetInCU: 0x1375F, offset: 0x1DC48, size: 0x8, addend: 0x0, symName: __ZNSt3__116allocator_traitsINS_9allocatorINS_11__tree_nodeINS_12__value_typeIi10competitorEEPvEEEEE8allocateB8ue170006ERS8_m, symObjAddr: 0x5848, symBinAddr: 0x1000086F4, symSize: 0x2C }
  - { offsetInCU: 0x13791, offset: 0x1DC7A, size: 0x8, addend: 0x0, symName: __ZNSt3__122__tree_node_destructorINS_9allocatorINS_11__tree_nodeINS_12__value_typeIi10competitorEEPvEEEEEC1B8ue170006ERS8_b, symObjAddr: 0x5874, symBinAddr: 0x100008720, symSize: 0x48 }
  - { offsetInCU: 0x137DC, offset: 0x1DCC5, size: 0x8, addend: 0x0, symName: __ZNSt3__110unique_ptrINS_11__tree_nodeINS_12__value_typeIi10competitorEEPvEENS_22__tree_node_destructorINS_9allocatorIS6_EEEEEC1B8ue170006ILb1EvEEPS6_NS_16__dependent_typeINS_27__unique_ptr_deleter_sfinaeISA_EEXT_EE20__good_rval_ref_typeE, symObjAddr: 0x58BC, symBinAddr: 0x100008768, symSize: 0x3C }
  - { offsetInCU: 0x1382C, offset: 0x1DD15, size: 0x8, addend: 0x0, symName: __ZNSt3__116allocator_traitsINS_9allocatorINS_11__tree_nodeINS_12__value_typeIi10competitorEEPvEEEEE9constructB8ue170006INS_4pairIKiS4_EEJRKSD_EvEEvRS8_PT_DpOT0_, symObjAddr: 0x58F8, symBinAddr: 0x1000087A4, symSize: 0x34 }
  - { offsetInCU: 0x13883, offset: 0x1DD6C, size: 0x8, addend: 0x0, symName: __ZNKSt3__110unique_ptrINS_11__tree_nodeINS_12__value_typeIi10competitorEEPvEENS_22__tree_node_destructorINS_9allocatorIS6_EEEEEptB8ue170006Ev, symObjAddr: 0x592C, symBinAddr: 0x1000087D8, symSize: 0x28 }
  - { offsetInCU: 0x138A7, offset: 0x1DD90, size: 0x8, addend: 0x0, symName: __ZNSt3__110unique_ptrINS_11__tree_nodeINS_12__value_typeIi10competitorEEPvEENS_22__tree_node_destructorINS_9allocatorIS6_EEEEE11get_deleterB8ue170006Ev, symObjAddr: 0x5954, symBinAddr: 0x100008800, symSize: 0x24 }
  - { offsetInCU: 0x138CB, offset: 0x1DDB4, size: 0x8, addend: 0x0, symName: __ZNSt3__19allocatorINS_11__tree_nodeINS_12__value_typeIi10competitorEEPvEEE8allocateB8ue170006Em, symObjAddr: 0x5978, symBinAddr: 0x100008824, symSize: 0x8C }
  - { offsetInCU: 0x13907, offset: 0x1DDF0, size: 0x8, addend: 0x0, symName: __ZNSt3__116allocator_traitsINS_9allocatorINS_11__tree_nodeINS_12__value_typeIi10competitorEEPvEEEEE8max_sizeB8ue170006IS8_vEEmRKS8_, symObjAddr: 0x5A04, symBinAddr: 0x1000088B0, symSize: 0x24 }
  - { offsetInCU: 0x13935, offset: 0x1DE1E, size: 0x8, addend: 0x0, symName: __ZNKSt3__19allocatorINS_11__tree_nodeINS_12__value_typeIi10competitorEEPvEEE8max_sizeB8ue170006Ev, symObjAddr: 0x5A28, symBinAddr: 0x1000088D4, symSize: 0x18 }
  - { offsetInCU: 0x13959, offset: 0x1DE42, size: 0x8, addend: 0x0, symName: __ZNSt3__122__tree_node_destructorINS_9allocatorINS_11__tree_nodeINS_12__value_typeIi10competitorEEPvEEEEEC2B8ue170006ERS8_b, symObjAddr: 0x5A40, symBinAddr: 0x1000088EC, symSize: 0x38 }
  - { offsetInCU: 0x1399F, offset: 0x1DE88, size: 0x8, addend: 0x0, symName: __ZNSt3__110unique_ptrINS_11__tree_nodeINS_12__value_typeIi10competitorEEPvEENS_22__tree_node_destructorINS_9allocatorIS6_EEEEEC2B8ue170006ILb1EvEEPS6_NS_16__dependent_typeINS_27__unique_ptr_deleter_sfinaeISA_EEXT_EE20__good_rval_ref_typeE, symObjAddr: 0x5A78, symBinAddr: 0x100008924, symSize: 0x5C }
  - { offsetInCU: 0x139EF, offset: 0x1DED8, size: 0x8, addend: 0x0, symName: __ZNSt3__117__compressed_pairIPNS_11__tree_nodeINS_12__value_typeIi10competitorEEPvEENS_22__tree_node_destructorINS_9allocatorIS6_EEEEEC1B8ue170006IRS7_SB_EEOT_OT0_, symObjAddr: 0x5AD4, symBinAddr: 0x100008980, symSize: 0x3C }
  - { offsetInCU: 0x13A45, offset: 0x1DF2E, size: 0x8, addend: 0x0, symName: __ZNSt3__117__compressed_pairIPNS_11__tree_nodeINS_12__value_typeIi10competitorEEPvEENS_22__tree_node_destructorINS_9allocatorIS6_EEEEEC2B8ue170006IRS7_SB_EEOT_OT0_, symObjAddr: 0x5B10, symBinAddr: 0x1000089BC, symSize: 0x48 }
  - { offsetInCU: 0x13A9B, offset: 0x1DF84, size: 0x8, addend: 0x0, symName: __ZNSt3__122__compressed_pair_elemIPNS_11__tree_nodeINS_12__value_typeIi10competitorEEPvEELi0ELb0EEC2B8ue170006IRS7_vEEOT_, symObjAddr: 0x5B58, symBinAddr: 0x100008A04, symSize: 0x24 }
  - { offsetInCU: 0x13ADC, offset: 0x1DFC5, size: 0x8, addend: 0x0, symName: __ZNSt3__122__compressed_pair_elemINS_22__tree_node_destructorINS_9allocatorINS_11__tree_nodeINS_12__value_typeIi10competitorEEPvEEEEEELi1ELb0EEC2B8ue170006ISA_vEEOT_, symObjAddr: 0x5B7C, symBinAddr: 0x100008A28, symSize: 0x24 }
  - { offsetInCU: 0x13B1D, offset: 0x1E006, size: 0x8, addend: 0x0, symName: __ZNSt3__19allocatorINS_11__tree_nodeINS_12__value_typeIi10competitorEEPvEEE9constructB8ue170006INS_4pairIKiS3_EEJRKSB_EEEvPT_DpOT0_, symObjAddr: 0x5BA0, symBinAddr: 0x100008A4C, symSize: 0x30 }
  - { offsetInCU: 0x13B71, offset: 0x1E05A, size: 0x8, addend: 0x0, symName: __ZNSt3__14pairIKi10competitorEC1B8ue170006ERKS3_, symObjAddr: 0x5BD0, symBinAddr: 0x100008A7C, symSize: 0x34 }
  - { offsetInCU: 0x13BA3, offset: 0x1E08C, size: 0x8, addend: 0x0, symName: __ZNSt3__14pairIKi10competitorEC2B8ue170006ERKS3_, symObjAddr: 0x5C04, symBinAddr: 0x100008AB0, symSize: 0x48 }
  - { offsetInCU: 0x13BD5, offset: 0x1E0BE, size: 0x8, addend: 0x0, symName: __ZNKSt3__117__compressed_pairIPNS_11__tree_nodeINS_12__value_typeIi10competitorEEPvEENS_22__tree_node_destructorINS_9allocatorIS6_EEEEE5firstB8ue170006Ev, symObjAddr: 0x5C4C, symBinAddr: 0x100008AF8, symSize: 0x24 }
  - { offsetInCU: 0x13BF9, offset: 0x1E0E2, size: 0x8, addend: 0x0, symName: __ZNKSt3__122__compressed_pair_elemIPNS_11__tree_nodeINS_12__value_typeIi10competitorEEPvEELi0ELb0EE5__getB8ue170006Ev, symObjAddr: 0x5C70, symBinAddr: 0x100008B1C, symSize: 0x14 }
  - { offsetInCU: 0x13C1D, offset: 0x1E106, size: 0x8, addend: 0x0, symName: __ZNSt3__117__compressed_pairIPNS_11__tree_nodeINS_12__value_typeIi10competitorEEPvEENS_22__tree_node_destructorINS_9allocatorIS6_EEEEE6secondB8ue170006Ev, symObjAddr: 0x5C84, symBinAddr: 0x100008B30, symSize: 0x28 }
  - { offsetInCU: 0x13C41, offset: 0x1E12A, size: 0x8, addend: 0x0, symName: __ZNSt3__122__compressed_pair_elemINS_22__tree_node_destructorINS_9allocatorINS_11__tree_nodeINS_12__value_typeIi10competitorEEPvEEEEEELi1ELb0EE5__getB8ue170006Ev, symObjAddr: 0x5CAC, symBinAddr: 0x100008B58, symSize: 0x14 }
  - { offsetInCU: 0x13C65, offset: 0x1E14E, size: 0x8, addend: 0x0, symName: __ZNKSt3__116__tree_node_baseIPvE15__parent_unsafeB8ue170006Ev, symObjAddr: 0x6000, symBinAddr: 0x100008EAC, symSize: 0x18 }
  - { offsetInCU: 0x13C89, offset: 0x1E172, size: 0x8, addend: 0x0, symName: __ZNSt3__116__tree_node_baseIPvE12__set_parentB8ue170006EPS2_, symObjAddr: 0x61FC, symBinAddr: 0x1000090A8, symSize: 0x20 }
  - { offsetInCU: 0x13CBC, offset: 0x1E1A5, size: 0x8, addend: 0x0, symName: __ZNSt3__117__compressed_pairIPNS_11__tree_nodeINS_12__value_typeIi10competitorEEPvEENS_22__tree_node_destructorINS_9allocatorIS6_EEEEE5firstB8ue170006Ev, symObjAddr: 0x621C, symBinAddr: 0x1000090C8, symSize: 0x24 }
  - { offsetInCU: 0x13CE0, offset: 0x1E1C9, size: 0x8, addend: 0x0, symName: __ZNSt3__122__compressed_pair_elemIPNS_11__tree_nodeINS_12__value_typeIi10competitorEEPvEELi0ELb0EE5__getB8ue170006Ev, symObjAddr: 0x6240, symBinAddr: 0x1000090EC, symSize: 0x14 }
  - { offsetInCU: 0x13D04, offset: 0x1E1ED, size: 0x8, addend: 0x0, symName: __ZNSt3__110unique_ptrINS_11__tree_nodeINS_12__value_typeIi10competitorEEPvEENS_22__tree_node_destructorINS_9allocatorIS6_EEEEED2B8ue170006Ev, symObjAddr: 0x6254, symBinAddr: 0x100009100, symSize: 0x30 }
  - { offsetInCU: 0x13D2C, offset: 0x1E215, size: 0x8, addend: 0x0, symName: __ZNSt3__110unique_ptrINS_11__tree_nodeINS_12__value_typeIi10competitorEEPvEENS_22__tree_node_destructorINS_9allocatorIS6_EEEEE5resetB8ue170006EPS6_, symObjAddr: 0x6284, symBinAddr: 0x100009130, symSize: 0x78 }
  - { offsetInCU: 0x13D6E, offset: 0x1E257, size: 0x8, addend: 0x0, symName: __ZNSt3__122__tree_node_destructorINS_9allocatorINS_11__tree_nodeINS_12__value_typeIi10competitorEEPvEEEEEclB8ue170006EPS7_, symObjAddr: 0x62FC, symBinAddr: 0x1000091A8, symSize: 0xAC }
  - { offsetInCU: 0x13DA1, offset: 0x1E28A, size: 0x8, addend: 0x0, symName: __ZNSt3__115__tree_iteratorINS_12__value_typeIi10competitorEEPNS_11__tree_nodeIS3_PvEElEC2B8ue170006ES7_, symObjAddr: 0x63A8, symBinAddr: 0x100009254, symSize: 0x20 }
  - { offsetInCU: 0x13DD8, offset: 0x1E2C1, size: 0x8, addend: 0x0, symName: __ZNSt3__14pairINS_15__tree_iteratorINS_12__value_typeIi10competitorEEPNS_11__tree_nodeIS4_PvEElEEbEC2B8ue170006ERKS9_RKb, symObjAddr: 0x63C8, symBinAddr: 0x100009274, symSize: 0x38 }
  - { offsetInCU: 0x13E1C, offset: 0x1E305, size: 0x8, addend: 0x0, symName: __ZNSt3__14pairINS_14__map_iteratorINS_15__tree_iteratorINS_12__value_typeIi10competitorEEPNS_11__tree_nodeIS5_PvEElEEEEbEC2B8ue170006ISA_bEERKNS0_IT_T0_EE, symObjAddr: 0x6400, symBinAddr: 0x1000092AC, symSize: 0x50 }
  - { offsetInCU: 0x13E64, offset: 0x1E34D, size: 0x8, addend: 0x0, symName: __ZNSt3__114__map_iteratorINS_15__tree_iteratorINS_12__value_typeIi10competitorEEPNS_11__tree_nodeIS4_PvEElEEEC1B8ue170006ES9_, symObjAddr: 0x6450, symBinAddr: 0x1000092FC, symSize: 0x34 }
  - { offsetInCU: 0x13E9B, offset: 0x1E384, size: 0x8, addend: 0x0, symName: __ZNSt3__114__map_iteratorINS_15__tree_iteratorINS_12__value_typeIi10competitorEEPNS_11__tree_nodeIS4_PvEElEEEC2B8ue170006ES9_, symObjAddr: 0x6484, symBinAddr: 0x100009330, symSize: 0x20 }
  - { offsetInCU: 0x13ED2, offset: 0x1E3BB, size: 0x8, addend: 0x0, symName: __ZNSt3__14pairIKi10competitorEC2B8ue170006IiS2_EERKNS0_IT_T0_EE, symObjAddr: 0x64A4, symBinAddr: 0x100009350, symSize: 0x48 }
  - { offsetInCU: 0x13F1A, offset: 0x1E403, size: 0x8, addend: 0x0, symName: __ZNSt3__16vectorIiNS_9allocatorIiEEE11__make_iterB8ue170006EPi, symObjAddr: 0x64EC, symBinAddr: 0x100009398, symSize: 0x30 }
  - { offsetInCU: 0x13F4D, offset: 0x1E436, size: 0x8, addend: 0x0, symName: __ZNSt3__111__wrap_iterIPiEC1B8ue170006ES1_, symObjAddr: 0x651C, symBinAddr: 0x1000093C8, symSize: 0x34 }
  - { offsetInCU: 0x13F83, offset: 0x1E46C, size: 0x8, addend: 0x0, symName: __ZNSt3__111__wrap_iterIPiEC2B8ue170006ES1_, symObjAddr: 0x6550, symBinAddr: 0x1000093FC, symSize: 0x20 }
  - { offsetInCU: 0x13FB9, offset: 0x1E4A2, size: 0x8, addend: 0x0, symName: __ZNSt3__18_IterOpsINS_17_ClassicAlgPolicyEE4nextB8ue170006INS_11__wrap_iterIPiEEEET_S7_S7_, symObjAddr: 0x66B8, symBinAddr: 0x100009564, symSize: 0x20 }
  - { offsetInCU: 0x13FEE, offset: 0x1E4D7, size: 0x8, addend: 0x0, symName: __ZNSt3__124uniform_int_distributionIlEC1Ell, symObjAddr: 0x6720, symBinAddr: 0x1000095CC, symSize: 0x3C }
  - { offsetInCU: 0x14032, offset: 0x1E51B, size: 0x8, addend: 0x0, symName: __ZNSt3__111__wrap_iterIPiEmmB8ue170006Ev, symObjAddr: 0x675C, symBinAddr: 0x100009608, symSize: 0x20 }
  - { offsetInCU: 0x14056, offset: 0x1E53F, size: 0x8, addend: 0x0, symName: __ZNSt3__124uniform_int_distributionIlE10param_typeC1B8ue170006Ell, symObjAddr: 0x6938, symBinAddr: 0x1000097E4, symSize: 0x3C }
  - { offsetInCU: 0x1409F, offset: 0x1E588, size: 0x8, addend: 0x0, symName: __ZNSt3__18_IterOpsINS_17_ClassicAlgPolicyEE9iter_swapB8ue170006IRNS_11__wrap_iterIPiEES6_EEvOT_OT0_, symObjAddr: 0x6974, symBinAddr: 0x100009820, symSize: 0x44 }
  - { offsetInCU: 0x140E1, offset: 0x1E5CA, size: 0x8, addend: 0x0, symName: __ZNKSt3__111__wrap_iterIPiEplB8ue170006El, symObjAddr: 0x69B8, symBinAddr: 0x100009864, symSize: 0x3C }
  - { offsetInCU: 0x14121, offset: 0x1E60A, size: 0x8, addend: 0x0, symName: __ZNSt3__111__wrap_iterIPiEppB8ue170006Ev, symObjAddr: 0x69F4, symBinAddr: 0x1000098A0, symSize: 0x20 }
  - { offsetInCU: 0x14145, offset: 0x1E62E, size: 0x8, addend: 0x0, symName: __ZNKSt3__111__wrap_iterIPiE4baseB8ue170006Ev, symObjAddr: 0x6A14, symBinAddr: 0x1000098C0, symSize: 0x18 }
  - { offsetInCU: 0x14169, offset: 0x1E652, size: 0x8, addend: 0x0, symName: __ZNSt3__124uniform_int_distributionIlEC2Ell, symObjAddr: 0x6A2C, symBinAddr: 0x1000098D8, symSize: 0x3C }
  - { offsetInCU: 0x141AD, offset: 0x1E696, size: 0x8, addend: 0x0, symName: __ZNKSt3__124uniform_int_distributionIlE10param_type1bB8ue170006Ev, symObjAddr: 0x6A68, symBinAddr: 0x100009914, symSize: 0x18 }
  - { offsetInCU: 0x141D1, offset: 0x1E6BA, size: 0x8, addend: 0x0, symName: __ZNKSt3__124uniform_int_distributionIlE10param_type1aB8ue170006Ev, symObjAddr: 0x6A80, symBinAddr: 0x10000992C, symSize: 0x18 }
  - { offsetInCU: 0x141F5, offset: 0x1E6DE, size: 0x8, addend: 0x0, symName: __ZNSt3__125__independent_bits_engineINS_13random_deviceEmEC1ERS1_m, symObjAddr: 0x6A98, symBinAddr: 0x100009944, symSize: 0x3C }
  - { offsetInCU: 0x1423B, offset: 0x1E724, size: 0x8, addend: 0x0, symName: __ZNSt3__125__independent_bits_engineINS_13random_deviceEmEclB8ue170006Ev, symObjAddr: 0x6AD4, symBinAddr: 0x100009980, symSize: 0x24 }
  - { offsetInCU: 0x1425F, offset: 0x1E748, size: 0x8, addend: 0x0, symName: __ZNSt3__114numeric_limitsImE3maxB8ue170006Ev, symObjAddr: 0x6B4C, symBinAddr: 0x1000099F8, symSize: 0x14 }
  - { offsetInCU: 0x14273, offset: 0x1E75C, size: 0x8, addend: 0x0, symName: __ZNSt3__125__independent_bits_engineINS_13random_deviceEmEC2ERS1_m, symObjAddr: 0x6B60, symBinAddr: 0x100009A0C, symSize: 0x264 }
  - { offsetInCU: 0x142B9, offset: 0x1E7A2, size: 0x8, addend: 0x0, symName: __ZNSt3__125__independent_bits_engineINS_13random_deviceEmE6__evalENS_17integral_constantIbLb1EEE, symObjAddr: 0x6DC4, symBinAddr: 0x100009C70, symSize: 0x1F0 }
  - { offsetInCU: 0x14379, offset: 0x1E862, size: 0x8, addend: 0x0, symName: __ZNSt3__113random_device3minB8ue170006Ev, symObjAddr: 0x6FB4, symBinAddr: 0x100009E60, symSize: 0x8 }
  - { offsetInCU: 0x1438C, offset: 0x1E875, size: 0x8, addend: 0x0, symName: __ZNSt3__123__libcpp_numeric_limitsImLb1EE3maxB8ue170006Ev, symObjAddr: 0x6FD8, symBinAddr: 0x100009E84, symSize: 0x8 }
  - { offsetInCU: 0x1439F, offset: 0x1E888, size: 0x8, addend: 0x0, symName: __ZNSt3__124uniform_int_distributionIlE10param_typeC2B8ue170006Ell, symObjAddr: 0x6FE0, symBinAddr: 0x100009E8C, symSize: 0x2C }
  - { offsetInCU: 0x143E3, offset: 0x1E8CC, size: 0x8, addend: 0x0, symName: __ZNKSt3__111__wrap_iterIPiEdeB8ue170006Ev, symObjAddr: 0x7098, symBinAddr: 0x100009F44, symSize: 0x18 }
  - { offsetInCU: 0x14407, offset: 0x1E8F0, size: 0x8, addend: 0x0, symName: __ZNSt3__111__wrap_iterIPiEpLB8ue170006El, symObjAddr: 0x70B0, symBinAddr: 0x100009F5C, symSize: 0x28 }
  - { offsetInCU: 0x14439, offset: 0x1E922, size: 0x8, addend: 0x0, symName: __ZNSt3__16vectorIiNS_9allocatorIiEEE19__copy_assign_allocB8ue170006ERKS3_, symObjAddr: 0x70D8, symBinAddr: 0x100009F84, symSize: 0x2C }
  - { offsetInCU: 0x1446C, offset: 0x1E955, size: 0x8, addend: 0x0, symName: __ZNSt3__16vectorIiNS_9allocatorIiEEE6assignIPiLi0EEEvT_S6_, symObjAddr: 0x7104, symBinAddr: 0x100009FB0, symSize: 0x5C }
  - { offsetInCU: 0x144C0, offset: 0x1E9A9, size: 0x8, addend: 0x0, symName: __ZNSt3__16vectorIiNS_9allocatorIiEEE19__copy_assign_allocB8ue170006ERKS3_NS_17integral_constantIbLb0EEE, symObjAddr: 0x7160, symBinAddr: 0x10000A00C, symSize: 0x14 }
  - { offsetInCU: 0x144FC, offset: 0x1E9E5, size: 0x8, addend: 0x0, symName: __ZNSt3__16vectorIiNS_9allocatorIiEEE18__assign_with_sizeB8ue170006IPiS5_EEvT_T0_l, symObjAddr: 0x7174, symBinAddr: 0x10000A020, symSize: 0x164 }
  - { offsetInCU: 0x145AC, offset: 0x1EA95, size: 0x8, addend: 0x0, symName: __ZNSt3__16vectorIiNS_9allocatorIiEEE18__construct_at_endIPiS5_EEvT_T0_m, symObjAddr: 0x7378, symBinAddr: 0x10000A224, symSize: 0x94 }
  - { offsetInCU: 0x14620, offset: 0x1EB09, size: 0x8, addend: 0x0, symName: __ZNSt3__16vectorIiNS_9allocatorIiEEE17__destruct_at_endB8ue170006EPi, symObjAddr: 0x7450, symBinAddr: 0x10000A2FC, symSize: 0x4C }
  - { offsetInCU: 0x14662, offset: 0x1EB4B, size: 0x8, addend: 0x0, symName: __ZNSt3__16vectorIiNS_9allocatorIiEEE13__vdeallocateEv, symObjAddr: 0x749C, symBinAddr: 0x10000A348, symSize: 0x94 }
  - { offsetInCU: 0x14688, offset: 0x1EB71, size: 0x8, addend: 0x0, symName: __ZNSt3__16vectorIiNS_9allocatorIiEEE11__vallocateB8ue170006Em, symObjAddr: 0x7530, symBinAddr: 0x10000A3DC, symSize: 0xAC }
  - { offsetInCU: 0x146E3, offset: 0x1EBCC, size: 0x8, addend: 0x0, symName: __ZNSt3__14pairIPiS1_EC1B8ue170006ERKS1_S4_, symObjAddr: 0x78D8, symBinAddr: 0x10000A784, symSize: 0x3C }
  - { offsetInCU: 0x14727, offset: 0x1EC10, size: 0x8, addend: 0x0, symName: __ZNSt3__14pairIPiS1_EC2B8ue170006ERKS1_S4_, symObjAddr: 0x7914, symBinAddr: 0x10000A7C0, symSize: 0x34 }
  - { offsetInCU: 0x1476B, offset: 0x1EC54, size: 0x8, addend: 0x0, symName: __ZNSt3__129_AllocatorDestroyRangeReverseINS_9allocatorIiEEPiEC1B8ue170006ERS2_RS3_S6_, symObjAddr: 0x7994, symBinAddr: 0x10000A840, symSize: 0x44 }
  - { offsetInCU: 0x147C0, offset: 0x1ECA9, size: 0x8, addend: 0x0, symName: __ZNSt3__116allocator_traitsINS_9allocatorIiEEE9constructB8ue170006IiJRiEvEEvRS2_PT_DpOT0_, symObjAddr: 0x79D8, symBinAddr: 0x10000A884, symSize: 0x34 }
  - { offsetInCU: 0x14817, offset: 0x1ED00, size: 0x8, addend: 0x0, symName: __ZNSt3__128__exception_guard_exceptionsINS_29_AllocatorDestroyRangeReverseINS_9allocatorIiEEPiEEE10__completeB8ue170006Ev, symObjAddr: 0x7A0C, symBinAddr: 0x10000A8B8, symSize: 0x1C }
  - { offsetInCU: 0x1483B, offset: 0x1ED24, size: 0x8, addend: 0x0, symName: __ZNSt3__128__exception_guard_exceptionsINS_29_AllocatorDestroyRangeReverseINS_9allocatorIiEEPiEEED1B8ue170006Ev, symObjAddr: 0x7A28, symBinAddr: 0x10000A8D4, symSize: 0x2C }
  - { offsetInCU: 0x14863, offset: 0x1ED4C, size: 0x8, addend: 0x0, symName: __ZNSt3__128__exception_guard_exceptionsINS_29_AllocatorDestroyRangeReverseINS_9allocatorIiEEPiEEEC1B8ue170006ES5_, symObjAddr: 0x7A54, symBinAddr: 0x10000A900, symSize: 0x34 }
  - { offsetInCU: 0x1489A, offset: 0x1ED83, size: 0x8, addend: 0x0, symName: __ZNSt3__128__exception_guard_exceptionsINS_29_AllocatorDestroyRangeReverseINS_9allocatorIiEEPiEEEC2B8ue170006ES5_, symObjAddr: 0x7A88, symBinAddr: 0x10000A934, symSize: 0x30 }
  - { offsetInCU: 0x148D1, offset: 0x1EDBA, size: 0x8, addend: 0x0, symName: __ZNSt3__129_AllocatorDestroyRangeReverseINS_9allocatorIiEEPiEC2B8ue170006ERS2_RS3_S6_, symObjAddr: 0x7AB8, symBinAddr: 0x10000A964, symSize: 0x38 }
  - { offsetInCU: 0x14926, offset: 0x1EE0F, size: 0x8, addend: 0x0, symName: __ZNSt3__19allocatorIiE9constructB8ue170006IiJRiEEEvPT_DpOT0_, symObjAddr: 0x7AF0, symBinAddr: 0x10000A99C, symSize: 0x28 }
  - { offsetInCU: 0x1497A, offset: 0x1EE63, size: 0x8, addend: 0x0, symName: __ZNSt3__128__exception_guard_exceptionsINS_29_AllocatorDestroyRangeReverseINS_9allocatorIiEEPiEEED2B8ue170006Ev, symObjAddr: 0x7B18, symBinAddr: 0x10000A9C4, symSize: 0x48 }
  - { offsetInCU: 0x149A2, offset: 0x1EE8B, size: 0x8, addend: 0x0, symName: __ZNKSt3__129_AllocatorDestroyRangeReverseINS_9allocatorIiEEPiEclB8ue170006Ev, symObjAddr: 0x7B60, symBinAddr: 0x10000AA0C, symSize: 0x68 }
  - { offsetInCU: 0x149C6, offset: 0x1EEAF, size: 0x8, addend: 0x0, symName: __ZNSt3__118__unwrap_iter_implIPiLb1EE8__unwrapB8ue170006ES1_, symObjAddr: 0x7C38, symBinAddr: 0x10000AAE4, symSize: 0x24 }
  - { offsetInCU: 0x149E8, offset: 0x1EED1, size: 0x8, addend: 0x0, symName: __ZNSt3__118__unwrap_iter_implIPiLb1EE8__rewrapB8ue170006ES1_S1_, symObjAddr: 0x7C5C, symBinAddr: 0x10000AB08, symSize: 0x50 }
  - { offsetInCU: 0x14A22, offset: 0x1EF0B, size: 0x8, addend: 0x0, symName: __ZNKSt3__114__copy_trivialclB8ue170006IiiLi0EEENS_4pairIPT_PT0_EES4_S4_S6_, symObjAddr: 0x7DA4, symBinAddr: 0x10000AC50, symSize: 0x48 }
  - { offsetInCU: 0x14A89, offset: 0x1EF72, size: 0x8, addend: 0x0, symName: __ZNSt3__15dequeIdNS_9allocatorIdEEEC2B8ue170006Ev, symObjAddr: 0x7FE0, symBinAddr: 0x10000AE8C, symSize: 0x84 }
  - { offsetInCU: 0x14AB1, offset: 0x1EF9A, size: 0x8, addend: 0x0, symName: __ZNSt3__114__split_bufferIPdNS_9allocatorIS1_EEEC1B8ue170006Ev, symObjAddr: 0x8064, symBinAddr: 0x10000AF10, symSize: 0x2C }
  - { offsetInCU: 0x14AD9, offset: 0x1EFC2, size: 0x8, addend: 0x0, symName: __ZNSt3__117__compressed_pairImNS_9allocatorIdEEEC1B8ue170006IiNS_18__default_init_tagEEEOT_OT0_, symObjAddr: 0x8090, symBinAddr: 0x10000AF3C, symSize: 0x3C }
  - { offsetInCU: 0x14B2F, offset: 0x1F018, size: 0x8, addend: 0x0, symName: __ZNKSt3__15dequeIdNS_9allocatorIdEEE14__annotate_newB8ue170006Em, symObjAddr: 0x80CC, symBinAddr: 0x10000AF78, symSize: 0xDC }
  - { offsetInCU: 0x14B62, offset: 0x1F04B, size: 0x8, addend: 0x0, symName: __ZNSt3__114__split_bufferIPdNS_9allocatorIS1_EEED1Ev, symObjAddr: 0x81A8, symBinAddr: 0x10000B054, symSize: 0x2C }
  - { offsetInCU: 0x14B8D, offset: 0x1F076, size: 0x8, addend: 0x0, symName: __ZNSt3__114__split_bufferIPdNS_9allocatorIS1_EEEC2B8ue170006Ev, symObjAddr: 0x81D4, symBinAddr: 0x10000B080, symSize: 0x48 }
  - { offsetInCU: 0x14BB5, offset: 0x1F09E, size: 0x8, addend: 0x0, symName: __ZNSt3__117__compressed_pairIPPdNS_9allocatorIS1_EEEC1B8ue170006IDnNS_18__default_init_tagEEEOT_OT0_, symObjAddr: 0x821C, symBinAddr: 0x10000B0C8, symSize: 0x3C }
  - { offsetInCU: 0x14C0B, offset: 0x1F0F4, size: 0x8, addend: 0x0, symName: __ZNSt3__117__compressed_pairIPPdNS_9allocatorIS1_EEEC2B8ue170006IDnNS_18__default_init_tagEEEOT_OT0_, symObjAddr: 0x8258, symBinAddr: 0x10000B104, symSize: 0x40 }
  - { offsetInCU: 0x14C61, offset: 0x1F14A, size: 0x8, addend: 0x0, symName: __ZNSt3__122__compressed_pair_elemIPPdLi0ELb0EEC2B8ue170006IDnvEEOT_, symObjAddr: 0x8298, symBinAddr: 0x10000B144, symSize: 0x1C }
  - { offsetInCU: 0x14CA2, offset: 0x1F18B, size: 0x8, addend: 0x0, symName: __ZNSt3__122__compressed_pair_elemINS_9allocatorIPdEELi1ELb1EEC2B8ue170006ENS_18__default_init_tagE, symObjAddr: 0x82B4, symBinAddr: 0x10000B160, symSize: 0x2C }
  - { offsetInCU: 0x14CD4, offset: 0x1F1BD, size: 0x8, addend: 0x0, symName: __ZNSt3__19allocatorIPdEC2B8ue170006Ev, symObjAddr: 0x82E0, symBinAddr: 0x10000B18C, symSize: 0x2C }
  - { offsetInCU: 0x14CFC, offset: 0x1F1E5, size: 0x8, addend: 0x0, symName: __ZNSt3__116__non_trivial_ifILb1ENS_9allocatorIPdEEEC2B8ue170006Ev, symObjAddr: 0x830C, symBinAddr: 0x10000B1B8, symSize: 0x14 }
  - { offsetInCU: 0x14D24, offset: 0x1F20D, size: 0x8, addend: 0x0, symName: __ZNSt3__117__compressed_pairImNS_9allocatorIdEEEC2B8ue170006IiNS_18__default_init_tagEEEOT_OT0_, symObjAddr: 0x8320, symBinAddr: 0x10000B1CC, symSize: 0x40 }
  - { offsetInCU: 0x14D7A, offset: 0x1F263, size: 0x8, addend: 0x0, symName: __ZNSt3__122__compressed_pair_elemINS_9allocatorIdEELi1ELb1EEC2B8ue170006ENS_18__default_init_tagE, symObjAddr: 0x8360, symBinAddr: 0x10000B20C, symSize: 0x2C }
  - { offsetInCU: 0x14DAC, offset: 0x1F295, size: 0x8, addend: 0x0, symName: __ZNSt3__19allocatorIdEC2B8ue170006Ev, symObjAddr: 0x838C, symBinAddr: 0x10000B238, symSize: 0x2C }
  - { offsetInCU: 0x14DD4, offset: 0x1F2BD, size: 0x8, addend: 0x0, symName: __ZNSt3__116__non_trivial_ifILb1ENS_9allocatorIdEEEC2B8ue170006Ev, symObjAddr: 0x83B8, symBinAddr: 0x10000B264, symSize: 0x14 }
  - { offsetInCU: 0x14DFC, offset: 0x1F2E5, size: 0x8, addend: 0x0, symName: __ZNKSt3__15dequeIdNS_9allocatorIdEEE18__annotate_from_toB8ue170006EmmNS3_22__asan_annotation_typeENS3_23__asan_annotation_placeE, symObjAddr: 0x83CC, symBinAddr: 0x10000B278, symSize: 0x580 }
  - { offsetInCU: 0x14FB8, offset: 0x1F4A1, size: 0x8, addend: 0x0, symName: __ZNKSt3__114__split_bufferIPdNS_9allocatorIS1_EEE4sizeB8ue170006Ev, symObjAddr: 0x894C, symBinAddr: 0x10000B7F8, symSize: 0x28 }
  - { offsetInCU: 0x14FDC, offset: 0x1F4C5, size: 0x8, addend: 0x0, symName: __ZNKSt3__114__split_bufferIPdNS_9allocatorIS1_EEE5beginB8ue170006Ev, symObjAddr: 0x8974, symBinAddr: 0x10000B820, symSize: 0x18 }
  - { offsetInCU: 0x15000, offset: 0x1F4E9, size: 0x8, addend: 0x0, symName: __ZNKSt3__15dequeIdNS_9allocatorIdEEE5emptyB8ue170006Ev, symObjAddr: 0x898C, symBinAddr: 0x10000B838, symSize: 0x30 }
  - { offsetInCU: 0x15024, offset: 0x1F50D, size: 0x8, addend: 0x0, symName: __ZNKSt3__15dequeIdNS_9allocatorIdEEE44__annotate_double_ended_contiguous_containerB8ue170006EPKvS5_S5_S5_S5_S5_, symObjAddr: 0x89D0, symBinAddr: 0x10000B87C, symSize: 0x28 }
  - { offsetInCU: 0x15090, offset: 0x1F579, size: 0x8, addend: 0x0, symName: __ZNSt3__114__split_bufferIPdNS_9allocatorIS1_EEED2Ev, symObjAddr: 0x89F8, symBinAddr: 0x10000B8A4, symSize: 0x80 }
  - { offsetInCU: 0x150BB, offset: 0x1F5A4, size: 0x8, addend: 0x0, symName: __ZNSt3__114__split_bufferIPdNS_9allocatorIS1_EEE5clearB8ue170006Ev, symObjAddr: 0x8A78, symBinAddr: 0x10000B924, symSize: 0x28 }
  - { offsetInCU: 0x150DF, offset: 0x1F5C8, size: 0x8, addend: 0x0, symName: __ZNSt3__116allocator_traitsINS_9allocatorIPdEEE10deallocateB8ue170006ERS3_PS2_m, symObjAddr: 0x8AA0, symBinAddr: 0x10000B94C, symSize: 0x34 }
  - { offsetInCU: 0x15120, offset: 0x1F609, size: 0x8, addend: 0x0, symName: __ZNSt3__114__split_bufferIPdNS_9allocatorIS1_EEE7__allocB8ue170006Ev, symObjAddr: 0x8AD4, symBinAddr: 0x10000B980, symSize: 0x28 }
  - { offsetInCU: 0x15144, offset: 0x1F62D, size: 0x8, addend: 0x0, symName: __ZNKSt3__114__split_bufferIPdNS_9allocatorIS1_EEE8capacityB8ue170006Ev, symObjAddr: 0x8AFC, symBinAddr: 0x10000B9A8, symSize: 0x40 }
  - { offsetInCU: 0x15168, offset: 0x1F651, size: 0x8, addend: 0x0, symName: __ZNSt3__114__split_bufferIPdNS_9allocatorIS1_EEE17__destruct_at_endB8ue170006EPS1_, symObjAddr: 0x8B3C, symBinAddr: 0x10000B9E8, symSize: 0x2C }
  - { offsetInCU: 0x1519A, offset: 0x1F683, size: 0x8, addend: 0x0, symName: __ZNSt3__114__split_bufferIPdNS_9allocatorIS1_EEE17__destruct_at_endB8ue170006EPS1_NS_17integral_constantIbLb0EEE, symObjAddr: 0x8B68, symBinAddr: 0x10000BA14, symSize: 0x94 }
  - { offsetInCU: 0x151D8, offset: 0x1F6C1, size: 0x8, addend: 0x0, symName: __ZNSt3__116allocator_traitsINS_9allocatorIPdEEE7destroyB8ue170006IS2_vEEvRS3_PT_, symObjAddr: 0x8BFC, symBinAddr: 0x10000BAA8, symSize: 0x2C }
  - { offsetInCU: 0x15215, offset: 0x1F6FE, size: 0x8, addend: 0x0, symName: __ZNSt3__19allocatorIPdE7destroyB8ue170006EPS1_, symObjAddr: 0x8C3C, symBinAddr: 0x10000BAE8, symSize: 0x14 }
  - { offsetInCU: 0x15247, offset: 0x1F730, size: 0x8, addend: 0x0, symName: __ZNSt3__19allocatorIPdE10deallocateB8ue170006EPS1_m, symObjAddr: 0x8C50, symBinAddr: 0x10000BAFC, symSize: 0x70 }
  - { offsetInCU: 0x15287, offset: 0x1F770, size: 0x8, addend: 0x0, symName: __ZNSt3__117__compressed_pairIPPdNS_9allocatorIS1_EEE6secondB8ue170006Ev, symObjAddr: 0x8CC0, symBinAddr: 0x10000BB6C, symSize: 0x24 }
  - { offsetInCU: 0x152AB, offset: 0x1F794, size: 0x8, addend: 0x0, symName: __ZNSt3__122__compressed_pair_elemINS_9allocatorIPdEELi1ELb1EE5__getB8ue170006Ev, symObjAddr: 0x8CE4, symBinAddr: 0x10000BB90, symSize: 0x14 }
  - { offsetInCU: 0x152CF, offset: 0x1F7B8, size: 0x8, addend: 0x0, symName: __ZNKSt3__114__split_bufferIPdNS_9allocatorIS1_EEE9__end_capB8ue170006Ev, symObjAddr: 0x8CF8, symBinAddr: 0x10000BBA4, symSize: 0x28 }
  - { offsetInCU: 0x152F3, offset: 0x1F7DC, size: 0x8, addend: 0x0, symName: __ZNKSt3__117__compressed_pairIPPdNS_9allocatorIS1_EEE5firstB8ue170006Ev, symObjAddr: 0x8D20, symBinAddr: 0x10000BBCC, symSize: 0x24 }
  - { offsetInCU: 0x15317, offset: 0x1F800, size: 0x8, addend: 0x0, symName: __ZNKSt3__122__compressed_pair_elemIPPdLi0ELb0EE5__getB8ue170006Ev, symObjAddr: 0x8D44, symBinAddr: 0x10000BBF0, symSize: 0x14 }
  - { offsetInCU: 0x1533B, offset: 0x1F824, size: 0x8, addend: 0x0, symName: __ZNSt3__15dequeIdNS_9allocatorIdEEED2B8ue170006Ev, symObjAddr: 0x8D58, symBinAddr: 0x10000BC04, symSize: 0xA4 }
  - { offsetInCU: 0x15390, offset: 0x1F879, size: 0x8, addend: 0x0, symName: __ZNSt3__15dequeIdNS_9allocatorIdEEE5clearEv, symObjAddr: 0x8DFC, symBinAddr: 0x10000BCA8, symSize: 0x194 }
  - { offsetInCU: 0x153F2, offset: 0x1F8DB, size: 0x8, addend: 0x0, symName: __ZNKSt3__15dequeIdNS_9allocatorIdEEE17__annotate_deleteB8ue170006Ev, symObjAddr: 0x8F90, symBinAddr: 0x10000BE3C, symSize: 0xE8 }
  - { offsetInCU: 0x15434, offset: 0x1F91D, size: 0x8, addend: 0x0, symName: __ZNSt3__114__split_bufferIPdNS_9allocatorIS1_EEE5beginB8ue170006Ev, symObjAddr: 0x9078, symBinAddr: 0x10000BF24, symSize: 0x18 }
  - { offsetInCU: 0x15458, offset: 0x1F941, size: 0x8, addend: 0x0, symName: __ZNSt3__114__split_bufferIPdNS_9allocatorIS1_EEE3endB8ue170006Ev, symObjAddr: 0x9090, symBinAddr: 0x10000BF3C, symSize: 0x18 }
  - { offsetInCU: 0x1547C, offset: 0x1F965, size: 0x8, addend: 0x0, symName: __ZNSt3__116allocator_traitsINS_9allocatorIdEEE10deallocateB8ue170006ERS2_Pdm, symObjAddr: 0x90A8, symBinAddr: 0x10000BF54, symSize: 0x34 }
  - { offsetInCU: 0x154BD, offset: 0x1F9A6, size: 0x8, addend: 0x0, symName: __ZNSt3__15dequeIdNS_9allocatorIdEEE7__allocB8ue170006Ev, symObjAddr: 0x90DC, symBinAddr: 0x10000BF88, symSize: 0x28 }
  - { offsetInCU: 0x154E1, offset: 0x1F9CA, size: 0x8, addend: 0x0, symName: __ZNSt3__116allocator_traitsINS_9allocatorIdEEE7destroyB8ue170006IdvEEvRS2_PT_, symObjAddr: 0x9138, symBinAddr: 0x10000BFE4, symSize: 0x2C }
  - { offsetInCU: 0x1551E, offset: 0x1FA07, size: 0x8, addend: 0x0, symName: __ZNKSt3__116__deque_iteratorIdPdRdPS1_lLl512EEdeB8ue170006Ev, symObjAddr: 0x9164, symBinAddr: 0x10000C010, symSize: 0x18 }
  - { offsetInCU: 0x15542, offset: 0x1FA2B, size: 0x8, addend: 0x0, symName: __ZNSt3__116__deque_iteratorIdPdRdPS1_lLl512EEppB8ue170006Ev, symObjAddr: 0x917C, symBinAddr: 0x10000C028, symSize: 0x70 }
  - { offsetInCU: 0x15566, offset: 0x1FA4F, size: 0x8, addend: 0x0, symName: __ZNSt3__15dequeIdNS_9allocatorIdEEE6__sizeB8ue170006Ev, symObjAddr: 0x91EC, symBinAddr: 0x10000C098, symSize: 0x28 }
  - { offsetInCU: 0x1558A, offset: 0x1FA73, size: 0x8, addend: 0x0, symName: __ZNSt3__114__split_bufferIPdNS_9allocatorIS1_EEE5frontB8ue170006Ev, symObjAddr: 0x9214, symBinAddr: 0x10000C0C0, symSize: 0x18 }
  - { offsetInCU: 0x155AE, offset: 0x1FA97, size: 0x8, addend: 0x0, symName: __ZNSt3__114__split_bufferIPdNS_9allocatorIS1_EEE9pop_frontB8ue170006Ev, symObjAddr: 0x922C, symBinAddr: 0x10000C0D8, symSize: 0x2C }
  - { offsetInCU: 0x155D2, offset: 0x1FABB, size: 0x8, addend: 0x0, symName: __ZNSt3__19allocatorIdE7destroyB8ue170006EPd, symObjAddr: 0x9288, symBinAddr: 0x10000C134, symSize: 0x14 }
  - { offsetInCU: 0x15604, offset: 0x1FAED, size: 0x8, addend: 0x0, symName: __ZNSt3__117__compressed_pairImNS_9allocatorIdEEE5firstB8ue170006Ev, symObjAddr: 0x929C, symBinAddr: 0x10000C148, symSize: 0x24 }
  - { offsetInCU: 0x15628, offset: 0x1FB11, size: 0x8, addend: 0x0, symName: __ZNSt3__114__split_bufferIPdNS_9allocatorIS1_EEE19__destruct_at_beginB8ue170006EPS1_, symObjAddr: 0x92C0, symBinAddr: 0x10000C16C, symSize: 0x2C }
  - { offsetInCU: 0x1565A, offset: 0x1FB43, size: 0x8, addend: 0x0, symName: __ZNSt3__114__split_bufferIPdNS_9allocatorIS1_EEE19__destruct_at_beginEPS1_NS_17integral_constantIbLb1EEE, symObjAddr: 0x92EC, symBinAddr: 0x10000C198, symSize: 0x20 }
  - { offsetInCU: 0x15698, offset: 0x1FB81, size: 0x8, addend: 0x0, symName: __ZNKSt3__15dequeIdNS_9allocatorIdEEE22__annotate_whole_blockB8ue170006EmNS3_22__asan_annotation_typeE, symObjAddr: 0x930C, symBinAddr: 0x10000C1B8, symSize: 0xAC }
  - { offsetInCU: 0x15707, offset: 0x1FBF0, size: 0x8, addend: 0x0, symName: __ZNKSt3__15dequeIdNS_9allocatorIdEEE23__annotate_poison_blockB8ue170006EPKvS5_, symObjAddr: 0x93B8, symBinAddr: 0x10000C264, symSize: 0x44 }
  - { offsetInCU: 0x15749, offset: 0x1FC32, size: 0x8, addend: 0x0, symName: __ZNSt3__19allocatorIdE10deallocateB8ue170006EPdm, symObjAddr: 0x93FC, symBinAddr: 0x10000C2A8, symSize: 0x70 }
  - { offsetInCU: 0x15789, offset: 0x1FC72, size: 0x8, addend: 0x0, symName: __ZNSt3__117__compressed_pairImNS_9allocatorIdEEE6secondB8ue170006Ev, symObjAddr: 0x946C, symBinAddr: 0x10000C318, symSize: 0x24 }
  - { offsetInCU: 0x157AD, offset: 0x1FC96, size: 0x8, addend: 0x0, symName: __ZNSt3__122__compressed_pair_elemINS_9allocatorIdEELi1ELb1EE5__getB8ue170006Ev, symObjAddr: 0x9490, symBinAddr: 0x10000C33C, symSize: 0x14 }
  - { offsetInCU: 0x157D1, offset: 0x1FCBA, size: 0x8, addend: 0x0, symName: __ZNKSt3__15dequeIdNS_9allocatorIdEEE12__back_spareB8ue170006Ev, symObjAddr: 0x94A4, symBinAddr: 0x10000C350, symSize: 0x54 }
  - { offsetInCU: 0x157F5, offset: 0x1FCDE, size: 0x8, addend: 0x0, symName: __ZNSt3__15dequeIdNS_9allocatorIdEEE19__add_back_capacityEv, symObjAddr: 0x94F8, symBinAddr: 0x10000C3A4, symSize: 0x364 }
  - { offsetInCU: 0x158AB, offset: 0x1FD94, size: 0x8, addend: 0x0, symName: __ZNKSt3__15dequeIdNS_9allocatorIdEEE24__annotate_increase_backB8ue170006Em, symObjAddr: 0x985C, symBinAddr: 0x10000C708, symSize: 0x7C }
  - { offsetInCU: 0x158DE, offset: 0x1FDC7, size: 0x8, addend: 0x0, symName: __ZNSt3__116allocator_traitsINS_9allocatorIdEEE9constructB8ue170006IdJRKdEvEEvRS2_PT_DpOT0_, symObjAddr: 0x98D8, symBinAddr: 0x10000C784, symSize: 0x34 }
  - { offsetInCU: 0x15935, offset: 0x1FE1E, size: 0x8, addend: 0x0, symName: __ZNKSt3__15dequeIdNS_9allocatorIdEEE10__capacityB8ue170006Ev, symObjAddr: 0x990C, symBinAddr: 0x10000C7B8, symSize: 0x60 }
  - { offsetInCU: 0x15959, offset: 0x1FE42, size: 0x8, addend: 0x0, symName: __ZNKSt3__15dequeIdNS_9allocatorIdEEE13__front_spareB8ue170006Ev, symObjAddr: 0x996C, symBinAddr: 0x10000C818, symSize: 0x18 }
  - { offsetInCU: 0x1597D, offset: 0x1FE66, size: 0x8, addend: 0x0, symName: __ZNSt3__114__split_bufferIPdNS_9allocatorIS1_EEE9push_backB8ue170006ERKS1_, symObjAddr: 0x9984, symBinAddr: 0x10000C830, symSize: 0x270 }
  - { offsetInCU: 0x159F4, offset: 0x1FEDD, size: 0x8, addend: 0x0, symName: __ZNKSt3__114__split_bufferIPdNS_9allocatorIS1_EEE12__back_spareB8ue170006Ev, symObjAddr: 0x9BF4, symBinAddr: 0x10000CAA0, symSize: 0x40 }
  - { offsetInCU: 0x15A18, offset: 0x1FF01, size: 0x8, addend: 0x0, symName: __ZNSt3__114__split_bufferIPdNS_9allocatorIS1_EEE9push_backEOS1_, symObjAddr: 0x9C34, symBinAddr: 0x10000CAE0, symSize: 0x270 }
  - { offsetInCU: 0x15A8F, offset: 0x1FF78, size: 0x8, addend: 0x0, symName: __ZNSt3__116allocator_traitsINS_9allocatorIdEEE8allocateB8ue170006ERS2_m, symObjAddr: 0x9EA4, symBinAddr: 0x10000CD50, symSize: 0x2C }
  - { offsetInCU: 0x15AC1, offset: 0x1FFAA, size: 0x8, addend: 0x0, symName: __ZNSt3__114__split_bufferIPdNS_9allocatorIS1_EEE10push_frontEOS1_, symObjAddr: 0x9ED0, symBinAddr: 0x10000CD7C, symSize: 0x26C }
  - { offsetInCU: 0x15B38, offset: 0x20021, size: 0x8, addend: 0x0, symName: __ZNSt3__114__split_bufferIPdRNS_9allocatorIS1_EEEC1EmmS4_, symObjAddr: 0xA13C, symBinAddr: 0x10000CFE8, symSize: 0x44 }
  - { offsetInCU: 0x15B92, offset: 0x2007B, size: 0x8, addend: 0x0, symName: __ZNSt3__122__allocator_destructorINS_9allocatorIdEEEC1B8ue170006ERS2_m, symObjAddr: 0xA180, symBinAddr: 0x10000D02C, symSize: 0x3C }
  - { offsetInCU: 0x15C58, offset: 0x20141, size: 0x8, addend: 0x0, symName: __ZNSt3__110unique_ptrIPdNS_22__allocator_destructorINS_9allocatorIdEEEEEC1B8ue170006ILb1EvEES1_NS_16__dependent_typeINS_27__unique_ptr_deleter_sfinaeIS5_EEXT_EE20__good_rval_ref_typeE, symObjAddr: 0xA1BC, symBinAddr: 0x10000D068, symSize: 0x3C }
  - { offsetInCU: 0x15CA8, offset: 0x20191, size: 0x8, addend: 0x0, symName: __ZNSt3__114__split_bufferIPdRNS_9allocatorIS1_EEE9push_backEOS1_, symObjAddr: 0xA1F8, symBinAddr: 0x10000D0A4, symSize: 0x270 }
  - { offsetInCU: 0x15D1F, offset: 0x20208, size: 0x8, addend: 0x0, symName: __ZNKSt3__110unique_ptrIPdNS_22__allocator_destructorINS_9allocatorIdEEEEE3getB8ue170006Ev, symObjAddr: 0xA468, symBinAddr: 0x10000D314, symSize: 0x28 }
  - { offsetInCU: 0x15D43, offset: 0x2022C, size: 0x8, addend: 0x0, symName: __ZNSt3__110unique_ptrIPdNS_22__allocator_destructorINS_9allocatorIdEEEEE7releaseB8ue170006Ev, symObjAddr: 0xA490, symBinAddr: 0x10000D33C, symSize: 0x44 }
  - { offsetInCU: 0x15D76, offset: 0x2025F, size: 0x8, addend: 0x0, symName: __ZNSt3__114__split_bufferIPdRNS_9allocatorIS1_EEE10push_frontERKS1_, symObjAddr: 0xA4D4, symBinAddr: 0x10000D380, symSize: 0x26C }
  - { offsetInCU: 0x15DED, offset: 0x202D6, size: 0x8, addend: 0x0, symName: __ZNSt3__114__split_bufferIPdNS_9allocatorIS1_EEE9__end_capB8ue170006Ev, symObjAddr: 0xA77C, symBinAddr: 0x10000D628, symSize: 0x28 }
  - { offsetInCU: 0x15E11, offset: 0x202FA, size: 0x8, addend: 0x0, symName: __ZNSt3__114__split_bufferIPdRNS_9allocatorIS1_EEE9__end_capB8ue170006Ev, symObjAddr: 0xA7A4, symBinAddr: 0x10000D650, symSize: 0x28 }
  - { offsetInCU: 0x15E35, offset: 0x2031E, size: 0x8, addend: 0x0, symName: __ZNSt3__110unique_ptrIPdNS_22__allocator_destructorINS_9allocatorIdEEEEED1B8ue170006Ev, symObjAddr: 0xA7CC, symBinAddr: 0x10000D678, symSize: 0x2C }
  - { offsetInCU: 0x15E5D, offset: 0x20346, size: 0x8, addend: 0x0, symName: __ZNSt3__114__split_bufferIPdRNS_9allocatorIS1_EEED1Ev, symObjAddr: 0xA7F8, symBinAddr: 0x10000D6A4, symSize: 0x2C }
  - { offsetInCU: 0x15E88, offset: 0x20371, size: 0x8, addend: 0x0, symName: __ZNSt3__114__split_bufferIPdRNS_9allocatorIS1_EEE18__construct_at_endINS_13move_iteratorIPS1_EEEENS_9enable_ifIXsr31__has_forward_iterator_categoryIT_EE5valueEvE4typeESB_SB_, symObjAddr: 0xA864, symBinAddr: 0x10000D710, symSize: 0x60 }
  - { offsetInCU: 0x15ED3, offset: 0x203BC, size: 0x8, addend: 0x0, symName: __ZNSt3__113move_iteratorIPPdEC1B8ue170006ES2_, symObjAddr: 0xA8C4, symBinAddr: 0x10000D770, symSize: 0x34 }
  - { offsetInCU: 0x15F09, offset: 0x203F2, size: 0x8, addend: 0x0, symName: __ZNSt3__116allocator_traitsINS_9allocatorIPdEEE9constructB8ue170006IS2_JRKS2_EvEEvRS3_PT_DpOT0_, symObjAddr: 0xA8F8, symBinAddr: 0x10000D7A4, symSize: 0x34 }
  - { offsetInCU: 0x15F83, offset: 0x2046C, size: 0x8, addend: 0x0, symName: __ZNKSt3__114__move_trivialclB8ue170006IPdS2_Li0EEENS_4pairIPT_PT0_EES5_S5_S7_, symObjAddr: 0xAAC8, symBinAddr: 0x10000D974, symSize: 0x48 }
  - { offsetInCU: 0x15FEA, offset: 0x204D3, size: 0x8, addend: 0x0, symName: __ZNSt3__14pairIPPdS2_EC1B8ue170006ERKS2_S5_, symObjAddr: 0xAD40, symBinAddr: 0x10000DBEC, symSize: 0x3C }
  - { offsetInCU: 0x1602E, offset: 0x20517, size: 0x8, addend: 0x0, symName: __ZNSt3__14pairIPPdS2_EC2B8ue170006ERKS2_S5_, symObjAddr: 0xAD7C, symBinAddr: 0x10000DC28, symSize: 0x34 }
  - { offsetInCU: 0x16072, offset: 0x2055B, size: 0x8, addend: 0x0, symName: __ZNSt3__118__unwrap_iter_implIPPdLb1EE8__unwrapB8ue170006ES2_, symObjAddr: 0xADB0, symBinAddr: 0x10000DC5C, symSize: 0x24 }
  - { offsetInCU: 0x16094, offset: 0x2057D, size: 0x8, addend: 0x0, symName: __ZNSt3__118__unwrap_iter_implIPPdLb1EE8__rewrapB8ue170006ES2_S2_, symObjAddr: 0xADD4, symBinAddr: 0x10000DC80, symSize: 0x50 }
  - { offsetInCU: 0x160C4, offset: 0x205AD, size: 0x8, addend: 0x0, symName: __ZNSt3__114__split_bufferIPdRNS_9allocatorIS1_EEE28__construct_at_end_with_sizeINS_13move_iteratorIPS1_EEEEvT_m, symObjAddr: 0xAE24, symBinAddr: 0x10000DCD0, symSize: 0xE4 }
  - { offsetInCU: 0x16128, offset: 0x20611, size: 0x8, addend: 0x0, symName: __ZNSt3__114__split_bufferIPdRNS_9allocatorIS1_EEE21_ConstructTransactionC1B8ue170006EPPS1_m, symObjAddr: 0xAF44, symBinAddr: 0x10000DDF0, symSize: 0x3C }
  - { offsetInCU: 0x1616C, offset: 0x20655, size: 0x8, addend: 0x0, symName: __ZNSt3__116allocator_traitsINS_9allocatorIPdEEE9constructB8ue170006IS2_JS2_EvEEvRS3_PT_DpOT0_, symObjAddr: 0xAF80, symBinAddr: 0x10000DE2C, symSize: 0x34 }
  - { offsetInCU: 0x161C3, offset: 0x206AC, size: 0x8, addend: 0x0, symName: __ZNSt3__114__split_bufferIPdRNS_9allocatorIS1_EEE7__allocB8ue170006Ev, symObjAddr: 0xAFB4, symBinAddr: 0x10000DE60, symSize: 0x28 }
  - { offsetInCU: 0x161E7, offset: 0x206D0, size: 0x8, addend: 0x0, symName: __ZNKSt3__113move_iteratorIPPdEdeB8ue170006Ev, symObjAddr: 0xAFDC, symBinAddr: 0x10000DE88, symSize: 0x18 }
  - { offsetInCU: 0x1620B, offset: 0x206F4, size: 0x8, addend: 0x0, symName: __ZNSt3__113move_iteratorIPPdEppB8ue170006Ev, symObjAddr: 0xAFF4, symBinAddr: 0x10000DEA0, symSize: 0x20 }
  - { offsetInCU: 0x1622F, offset: 0x20718, size: 0x8, addend: 0x0, symName: __ZNSt3__114__split_bufferIPdRNS_9allocatorIS1_EEE21_ConstructTransactionD1B8ue170006Ev, symObjAddr: 0xB014, symBinAddr: 0x10000DEC0, symSize: 0x2C }
  - { offsetInCU: 0x16257, offset: 0x20740, size: 0x8, addend: 0x0, symName: __ZNSt3__114__split_bufferIPdRNS_9allocatorIS1_EEE21_ConstructTransactionC2B8ue170006EPPS1_m, symObjAddr: 0xB040, symBinAddr: 0x10000DEEC, symSize: 0x44 }
  - { offsetInCU: 0x1629B, offset: 0x20784, size: 0x8, addend: 0x0, symName: __ZNSt3__19allocatorIPdE9constructB8ue170006IS1_JS1_EEEvPT_DpOT0_, symObjAddr: 0xB084, symBinAddr: 0x10000DF30, symSize: 0x28 }
  - { offsetInCU: 0x162EF, offset: 0x207D8, size: 0x8, addend: 0x0, symName: __ZNSt3__117__compressed_pairIPPdRNS_9allocatorIS1_EEE6secondB8ue170006Ev, symObjAddr: 0xB0AC, symBinAddr: 0x10000DF58, symSize: 0x28 }
  - { offsetInCU: 0x16313, offset: 0x207FC, size: 0x8, addend: 0x0, symName: __ZNSt3__122__compressed_pair_elemIRNS_9allocatorIPdEELi1ELb0EE5__getB8ue170006Ev, symObjAddr: 0xB0D4, symBinAddr: 0x10000DF80, symSize: 0x18 }
  - { offsetInCU: 0x16337, offset: 0x20820, size: 0x8, addend: 0x0, symName: __ZNSt3__114__split_bufferIPdRNS_9allocatorIS1_EEE21_ConstructTransactionD2B8ue170006Ev, symObjAddr: 0xB0EC, symBinAddr: 0x10000DF98, symSize: 0x20 }
  - { offsetInCU: 0x1635F, offset: 0x20848, size: 0x8, addend: 0x0, symName: __ZNKSt3__113move_iteratorIPPdE4baseB8ue170006Ev, symObjAddr: 0xB184, symBinAddr: 0x10000E030, symSize: 0x18 }
  - { offsetInCU: 0x16383, offset: 0x2086C, size: 0x8, addend: 0x0, symName: __ZNSt3__113move_iteratorIPPdEC2B8ue170006ES2_, symObjAddr: 0xB19C, symBinAddr: 0x10000E048, symSize: 0x20 }
  - { offsetInCU: 0x163B9, offset: 0x208A2, size: 0x8, addend: 0x0, symName: __ZNSt3__19allocatorIPdE9constructB8ue170006IS1_JRKS1_EEEvPT_DpOT0_, symObjAddr: 0xB1BC, symBinAddr: 0x10000E068, symSize: 0x28 }
  - { offsetInCU: 0x1640D, offset: 0x208F6, size: 0x8, addend: 0x0, symName: __ZNSt3__19allocatorIdE8allocateB8ue170006Em, symObjAddr: 0xB1E4, symBinAddr: 0x10000E090, symSize: 0x84 }
  - { offsetInCU: 0x16449, offset: 0x20932, size: 0x8, addend: 0x0, symName: __ZNSt3__116allocator_traitsINS_9allocatorIdEEE8max_sizeB8ue170006IS2_vEEmRKS2_, symObjAddr: 0xB268, symBinAddr: 0x10000E114, symSize: 0x24 }
  - { offsetInCU: 0x16477, offset: 0x20960, size: 0x8, addend: 0x0, symName: __ZNKSt3__19allocatorIdE8max_sizeB8ue170006Ev, symObjAddr: 0xB28C, symBinAddr: 0x10000E138, symSize: 0x14 }
  - { offsetInCU: 0x164A5, offset: 0x2098E, size: 0x8, addend: 0x0, symName: __ZNKSt3__123__move_backward_trivialclB8ue170006IPdS2_Li0EEENS_4pairIPT_PT0_EES5_S5_S7_, symObjAddr: 0xB41C, symBinAddr: 0x10000E2C8, symSize: 0x48 }
  - { offsetInCU: 0x1650C, offset: 0x209F5, size: 0x8, addend: 0x0, symName: __ZNSt3__114__split_bufferIPdRNS_9allocatorIS1_EEEC2EmmS4_, symObjAddr: 0xB52C, symBinAddr: 0x10000E3D8, symSize: 0xD4 }
  - { offsetInCU: 0x1657F, offset: 0x20A68, size: 0x8, addend: 0x0, symName: __ZNSt3__117__compressed_pairIPPdRNS_9allocatorIS1_EEEC1B8ue170006IDnS5_EEOT_OT0_, symObjAddr: 0xB600, symBinAddr: 0x10000E4AC, symSize: 0x3C }
  - { offsetInCU: 0x165D5, offset: 0x20ABE, size: 0x8, addend: 0x0, symName: __ZNSt3__117__compressed_pairIPPdRNS_9allocatorIS1_EEEC2B8ue170006IDnS5_EEOT_OT0_, symObjAddr: 0xB67C, symBinAddr: 0x10000E528, symSize: 0x48 }
  - { offsetInCU: 0x1662B, offset: 0x20B14, size: 0x8, addend: 0x0, symName: __ZNSt3__122__compressed_pair_elemIRNS_9allocatorIPdEELi1ELb0EEC2B8ue170006IS4_vEEOT_, symObjAddr: 0xB6C4, symBinAddr: 0x10000E570, symSize: 0x20 }
  - { offsetInCU: 0x1666C, offset: 0x20B55, size: 0x8, addend: 0x0, symName: __ZNSt3__19allocatorIPdE8allocateB8ue170006Em, symObjAddr: 0xB6E4, symBinAddr: 0x10000E590, symSize: 0x84 }
  - { offsetInCU: 0x166A8, offset: 0x20B91, size: 0x8, addend: 0x0, symName: __ZNSt3__116allocator_traitsINS_9allocatorIPdEEE8max_sizeB8ue170006IS3_vEEmRKS3_, symObjAddr: 0xB768, symBinAddr: 0x10000E614, symSize: 0x24 }
  - { offsetInCU: 0x166D6, offset: 0x20BBF, size: 0x8, addend: 0x0, symName: __ZNKSt3__19allocatorIPdE8max_sizeB8ue170006Ev, symObjAddr: 0xB78C, symBinAddr: 0x10000E638, symSize: 0x14 }
  - { offsetInCU: 0x166FA, offset: 0x20BE3, size: 0x8, addend: 0x0, symName: __ZNSt3__122__allocator_destructorINS_9allocatorIdEEEC2B8ue170006ERS2_m, symObjAddr: 0xB7A0, symBinAddr: 0x10000E64C, symSize: 0x2C }
  - { offsetInCU: 0x1673E, offset: 0x20C27, size: 0x8, addend: 0x0, symName: __ZNSt3__110unique_ptrIPdNS_22__allocator_destructorINS_9allocatorIdEEEEEC2B8ue170006ILb1EvEES1_NS_16__dependent_typeINS_27__unique_ptr_deleter_sfinaeIS5_EEXT_EE20__good_rval_ref_typeE, symObjAddr: 0xB7CC, symBinAddr: 0x10000E678, symSize: 0x5C }
  - { offsetInCU: 0x1678E, offset: 0x20C77, size: 0x8, addend: 0x0, symName: __ZNSt3__117__compressed_pairIPdNS_22__allocator_destructorINS_9allocatorIdEEEEEC1B8ue170006IRS1_S5_EEOT_OT0_, symObjAddr: 0xB828, symBinAddr: 0x10000E6D4, symSize: 0x3C }
  - { offsetInCU: 0x167E4, offset: 0x20CCD, size: 0x8, addend: 0x0, symName: __ZNSt3__117__compressed_pairIPdNS_22__allocator_destructorINS_9allocatorIdEEEEEC2B8ue170006IRS1_S5_EEOT_OT0_, symObjAddr: 0xB864, symBinAddr: 0x10000E710, symSize: 0x48 }
  - { offsetInCU: 0x1683A, offset: 0x20D23, size: 0x8, addend: 0x0, symName: __ZNSt3__122__compressed_pair_elemIPdLi0ELb0EEC2B8ue170006IRS1_vEEOT_, symObjAddr: 0xB8AC, symBinAddr: 0x10000E758, symSize: 0x24 }
  - { offsetInCU: 0x1687B, offset: 0x20D64, size: 0x8, addend: 0x0, symName: __ZNSt3__122__compressed_pair_elemINS_22__allocator_destructorINS_9allocatorIdEEEELi1ELb0EEC2B8ue170006IS4_vEEOT_, symObjAddr: 0xB8D0, symBinAddr: 0x10000E77C, symSize: 0x24 }
  - { offsetInCU: 0x168BC, offset: 0x20DA5, size: 0x8, addend: 0x0, symName: __ZNKSt3__117__compressed_pairIPdNS_22__allocator_destructorINS_9allocatorIdEEEEE5firstB8ue170006Ev, symObjAddr: 0xB8F4, symBinAddr: 0x10000E7A0, symSize: 0x24 }
  - { offsetInCU: 0x168E0, offset: 0x20DC9, size: 0x8, addend: 0x0, symName: __ZNKSt3__122__compressed_pair_elemIPdLi0ELb0EE5__getB8ue170006Ev, symObjAddr: 0xB918, symBinAddr: 0x10000E7C4, symSize: 0x14 }
  - { offsetInCU: 0x16904, offset: 0x20DED, size: 0x8, addend: 0x0, symName: __ZNSt3__117__compressed_pairIPdNS_22__allocator_destructorINS_9allocatorIdEEEEE5firstB8ue170006Ev, symObjAddr: 0xB92C, symBinAddr: 0x10000E7D8, symSize: 0x24 }
  - { offsetInCU: 0x16928, offset: 0x20E11, size: 0x8, addend: 0x0, symName: __ZNSt3__122__compressed_pair_elemIPdLi0ELb0EE5__getB8ue170006Ev, symObjAddr: 0xB950, symBinAddr: 0x10000E7FC, symSize: 0x14 }
  - { offsetInCU: 0x1694C, offset: 0x20E35, size: 0x8, addend: 0x0, symName: __ZNSt3__117__compressed_pairIPPdNS_9allocatorIS1_EEE5firstB8ue170006Ev, symObjAddr: 0xB964, symBinAddr: 0x10000E810, symSize: 0x24 }
  - { offsetInCU: 0x16970, offset: 0x20E59, size: 0x8, addend: 0x0, symName: __ZNSt3__122__compressed_pair_elemIPPdLi0ELb0EE5__getB8ue170006Ev, symObjAddr: 0xB988, symBinAddr: 0x10000E834, symSize: 0x14 }
  - { offsetInCU: 0x16994, offset: 0x20E7D, size: 0x8, addend: 0x0, symName: __ZNSt3__117__compressed_pairIPPdRNS_9allocatorIS1_EEE5firstB8ue170006Ev, symObjAddr: 0xB99C, symBinAddr: 0x10000E848, symSize: 0x24 }
  - { offsetInCU: 0x169B8, offset: 0x20EA1, size: 0x8, addend: 0x0, symName: __ZNSt3__110unique_ptrIPdNS_22__allocator_destructorINS_9allocatorIdEEEEED2B8ue170006Ev, symObjAddr: 0xB9C0, symBinAddr: 0x10000E86C, symSize: 0x30 }
  - { offsetInCU: 0x169E0, offset: 0x20EC9, size: 0x8, addend: 0x0, symName: __ZNSt3__110unique_ptrIPdNS_22__allocator_destructorINS_9allocatorIdEEEEE5resetB8ue170006ES1_, symObjAddr: 0xB9F0, symBinAddr: 0x10000E89C, symSize: 0x78 }
  - { offsetInCU: 0x16A22, offset: 0x20F0B, size: 0x8, addend: 0x0, symName: __ZNSt3__117__compressed_pairIPdNS_22__allocator_destructorINS_9allocatorIdEEEEE6secondB8ue170006Ev, symObjAddr: 0xBA68, symBinAddr: 0x10000E914, symSize: 0x28 }
  - { offsetInCU: 0x16A46, offset: 0x20F2F, size: 0x8, addend: 0x0, symName: __ZNSt3__122__allocator_destructorINS_9allocatorIdEEEclB8ue170006EPd, symObjAddr: 0xBA90, symBinAddr: 0x10000E93C, symSize: 0x34 }
  - { offsetInCU: 0x16A78, offset: 0x20F61, size: 0x8, addend: 0x0, symName: __ZNSt3__122__compressed_pair_elemINS_22__allocator_destructorINS_9allocatorIdEEEELi1ELb0EE5__getB8ue170006Ev, symObjAddr: 0xBAC4, symBinAddr: 0x10000E970, symSize: 0x14 }
  - { offsetInCU: 0x16A9C, offset: 0x20F85, size: 0x8, addend: 0x0, symName: __ZNSt3__114__split_bufferIPdRNS_9allocatorIS1_EEED2Ev, symObjAddr: 0xBAD8, symBinAddr: 0x10000E984, symSize: 0x80 }
  - { offsetInCU: 0x16AC7, offset: 0x20FB0, size: 0x8, addend: 0x0, symName: __ZNSt3__114__split_bufferIPdRNS_9allocatorIS1_EEE5clearB8ue170006Ev, symObjAddr: 0xBB58, symBinAddr: 0x10000EA04, symSize: 0x28 }
  - { offsetInCU: 0x16AEB, offset: 0x20FD4, size: 0x8, addend: 0x0, symName: __ZNKSt3__114__split_bufferIPdRNS_9allocatorIS1_EEE8capacityB8ue170006Ev, symObjAddr: 0xBB80, symBinAddr: 0x10000EA2C, symSize: 0x40 }
  - { offsetInCU: 0x16B0F, offset: 0x20FF8, size: 0x8, addend: 0x0, symName: __ZNSt3__114__split_bufferIPdRNS_9allocatorIS1_EEE17__destruct_at_endB8ue170006EPS1_, symObjAddr: 0xBBC0, symBinAddr: 0x10000EA6C, symSize: 0x2C }
  - { offsetInCU: 0x16B41, offset: 0x2102A, size: 0x8, addend: 0x0, symName: __ZNSt3__114__split_bufferIPdRNS_9allocatorIS1_EEE17__destruct_at_endB8ue170006EPS1_NS_17integral_constantIbLb0EEE, symObjAddr: 0xBBEC, symBinAddr: 0x10000EA98, symSize: 0x94 }
  - { offsetInCU: 0x16B7F, offset: 0x21068, size: 0x8, addend: 0x0, symName: __ZNKSt3__114__split_bufferIPdRNS_9allocatorIS1_EEE9__end_capB8ue170006Ev, symObjAddr: 0xBC80, symBinAddr: 0x10000EB2C, symSize: 0x28 }
  - { offsetInCU: 0x16BA3, offset: 0x2108C, size: 0x8, addend: 0x0, symName: __ZNKSt3__117__compressed_pairIPPdRNS_9allocatorIS1_EEE5firstB8ue170006Ev, symObjAddr: 0xBCA8, symBinAddr: 0x10000EB54, symSize: 0x24 }
  - { offsetInCU: 0x16BC7, offset: 0x210B0, size: 0x8, addend: 0x0, symName: __ZNSt3__19allocatorIdE9constructB8ue170006IdJRKdEEEvPT_DpOT0_, symObjAddr: 0xBCCC, symBinAddr: 0x10000EB78, symSize: 0x28 }
  - { offsetInCU: 0x16C1B, offset: 0x21104, size: 0x8, addend: 0x0, symName: __ZNKSt3__114__split_bufferIPdNS_9allocatorIS1_EEE5emptyB8ue170006Ev, symObjAddr: 0xBCF4, symBinAddr: 0x10000EBA0, symSize: 0x28 }
  - { offsetInCU: 0x16C3F, offset: 0x21128, size: 0x8, addend: 0x0, symName: __ZNSt3__116__deque_iteratorIdPdRdPS1_lLl512EEC1B8ue170006ES3_S1_, symObjAddr: 0xBD1C, symBinAddr: 0x10000EBC8, symSize: 0x3C }
  - { offsetInCU: 0x16C85, offset: 0x2116E, size: 0x8, addend: 0x0, symName: __ZNSt3__116__deque_iteratorIdPdRdPS1_lLl512EEC2B8ue170006ES3_S1_, symObjAddr: 0xBD58, symBinAddr: 0x10000EC04, symSize: 0x2C }
  - { offsetInCU: 0x16CCB, offset: 0x211B4, size: 0x8, addend: 0x0, symName: __ZNSt3__18_IterOpsINS_17_ClassicAlgPolicyEE4nextB8ue170006INS_16__deque_iteratorIdPdRdPS5_lLl512EEEEET_S9_S9_, symObjAddr: 0xC11C, symBinAddr: 0x10000EFC8, symSize: 0x2C }
  - { offsetInCU: 0x16D0A, offset: 0x211F3, size: 0x8, addend: 0x0, symName: __ZNKSt3__17greaterIdEclB8ue170006ERKdS3_, symObjAddr: 0xC474, symBinAddr: 0x10000F320, symSize: 0x34 }
  - { offsetInCU: 0x16D4C, offset: 0x21235, size: 0x8, addend: 0x0, symName: __ZNSt3__18_IterOpsINS_17_ClassicAlgPolicyEE9iter_swapB8ue170006IRNS_16__deque_iteratorIdPdRdPS5_lLl512EEES9_EEvOT_OT0_, symObjAddr: 0xC4A8, symBinAddr: 0x10000F354, symSize: 0x4C }
  - { offsetInCU: 0x16D8E, offset: 0x21277, size: 0x8, addend: 0x0, symName: __ZNKSt3__116__deque_iteratorIdPdRdPS1_lLl512EEplB8ue170006El, symObjAddr: 0xC8C8, symBinAddr: 0x10000F774, symSize: 0x40 }
  - { offsetInCU: 0x16DD0, offset: 0x212B9, size: 0x8, addend: 0x0, symName: __ZNSt3__116__deque_iteratorIdPdRdPS1_lLl512EEpLB8ue170006El, symObjAddr: 0xC908, symBinAddr: 0x10000F7B4, symSize: 0x110 }
  - { offsetInCU: 0x16E26, offset: 0x2130F, size: 0x8, addend: 0x0, symName: __ZNSt3__18_IterOpsINS_17_ClassicAlgPolicyEE11__iter_moveB8ue170006IRNS_16__deque_iteratorIdPdRdPS5_lLl512EEEEENS_9enable_ifIXsr12is_referenceIDTdeclsr3stdE7declvalIRT_EEEEE5valueEDTclsr3stdE4movedeclsr3stdE7declvalISC_EEEEE4typeEOSB_, symObjAddr: 0xCAAC, symBinAddr: 0x10000F958, symSize: 0x28 }
  - { offsetInCU: 0x16E51, offset: 0x2133A, size: 0x8, addend: 0x0, symName: __ZNSt3__18_IterOpsINS_17_ClassicAlgPolicyEE25__validate_iter_referenceB8ue170006IRNS_16__deque_iteratorIdPdRdPS5_lLl512EEEEEvv, symObjAddr: 0xCAD4, symBinAddr: 0x10000F980, symSize: 0x4 }
  - { offsetInCU: 0x16E6E, offset: 0x21357, size: 0x8, addend: 0x0, symName: __ZNSt3__116__deque_iteratorIdPdRdPS1_lLl512EEmmB8ue170006Ev, symObjAddr: 0xCC34, symBinAddr: 0x10000FAE0, symSize: 0x68 }
  - { offsetInCU: 0x16E92, offset: 0x2137B, size: 0x8, addend: 0x0, symName: __ZNSt3__118__unwrap_iter_implINS_16__deque_iteratorIdPdRdPS2_lLl512EEELb0EE8__unwrapB8ue170006ES5_, symObjAddr: 0xCF6C, symBinAddr: 0x10000FE18, symSize: 0x24 }
  - { offsetInCU: 0x16EB4, offset: 0x2139D, size: 0x8, addend: 0x0, symName: __ZNKSt3__116__deque_iteratorIdPdRdPS1_lLl512EEmiB8ue170006El, symObjAddr: 0xDFB0, symBinAddr: 0x100010E5C, symSize: 0x40 }
  - { offsetInCU: 0x16EFB, offset: 0x213E4, size: 0x8, addend: 0x0, symName: __ZNSt3__18_IterOpsINS_17_ClassicAlgPolicyEE9iter_swapB8ue170006IRNS_16__deque_iteratorIdPdRdPS5_lLl512EEES8_EEvOT_OT0_, symObjAddr: 0xDFF0, symBinAddr: 0x100010E9C, symSize: 0x4C }
  - { offsetInCU: 0x16F3D, offset: 0x21426, size: 0x8, addend: 0x0, symName: __ZNSt3__116__deque_iteratorIdPdRdPS1_lLl512EEmIB8ue170006El, symObjAddr: 0xF13C, symBinAddr: 0x100011FE8, symSize: 0x34 }
  - { offsetInCU: 0x16F70, offset: 0x21459, size: 0x8, addend: 0x0, symName: __ZNSt3__18_IterOpsINS_17_ClassicAlgPolicyEE9iter_swapB8ue170006INS_16__deque_iteratorIdPdRdPS5_lLl512EEES8_EEvOT_OT0_, symObjAddr: 0xFA1C, symBinAddr: 0x1000128C8, symSize: 0x4C }
  - { offsetInCU: 0x16FD0, offset: 0x214B9, size: 0x8, addend: 0x0, symName: __ZNSt3__14pairINS_16__deque_iteratorIdPdRdPS2_lLl512EEEbEC1B8ue170006ERKS5_RKb, symObjAddr: 0xFA84, symBinAddr: 0x100012930, symSize: 0x3C }
  - { offsetInCU: 0x17014, offset: 0x214FD, size: 0x8, addend: 0x0, symName: __ZNSt3__14pairINS_16__deque_iteratorIdPdRdPS2_lLl512EEEbEC2B8ue170006ERKS5_RKb, symObjAddr: 0xFAC0, symBinAddr: 0x10001296C, symSize: 0x38 }
  - { offsetInCU: 0x17058, offset: 0x21541, size: 0x8, addend: 0x0, symName: __ZNKSt3__15dequeIdNS_9allocatorIdEEE23__annotate_shrink_frontB8ue170006Emm, symObjAddr: 0xFAF8, symBinAddr: 0x1000129A4, symSize: 0x70 }
  - { offsetInCU: 0x1709A, offset: 0x21583, size: 0x8, addend: 0x0, symName: __ZNSt3__15dequeIdNS_9allocatorIdEEE26__maybe_remove_front_spareB8ue170006Eb, symObjAddr: 0xFB68, symBinAddr: 0x100012A14, symSize: 0xEC }
  - { offsetInCU: 0x170CD, offset: 0x215B6, size: 0x8, addend: 0x0, symName: __ZNKSt3__15dequeIdNS_9allocatorIdEEE20__front_spare_blocksB8ue170006Ev, symObjAddr: 0xFC54, symBinAddr: 0x100012B00, symSize: 0x2C }
  - { offsetInCU: 0x170F1, offset: 0x215DA, size: 0x8, addend: 0x0, symName: __ZNKSt3__15dequeIdNS_9allocatorIdEEE22__annotate_shrink_backB8ue170006Emm, symObjAddr: 0xFC80, symBinAddr: 0x100012B2C, symSize: 0x60 }
  - { offsetInCU: 0x17133, offset: 0x2161C, size: 0x8, addend: 0x0, symName: __ZNSt3__15dequeIdNS_9allocatorIdEEE25__maybe_remove_back_spareB8ue170006Eb, symObjAddr: 0xFCE0, symBinAddr: 0x100012B8C, symSize: 0xE8 }
  - { offsetInCU: 0x17166, offset: 0x2164F, size: 0x8, addend: 0x0, symName: __ZNKSt3__15dequeIdNS_9allocatorIdEEE19__back_spare_blocksB8ue170006Ev, symObjAddr: 0xFDC8, symBinAddr: 0x100012C74, symSize: 0x2C }
  - { offsetInCU: 0x1718A, offset: 0x21673, size: 0x8, addend: 0x0, symName: __ZNSt3__114__split_bufferIPdNS_9allocatorIS1_EEE4backB8ue170006Ev, symObjAddr: 0xFDF4, symBinAddr: 0x100012CA0, symSize: 0x1C }
  - { offsetInCU: 0x171AE, offset: 0x21697, size: 0x8, addend: 0x0, symName: __ZNSt3__114__split_bufferIPdNS_9allocatorIS1_EEE8pop_backB8ue170006Ev, symObjAddr: 0xFE10, symBinAddr: 0x100012CBC, symSize: 0x2C }
  - { offsetInCU: 0x171D2, offset: 0x216BB, size: 0x8, addend: 0x0, symName: __ZNKSt3__15dequeIdNS_9allocatorIdEEE6__sizeB8ue170006Ev, symObjAddr: 0xFE3C, symBinAddr: 0x100012CE8, symSize: 0x28 }
  - { offsetInCU: 0x171F6, offset: 0x216DF, size: 0x8, addend: 0x0, symName: __ZNKSt3__117__compressed_pairImNS_9allocatorIdEEE5firstB8ue170006Ev, symObjAddr: 0xFE64, symBinAddr: 0x100012D10, symSize: 0x24 }
  - { offsetInCU: 0x1721A, offset: 0x21703, size: 0x8, addend: 0x0, symName: __ZNKSt3__122__compressed_pair_elemImLi0ELb0EE5__getB8ue170006Ev, symObjAddr: 0xFE88, symBinAddr: 0x100012D34, symSize: 0x14 }
...
