---
triple:          'arm64-apple-darwin'
binary-path:     '/Users/vincentzhang/CPP Project/03 competition system based on stl/01 interface function'
relocations:
  - { offsetInCU: 0x2D97, offset: 0x2D97, size: 0x8, addend: 0x0, symName: __ZNSt3__124__put_character_sequenceB8ue170006IcNS_11char_traitsIcEEEERNS_13basic_ostreamIT_T0_EES7_PKS4_m, symObjAddr: 0x214, symBinAddr: 0x100001BE8, symSize: 0x1F4 }
  - { offsetInCU: 0x46E4, offset: 0x46E4, size: 0x8, addend: 0x0, symName: __ZNSt3__1lsB8ue170006INS_11char_traitsIcEEEERNS_13basic_ostreamIcT_EES6_PKc, symObjAddr: 0x13C, symBinAddr: 0x100001B10, symSize: 0x48 }
  - { offsetInCU: 0x472A, offset: 0x472A, size: 0x8, addend: 0x0, symName: __ZNSt3__14endlB8ue170006IcNS_11char_traitsIcEEEERNS_13basic_ostreamIT_T0_EES7_, symObjAddr: 0x1B0, symBinAddr: 0x100001B84, symSize: 0x58 }
  - { offsetInCU: 0x476A, offset: 0x476A, size: 0x8, addend: 0x0, symName: __ZNSt3__116__pad_and_outputB8ue170006IcNS_11char_traitsIcEEEENS_19ostreambuf_iteratorIT_T0_EES6_PKS4_S8_S8_RNS_8ios_baseES4_, symObjAddr: 0x46C, symBinAddr: 0x100001E40, symSize: 0x248 }
  - { offsetInCU: 0x4839, offset: 0x4839, size: 0x8, addend: 0x0, symName: __ZNSt3__112__to_addressB8ue170006IKcEEPT_S3_, symObjAddr: 0x9DC, symBinAddr: 0x1000023B0, symSize: 0x14 }
  - { offsetInCU: 0x486E, offset: 0x486E, size: 0x8, addend: 0x0, symName: __ZNSt3__130__libcpp_is_constant_evaluatedB8ue170006Ev, symObjAddr: 0xB08, symBinAddr: 0x1000024DC, symSize: 0xC }
  - { offsetInCU: 0x48BE, offset: 0x48BE, size: 0x8, addend: 0x0, symName: __ZNSt3__19use_facetB8ue170006INS_5ctypeIcEEEERKT_RKNS_6localeE, symObjAddr: 0xCC0, symBinAddr: 0x100002694, symSize: 0x2C }
  - { offsetInCU: 0x4D8B, offset: 0x4D8B, size: 0x8, addend: 0x0, symName: __ZNSt3__118__constexpr_strlenB8ue170006EPKc, symObjAddr: 0xD58, symBinAddr: 0x10000272C, symSize: 0x24 }
  - { offsetInCU: 0xAF29, offset: 0xAF29, size: 0x8, addend: 0x0, symName: _main, symObjAddr: 0x0, symBinAddr: 0x1000019D4, symSize: 0x12C }
  - { offsetInCU: 0xAF5F, offset: 0xAF5F, size: 0x8, addend: 0x0, symName: __ZNSt3__113basic_ostreamIcNS_11char_traitsIcEEElsB8ue170006EPFRS3_S4_E, symObjAddr: 0x184, symBinAddr: 0x100001B58, symSize: 0x2C }
  - { offsetInCU: 0xAF91, offset: 0xAF91, size: 0x8, addend: 0x0, symName: __ZNSt3__111char_traitsIcE6lengthB8ue170006EPKc, symObjAddr: 0x408, symBinAddr: 0x100001DDC, symSize: 0x48 }
  - { offsetInCU: 0xAFD1, offset: 0xAFD1, size: 0x8, addend: 0x0, symName: __ZNKSt3__113basic_ostreamIcNS_11char_traitsIcEEE6sentrycvbB8ue170006Ev, symObjAddr: 0x450, symBinAddr: 0x100001E24, symSize: 0x1C }
  - { offsetInCU: 0xAFF5, offset: 0xAFF5, size: 0x8, addend: 0x0, symName: __ZNSt3__119ostreambuf_iteratorIcNS_11char_traitsIcEEEC1B8ue170006ERNS_13basic_ostreamIcS2_EE, symObjAddr: 0x6B4, symBinAddr: 0x100002088, symSize: 0x34 }
  - { offsetInCU: 0xB02B, offset: 0xB02B, size: 0x8, addend: 0x0, symName: __ZNKSt3__18ios_base5flagsB8ue170006Ev, symObjAddr: 0x6E8, symBinAddr: 0x1000020BC, symSize: 0x18 }
  - { offsetInCU: 0xB051, offset: 0xB051, size: 0x8, addend: 0x0, symName: __ZNKSt3__19basic_iosIcNS_11char_traitsIcEEE4fillB8ue170006Ev, symObjAddr: 0x700, symBinAddr: 0x1000020D4, symSize: 0x64 }
  - { offsetInCU: 0xB077, offset: 0xB077, size: 0x8, addend: 0x0, symName: __ZNKSt3__119ostreambuf_iteratorIcNS_11char_traitsIcEEE6failedB8ue170006Ev, symObjAddr: 0x764, symBinAddr: 0x100002138, symSize: 0x24 }
  - { offsetInCU: 0xB09B, offset: 0xB09B, size: 0x8, addend: 0x0, symName: __ZNSt3__19basic_iosIcNS_11char_traitsIcEEE8setstateB8ue170006Ej, symObjAddr: 0x788, symBinAddr: 0x10000215C, symSize: 0x2C }
  - { offsetInCU: 0xB0CE, offset: 0xB0CE, size: 0x8, addend: 0x0, symName: __ZNKSt3__18ios_base5widthB8ue170006Ev, symObjAddr: 0x7B4, symBinAddr: 0x100002188, symSize: 0x18 }
  - { offsetInCU: 0xB0F4, offset: 0xB0F4, size: 0x8, addend: 0x0, symName: __ZNSt3__115basic_streambufIcNS_11char_traitsIcEEE5sputnB8ue170006EPKcl, symObjAddr: 0x7CC, symBinAddr: 0x1000021A0, symSize: 0x3C }
  - { offsetInCU: 0xB134, offset: 0xB134, size: 0x8, addend: 0x0, symName: __ZNSt3__112basic_stringIcNS_11char_traitsIcEENS_9allocatorIcEEEC1B8ue170006Emc, symObjAddr: 0x808, symBinAddr: 0x1000021DC, symSize: 0x3C }
  - { offsetInCU: 0xB17A, offset: 0xB17A, size: 0x8, addend: 0x0, symName: __ZNKSt3__112basic_stringIcNS_11char_traitsIcEENS_9allocatorIcEEE4dataB8ue170006Ev, symObjAddr: 0x844, symBinAddr: 0x100002218, symSize: 0x28 }
  - { offsetInCU: 0xB19E, offset: 0xB19E, size: 0x8, addend: 0x0, symName: __ZNSt3__18ios_base5widthB8ue170006El, symObjAddr: 0x86C, symBinAddr: 0x100002240, symSize: 0x2C }
  - { offsetInCU: 0xB1E2, offset: 0xB1E2, size: 0x8, addend: 0x0, symName: __ZNSt3__112basic_stringIcNS_11char_traitsIcEENS_9allocatorIcEEEC2B8ue170006Emc, symObjAddr: 0x898, symBinAddr: 0x10000226C, symSize: 0x4C }
  - { offsetInCU: 0xB22D, offset: 0xB22D, size: 0x8, addend: 0x0, symName: __ZNSt3__117__compressed_pairINS_12basic_stringIcNS_11char_traitsIcEENS_9allocatorIcEEE5__repES5_EC1B8ue170006INS_18__default_init_tagESA_EEOT_OT0_, symObjAddr: 0x8E4, symBinAddr: 0x1000022B8, symSize: 0x3C }
  - { offsetInCU: 0xB283, offset: 0xB283, size: 0x8, addend: 0x0, symName: __ZNSt3__117__compressed_pairINS_12basic_stringIcNS_11char_traitsIcEENS_9allocatorIcEEE5__repES5_EC2B8ue170006INS_18__default_init_tagESA_EEOT_OT0_, symObjAddr: 0x920, symBinAddr: 0x1000022F4, symSize: 0x3C }
  - { offsetInCU: 0xB2D9, offset: 0xB2D9, size: 0x8, addend: 0x0, symName: __ZNSt3__122__compressed_pair_elemINS_12basic_stringIcNS_11char_traitsIcEENS_9allocatorIcEEE5__repELi0ELb0EEC2B8ue170006ENS_18__default_init_tagE, symObjAddr: 0x95C, symBinAddr: 0x100002330, symSize: 0x14 }
  - { offsetInCU: 0xB30B, offset: 0xB30B, size: 0x8, addend: 0x0, symName: __ZNSt3__122__compressed_pair_elemINS_9allocatorIcEELi1ELb1EEC2B8ue170006ENS_18__default_init_tagE, symObjAddr: 0x970, symBinAddr: 0x100002344, symSize: 0x2C }
  - { offsetInCU: 0xB33D, offset: 0xB33D, size: 0x8, addend: 0x0, symName: __ZNSt3__19allocatorIcEC2B8ue170006Ev, symObjAddr: 0x99C, symBinAddr: 0x100002370, symSize: 0x2C }
  - { offsetInCU: 0xB365, offset: 0xB365, size: 0x8, addend: 0x0, symName: __ZNSt3__116__non_trivial_ifILb1ENS_9allocatorIcEEEC2B8ue170006Ev, symObjAddr: 0x9C8, symBinAddr: 0x10000239C, symSize: 0x14 }
  - { offsetInCU: 0xB38D, offset: 0xB38D, size: 0x8, addend: 0x0, symName: __ZNKSt3__112basic_stringIcNS_11char_traitsIcEENS_9allocatorIcEEE13__get_pointerB8ue170006Ev, symObjAddr: 0x9F0, symBinAddr: 0x1000023C4, symSize: 0x54 }
  - { offsetInCU: 0xB3B1, offset: 0xB3B1, size: 0x8, addend: 0x0, symName: __ZNKSt3__112basic_stringIcNS_11char_traitsIcEENS_9allocatorIcEEE9__is_longB8ue170006Ev, symObjAddr: 0xA44, symBinAddr: 0x100002418, symSize: 0x74 }
  - { offsetInCU: 0xB3D5, offset: 0xB3D5, size: 0x8, addend: 0x0, symName: __ZNKSt3__112basic_stringIcNS_11char_traitsIcEENS_9allocatorIcEEE18__get_long_pointerB8ue170006Ev, symObjAddr: 0xAB8, symBinAddr: 0x10000248C, symSize: 0x28 }
  - { offsetInCU: 0xB3F9, offset: 0xB3F9, size: 0x8, addend: 0x0, symName: __ZNKSt3__112basic_stringIcNS_11char_traitsIcEENS_9allocatorIcEEE19__get_short_pointerB8ue170006Ev, symObjAddr: 0xAE0, symBinAddr: 0x1000024B4, symSize: 0x28 }
  - { offsetInCU: 0xB41D, offset: 0xB41D, size: 0x8, addend: 0x0, symName: __ZNKSt3__117__compressed_pairINS_12basic_stringIcNS_11char_traitsIcEENS_9allocatorIcEEE5__repES5_E5firstB8ue170006Ev, symObjAddr: 0xB14, symBinAddr: 0x1000024E8, symSize: 0x24 }
  - { offsetInCU: 0xB441, offset: 0xB441, size: 0x8, addend: 0x0, symName: __ZNKSt3__122__compressed_pair_elemINS_12basic_stringIcNS_11char_traitsIcEENS_9allocatorIcEEE5__repELi0ELb0EE5__getB8ue170006Ev, symObjAddr: 0xB38, symBinAddr: 0x10000250C, symSize: 0x14 }
  - { offsetInCU: 0xB465, offset: 0xB465, size: 0x8, addend: 0x0, symName: __ZNSt3__114pointer_traitsIPKcE10pointer_toB8ue170006ERS1_, symObjAddr: 0xB4C, symBinAddr: 0x100002520, symSize: 0x14 }
  - { offsetInCU: 0xB487, offset: 0xB487, size: 0x8, addend: 0x0, symName: __ZNSt3__119ostreambuf_iteratorIcNS_11char_traitsIcEEEC2B8ue170006ERNS_13basic_ostreamIcS2_EE, symObjAddr: 0xB60, symBinAddr: 0x100002534, symSize: 0x68 }
  - { offsetInCU: 0xB4BD, offset: 0xB4BD, size: 0x8, addend: 0x0, symName: __ZNKSt3__19basic_iosIcNS_11char_traitsIcEEE5rdbufB8ue170006Ev, symObjAddr: 0xBC8, symBinAddr: 0x10000259C, symSize: 0x24 }
  - { offsetInCU: 0xB4E3, offset: 0xB4E3, size: 0x8, addend: 0x0, symName: __ZNKSt3__18ios_base5rdbufB8ue170006Ev, symObjAddr: 0xBEC, symBinAddr: 0x1000025C0, symSize: 0x18 }
  - { offsetInCU: 0xB507, offset: 0xB507, size: 0x8, addend: 0x0, symName: __ZNSt3__111char_traitsIcE11eq_int_typeB8ue170006Eii, symObjAddr: 0xC04, symBinAddr: 0x1000025D8, symSize: 0x28 }
  - { offsetInCU: 0xB539, offset: 0xB539, size: 0x8, addend: 0x0, symName: __ZNSt3__111char_traitsIcE3eofB8ue170006Ev, symObjAddr: 0xC2C, symBinAddr: 0x100002600, symSize: 0x8 }
  - { offsetInCU: 0xB54C, offset: 0xB54C, size: 0x8, addend: 0x0, symName: __ZNKSt3__19basic_iosIcNS_11char_traitsIcEEE5widenB8ue170006Ec, symObjAddr: 0xC34, symBinAddr: 0x100002608, symSize: 0x8C }
  - { offsetInCU: 0xB5B8, offset: 0xB5B8, size: 0x8, addend: 0x0, symName: __ZNKSt3__15ctypeIcE5widenB8ue170006Ec, symObjAddr: 0xCEC, symBinAddr: 0x1000026C0, symSize: 0x38 }
  - { offsetInCU: 0xB5EB, offset: 0xB5EB, size: 0x8, addend: 0x0, symName: __ZNSt3__18ios_base8setstateB8ue170006Ej, symObjAddr: 0xD24, symBinAddr: 0x1000026F8, symSize: 0x34 }
  - { offsetInCU: 0xC942, offset: 0x186BD, size: 0x8, addend: 0x0, symName: __ZNSt3__19__shuffleB8ue170006INS_17_ClassicAlgPolicyENS_11__wrap_iterIPiEES4_RNS_13random_deviceEEET0_S7_T1_OT2_, symObjAddr: 0x8FC0, symBinAddr: 0x10000AAD0, symSize: 0x148 }
  - { offsetInCU: 0xEF1E, offset: 0x1AC99, size: 0x8, addend: 0x0, symName: __ZNSt3__17advanceB8ue170006IPillvEEvRT_T0_, symObjAddr: 0xA61C, symBinAddr: 0x10000C12C, symSize: 0x38 }
  - { offsetInCU: 0xF991, offset: 0x1B70C, size: 0x8, addend: 0x0, symName: __ZNSt3__111__sift_downB8ue170006INS_17_ClassicAlgPolicyERNS_7greaterIdEENS_16__deque_iteratorIdPdRdPS6_lLl512EEEEEvT1_OT0_NS_15iterator_traitsISA_E15difference_typeESA_, symObjAddr: 0xF534, symBinAddr: 0x100011044, symSize: 0x2FC }
  - { offsetInCU: 0xFA75, offset: 0x1B7F0, size: 0x8, addend: 0x0, symName: __ZNSt3__117__floyd_sift_downB8ue170006INS_17_ClassicAlgPolicyERNS_7greaterIdEENS_16__deque_iteratorIdPdRdPS6_lLl512EEEEET1_SA_OT0_NS_15iterator_traitsISA_E15difference_typeE, symObjAddr: 0xFCDC, symBinAddr: 0x1000117EC, symSize: 0x158 }
  - { offsetInCU: 0xFB0E, offset: 0x1B889, size: 0x8, addend: 0x0, symName: __ZNSt3__111__introsortINS_17_ClassicAlgPolicyERNS_7greaterIdEENS_16__deque_iteratorIdPdRdPS6_lLl512EEELb0EEEvT1_SA_T0_NS_15iterator_traitsISA_E15difference_typeEb, symObjAddr: 0x10024, symBinAddr: 0x100011B34, symSize: 0x7CC }
  - { offsetInCU: 0xFC44, offset: 0x1B9BF, size: 0x8, addend: 0x0, symName: __ZNSt3__126__insertion_sort_unguardedB8ue170006INS_17_ClassicAlgPolicyERNS_7greaterIdEENS_16__deque_iteratorIdPdRdPS6_lLl512EEEEEvT1_SA_T0_, symObjAddr: 0x10B50, symBinAddr: 0x100012660, symSize: 0x19C }
  - { offsetInCU: 0xFD3C, offset: 0x1BAB7, size: 0x8, addend: 0x0, symName: __ZNSt3__131__partition_with_equals_on_leftB8ue170006INS_17_ClassicAlgPolicyENS_16__deque_iteratorIdPdRdPS3_lLl512EEERNS_7greaterIdEEEET0_SA_SA_T1_, symObjAddr: 0x1107C, symBinAddr: 0x100012B8C, symSize: 0x2A4 }
  - { offsetInCU: 0xFDFB, offset: 0x1BB76, size: 0x8, addend: 0x0, symName: __ZNSt3__118__bitset_partitionB8ue170006INS_17_ClassicAlgPolicyENS_16__deque_iteratorIdPdRdPS3_lLl512EEERNS_7greaterIdEEEENS_4pairIT0_bEESB_SB_T1_, symObjAddr: 0x11320, symBinAddr: 0x100012E30, symSize: 0x3E4 }
  - { offsetInCU: 0xFEFA, offset: 0x1BC75, size: 0x8, addend: 0x0, symName: __ZNSt3__124__swap_bitmap_pos_withinB8ue170006INS_17_ClassicAlgPolicyENS_16__deque_iteratorIdPdRdPS3_lLl512EEEEEvRT0_S8_RyS9_, symObjAddr: 0x1280C, symBinAddr: 0x10001431C, symSize: 0x1CC }
  - { offsetInCU: 0xFFCA, offset: 0x1BD45, size: 0x8, addend: 0x0, symName: __ZNSt3__132__partition_with_equals_on_rightB8ue170006INS_17_ClassicAlgPolicyENS_16__deque_iteratorIdPdRdPS3_lLl512EEERNS_7greaterIdEEEENS_4pairIT0_bEESB_SB_T1_, symObjAddr: 0x11704, symBinAddr: 0x100013214, symSize: 0x284 }
  - { offsetInCU: 0x10098, offset: 0x1BE13, size: 0x8, addend: 0x0, symName: __ZNSt3__127__insertion_sort_incompleteB8ue170006INS_17_ClassicAlgPolicyERNS_7greaterIdEENS_16__deque_iteratorIdPdRdPS6_lLl512EEEEEbT1_SA_T0_, symObjAddr: 0x11988, symBinAddr: 0x100013498, symSize: 0x4A4 }
  - { offsetInCU: 0x119DA, offset: 0x1D755, size: 0x8, addend: 0x0, symName: __ZNSt3__19make_pairB8ue170006IRiR10competitorEENS_4pairINS_18__unwrap_ref_decayIT_E4typeENS5_IT0_E4typeEEEOS6_OS9_, symObjAddr: 0xA78, symBinAddr: 0x1000030F0, symSize: 0x40 }
  - { offsetInCU: 0x11AE2, offset: 0x1D85D, size: 0x8, addend: 0x0, symName: __ZNSt3__17shuffleB8ue170006INS_11__wrap_iterIPiEERNS_13random_deviceEEEvT_S6_OT0_, symObjAddr: 0xE00, symBinAddr: 0x100003478, symSize: 0x48 }
  - { offsetInCU: 0x11B39, offset: 0x1D8B4, size: 0x8, addend: 0x0, symName: __ZNSt3__18for_eachB8ue170006INS_11__wrap_iterIPiEEPFviEEET0_T_S7_S6_, symObjAddr: 0xEA8, symBinAddr: 0x100003520, symSize: 0x6C }
  - { offsetInCU: 0x11B93, offset: 0x1D90E, size: 0x8, addend: 0x0, symName: __ZNSt3__1neB8ue170006IPiEEbRKNS_11__wrap_iterIT_EES6_, symObjAddr: 0x17AC, symBinAddr: 0x100003E24, symSize: 0x34 }
  - { offsetInCU: 0x11BD6, offset: 0x1D951, size: 0x8, addend: 0x0, symName: __ZNSt3__14sortB8ue170006INS_16__deque_iteratorIdPdRdPS2_lLl512EEENS_7greaterIdEEEEvT_S8_T0_, symObjAddr: 0x18B8, symBinAddr: 0x100003F30, symSize: 0x50 }
  - { offsetInCU: 0x11C31, offset: 0x1D9AC, size: 0x8, addend: 0x0, symName: __ZNSt3__110accumulateB8ue170006INS_16__deque_iteratorIdPdRdPS2_lLl512EEEfEET0_T_S7_S6_, symObjAddr: 0x1C44, symBinAddr: 0x1000042BC, symSize: 0x80 }
  - { offsetInCU: 0x11C8B, offset: 0x1DA06, size: 0x8, addend: 0x0, symName: __ZNSt3__1lsB8ue170006IcNS_11char_traitsIcEENS_9allocatorIcEEEERNS_13basic_ostreamIT_T0_EES9_RKNS_12basic_stringIS6_S7_T1_EE, symObjAddr: 0x1DCC, symBinAddr: 0x100004444, symSize: 0x4C }
  - { offsetInCU: 0x11CE3, offset: 0x1DA5E, size: 0x8, addend: 0x0, symName: __ZNSt3__19make_pairB8ue170006IRdRiEENS_4pairINS_18__unwrap_ref_decayIT_E4typeENS4_IT0_E4typeEEEOS5_OS8_, symObjAddr: 0x1E58, symBinAddr: 0x1000044D0, symSize: 0x38 }
  - { offsetInCU: 0x11DDF, offset: 0x1DB5A, size: 0x8, addend: 0x0, symName: __ZNSt3__1neB8ue170006ERKNS_14__map_iteratorINS_15__tree_iteratorINS_12__value_typeIdiEEPNS_11__tree_nodeIS3_PvEElEEEESB_, symObjAddr: 0x1EFC, symBinAddr: 0x100004574, symSize: 0x30 }
  - { offsetInCU: 0x12D39, offset: 0x1EAB4, size: 0x8, addend: 0x0, symName: __ZNSt3__1rsB8ue170006IcNS_11char_traitsIcEEEERNS_13basic_istreamIT_T0_EES7_RS4_, symObjAddr: 0x2DCC, symBinAddr: 0x100005444, symSize: 0x190 }
  - { offsetInCU: 0x12DBB, offset: 0x1EB36, size: 0x8, addend: 0x0, symName: __ZNSt3__17getlineB8ue170006IcNS_11char_traitsIcEENS_9allocatorIcEEEERNS_13basic_istreamIT_T0_EES9_RNS_12basic_stringIS6_S7_T1_EE, symObjAddr: 0x2FB0, symBinAddr: 0x100005628, symSize: 0x5C }
  - { offsetInCU: 0x12E13, offset: 0x1EB8E, size: 0x8, addend: 0x0, symName: __ZNSt3__19make_pairB8ue170006IRiRNS_6vectorINS_12basic_stringIcNS_11char_traitsIcEENS_9allocatorIcEEEENS6_IS8_EEEEEENS_4pairINS_18__unwrap_ref_decayIT_E4typeENSD_IT0_E4typeEEEOSE_OSH_, symObjAddr: 0x31A4, symBinAddr: 0x10000581C, symSize: 0x40 }
  - { offsetInCU: 0x12F26, offset: 0x1ECA1, size: 0x8, addend: 0x0, symName: __ZNSt3__1neB8ue170006ERKNS_14__map_iteratorINS_15__tree_iteratorINS_12__value_typeIiNS_6vectorINS_12basic_stringIcNS_11char_traitsIcEENS_9allocatorIcEEEENS7_IS9_EEEEEEPNS_11__tree_nodeISC_PvEElEEEESK_, symObjAddr: 0x34E0, symBinAddr: 0x100005B58, symSize: 0x30 }
  - { offsetInCU: 0x12F96, offset: 0x1ED11, size: 0x8, addend: 0x0, symName: __ZNSt3__112__to_addressB8ue170006IiEEPT_S2_, symObjAddr: 0x4724, symBinAddr: 0x100006D9C, symSize: 0x14 }
  - { offsetInCU: 0x12FCB, offset: 0x1ED46, size: 0x8, addend: 0x0, symName: __ZNSt3__119__libcpp_deallocateB8ue170006EPvmm, symObjAddr: 0x4838, symBinAddr: 0x100006EA4, symSize: 0x30 }
  - { offsetInCU: 0x13014, offset: 0x1ED8F, size: 0x8, addend: 0x0, symName: __ZNSt3__127__do_deallocate_handle_sizeB8ue170006IJEEEvPvmDpT_, symObjAddr: 0x4868, symBinAddr: 0x100006ED4, symSize: 0x28 }
  - { offsetInCU: 0x13054, offset: 0x1EDCF, size: 0x8, addend: 0x0, symName: __ZNSt3__124__libcpp_operator_deleteB8ue170006IJPvEEEvDpT_, symObjAddr: 0x4890, symBinAddr: 0x100006EFC, symSize: 0x24 }
  - { offsetInCU: 0x130BD, offset: 0x1EE38, size: 0x8, addend: 0x0, symName: __ZNSt3__117__libcpp_allocateB8ue170006Emm, symObjAddr: 0x62C8, symBinAddr: 0x100007DD8, symSize: 0x28 }
  - { offsetInCU: 0x130FA, offset: 0x1EE75, size: 0x8, addend: 0x0, symName: __ZNSt3__121__libcpp_operator_newB8ue170006IJmEEEPvDpT_, symObjAddr: 0x6304, symBinAddr: 0x100007E14, symSize: 0x24 }
  - { offsetInCU: 0x13133, offset: 0x1EEAE, size: 0x8, addend: 0x0, symName: __ZNSt3__13maxB8ue170006ImEERKT_S3_S3_, symObjAddr: 0x6924, symBinAddr: 0x100008434, symSize: 0x2C }
  - { offsetInCU: 0x13176, offset: 0x1EEF1, size: 0x8, addend: 0x0, symName: __ZNSt3__13minB8ue170006ImEERKT_S3_S3_, symObjAddr: 0x6950, symBinAddr: 0x100008460, symSize: 0x2C }
  - { offsetInCU: 0x133C4, offset: 0x1F13F, size: 0x8, addend: 0x0, symName: __ZNSt3__13minB8ue170006ImNS_6__lessIvvEEEERKT_S5_S5_T0_, symObjAddr: 0x69DC, symBinAddr: 0x1000084EC, symSize: 0x54 }
  - { offsetInCU: 0x13465, offset: 0x1F1E0, size: 0x8, addend: 0x0, symName: __ZNSt3__120__throw_length_errorB8ue170006EPKc, symObjAddr: 0x6AB8, symBinAddr: 0x1000085C8, symSize: 0x64 }
  - { offsetInCU: 0x13490, offset: 0x1F20B, size: 0x8, addend: 0x0, symName: __ZNSt3__13maxB8ue170006ImNS_6__lessIvvEEEERKT_S5_S5_T0_, symObjAddr: 0x6B9C, symBinAddr: 0x1000086AC, symSize: 0x54 }
  - { offsetInCU: 0x134EA, offset: 0x1F265, size: 0x8, addend: 0x0, symName: __ZNSt3__119__allocate_at_leastB8ue170006INS_9allocatorIiEEEENS_19__allocation_resultINS_16allocator_traitsIT_E7pointerEEERS5_m, symObjAddr: 0x6D00, symBinAddr: 0x100008810, symSize: 0x40 }
  - { offsetInCU: 0x1352D, offset: 0x1F2A8, size: 0x8, addend: 0x0, symName: __ZNSt3__142__uninitialized_allocator_move_if_noexceptB8ue170006INS_9allocatorIiEENS_16reverse_iteratorIPiEES5_ivEET1_RT_T0_S9_S6_, symObjAddr: 0x6EE0, symBinAddr: 0x1000089F0, symSize: 0xE8 }
  - { offsetInCU: 0x135AC, offset: 0x1F327, size: 0x8, addend: 0x0, symName: __ZNSt3__14swapB8ue170006IPiEEvRT_S3_, symObjAddr: 0x7014, symBinAddr: 0x100008B24, symSize: 0x3C }
  - { offsetInCU: 0x135FD, offset: 0x1F378, size: 0x8, addend: 0x0, symName: __ZNSt3__1neB8ue170006IPiS1_EEbRKNS_16reverse_iteratorIT_EERKNS2_IT0_EE, symObjAddr: 0x70FC, symBinAddr: 0x100008C0C, symSize: 0x48 }
  - { offsetInCU: 0x13670, offset: 0x1F3EB, size: 0x8, addend: 0x0, symName: __ZNSt3__114__construct_atB8ue170006IiJiEPiEEPT_S3_DpOT0_, symObjAddr: 0x7144, symBinAddr: 0x100008C54, symSize: 0x2C }
  - { offsetInCU: 0x136E2, offset: 0x1F45D, size: 0x8, addend: 0x0, symName: __ZNSt3__112__to_addressB8ue170006INS_16reverse_iteratorIPiEEvEEu7__decayIDTclsr19__to_address_helperIT_EE6__callclsr3stdE7declvalIRKS4_EEEEES6_, symObjAddr: 0x7170, symBinAddr: 0x100008C80, symSize: 0x24 }
  - { offsetInCU: 0x13719, offset: 0x1F494, size: 0x8, addend: 0x0, symName: __ZNSt3__14moveB8ue170006INS_16reverse_iteratorIPiEES3_EET0_T_S5_S4_, symObjAddr: 0x71DC, symBinAddr: 0x100008CEC, symSize: 0x78 }
  - { offsetInCU: 0x1379D, offset: 0x1F518, size: 0x8, addend: 0x0, symName: __ZNSt3__16__moveB8ue170006INS_17_ClassicAlgPolicyENS_16reverse_iteratorIPiEES4_S4_EENS_4pairIT0_T2_EES6_T1_S7_, symObjAddr: 0x72C4, symBinAddr: 0x100008DD4, symSize: 0x64 }
  - { offsetInCU: 0x13809, offset: 0x1F584, size: 0x8, addend: 0x0, symName: __ZNSt3__123__dispatch_copy_or_moveB8ue170006INS_17_ClassicAlgPolicyENS_11__move_loopIS1_EENS_14__move_trivialENS_16reverse_iteratorIPiEES7_S7_EENS_4pairIT2_T4_EES9_T3_SA_, symObjAddr: 0x7328, symBinAddr: 0x100008E38, symSize: 0x64 }
  - { offsetInCU: 0x13887, offset: 0x1F602, size: 0x8, addend: 0x0, symName: __ZNSt3__121__unwrap_and_dispatchB8ue170006INS_10__overloadINS_11__move_loopINS_17_ClassicAlgPolicyEEENS_14__move_trivialEEENS_16reverse_iteratorIPiEES9_S9_Li0EEENS_4pairIT0_T2_EESB_T1_SC_, symObjAddr: 0x738C, symBinAddr: 0x100008E9C, symSize: 0x12C }
  - { offsetInCU: 0x13918, offset: 0x1F693, size: 0x8, addend: 0x0, symName: __ZNSt3__114__unwrap_rangeB8ue170006INS_16reverse_iteratorIPiEES3_EENS_4pairIT0_S5_EET_S7_, symObjAddr: 0x74B8, symBinAddr: 0x100008FC8, symSize: 0x84 }
  - { offsetInCU: 0x13A6C, offset: 0x1F7E7, size: 0x8, addend: 0x0, symName: __ZNSt3__113__unwrap_iterB8ue170006INS_16reverse_iteratorIPiEENS_18__unwrap_iter_implIS3_Lb0EEELi0EEEDTclsrT0_8__unwrapclsr3stdE7declvalIT_EEEES7_, symObjAddr: 0x75DC, symBinAddr: 0x1000090EC, symSize: 0x44 }
  - { offsetInCU: 0x13AB1, offset: 0x1F82C, size: 0x8, addend: 0x0, symName: __ZNSt3__19make_pairB8ue170006INS_16reverse_iteratorIPiEES3_EENS_4pairINS_18__unwrap_ref_decayIT_E4typeENS5_IT0_E4typeEEEOS6_OS9_, symObjAddr: 0x7620, symBinAddr: 0x100009130, symSize: 0x38 }
  - { offsetInCU: 0x13B00, offset: 0x1F87B, size: 0x8, addend: 0x0, symName: __ZNSt3__114__rewrap_rangeB8ue170006INS_16reverse_iteratorIPiEES3_EET_S4_T0_, symObjAddr: 0x7658, symBinAddr: 0x100009168, symSize: 0x5C }
  - { offsetInCU: 0x13B4C, offset: 0x1F8C7, size: 0x8, addend: 0x0, symName: __ZNSt3__113__rewrap_iterB8ue170006INS_16reverse_iteratorIPiEES3_NS_18__unwrap_iter_implIS3_Lb0EEEEET_S6_T0_, symObjAddr: 0x76B4, symBinAddr: 0x1000091C4, symSize: 0x88 }
  - { offsetInCU: 0x13DB0, offset: 0x1FB2B, size: 0x8, addend: 0x0, symName: __ZNSt3__127__tree_balance_after_insertB8ue170006IPNS_16__tree_node_baseIPvEEEEvT_S5_, symObjAddr: 0x8710, symBinAddr: 0x10000A220, symSize: 0x340 }
  - { offsetInCU: 0x13E26, offset: 0x1FBA1, size: 0x8, addend: 0x0, symName: __ZNSt3__120__tree_is_left_childB8ue170006IPNS_16__tree_node_baseIPvEEEEbT_, symObjAddr: 0x8A68, symBinAddr: 0x10000A578, symSize: 0x2C }
  - { offsetInCU: 0x13E5B, offset: 0x1FBD6, size: 0x8, addend: 0x0, symName: __ZNSt3__118__tree_left_rotateB8ue170006IPNS_16__tree_node_baseIPvEEEEvT_, symObjAddr: 0x8A94, symBinAddr: 0x10000A5A4, symSize: 0xEC }
  - { offsetInCU: 0x13E9E, offset: 0x1FC19, size: 0x8, addend: 0x0, symName: __ZNSt3__119__tree_right_rotateB8ue170006IPNS_16__tree_node_baseIPvEEEEvT_, symObjAddr: 0x8B80, symBinAddr: 0x10000A690, symSize: 0xCC }
  - { offsetInCU: 0x13EE1, offset: 0x1FC5C, size: 0x8, addend: 0x0, symName: __ZNSt3__1miB8ue170006IPiS1_EENS_11__wrap_iterIT_E15difference_typeERKS4_RKNS2_IT0_EE, symObjAddr: 0x9128, symBinAddr: 0x10000AC38, symSize: 0x48 }
  - { offsetInCU: 0x13F2D, offset: 0x1FCA8, size: 0x8, addend: 0x0, symName: __ZNSt3__1ltB8ue170006IPiEEbRKNS_11__wrap_iterIT_EES6_, symObjAddr: 0x91CC, symBinAddr: 0x10000ACDC, symSize: 0x48 }
  - { offsetInCU: 0x13F70, offset: 0x1FCEB, size: 0x8, addend: 0x0, symName: __ZNSt3__113__countl_zeroB8ue170006ImEEiT_, symObjAddr: 0x9548, symBinAddr: 0x10000B058, symSize: 0x54 }
  - { offsetInCU: 0x13FA5, offset: 0x1FD20, size: 0x8, addend: 0x0, symName: __ZNSt3__112__libcpp_clzB8ue170006Em, symObjAddr: 0x9A0C, symBinAddr: 0x10000B51C, symSize: 0x1C }
  - { offsetInCU: 0x13FD1, offset: 0x1FD4C, size: 0x8, addend: 0x0, symName: __ZNSt3__19iter_swapB8ue170006INS_11__wrap_iterIPiEES3_EEvT_T0_, symObjAddr: 0x9A5C, symBinAddr: 0x10000B56C, symSize: 0x50 }
  - { offsetInCU: 0x1401A, offset: 0x1FD95, size: 0x8, addend: 0x0, symName: __ZNSt3__14swapB8ue170006IiEEvRT_S2_, symObjAddr: 0x9AAC, symBinAddr: 0x10000B5BC, symSize: 0x3C }
  - { offsetInCU: 0x1406B, offset: 0x1FDE6, size: 0x8, addend: 0x0, symName: __ZNSt3__18distanceB8ue170006IPiEENS_15iterator_traitsIT_E15difference_typeES3_S3_, symObjAddr: 0xA318, symBinAddr: 0x10000BE28, symSize: 0x2C }
  - { offsetInCU: 0x140AE, offset: 0x1FE29, size: 0x8, addend: 0x0, symName: __ZNSt3__14nextB8ue170006IPiEENS_9enable_ifIXsr29__has_input_iterator_categoryIT_EE5valueES3_E4typeES3_NS_15iterator_traitsIS3_E15difference_typeE, symObjAddr: 0xA344, symBinAddr: 0x10000BE54, symSize: 0x34 }
  - { offsetInCU: 0x140F1, offset: 0x1FE6C, size: 0x8, addend: 0x0, symName: __ZNSt3__14copyB8ue170006IPiS1_EET0_T_S3_S2_, symObjAddr: 0xA378, symBinAddr: 0x10000BE88, symSize: 0x40 }
  - { offsetInCU: 0x1414B, offset: 0x1FEC6, size: 0x8, addend: 0x0, symName: __ZNSt3__16__copyB8ue170006INS_17_ClassicAlgPolicyEPiS2_S2_EENS_4pairIT0_T2_EES4_T1_S5_, symObjAddr: 0xA44C, symBinAddr: 0x10000BF5C, symSize: 0x44 }
  - { offsetInCU: 0x141B7, offset: 0x1FF32, size: 0x8, addend: 0x0, symName: __ZNSt3__121__convert_to_integralB8ue170006El, symObjAddr: 0xA654, symBinAddr: 0x10000C164, symSize: 0x14 }
  - { offsetInCU: 0x141E3, offset: 0x1FF5E, size: 0x8, addend: 0x0, symName: __ZNSt3__19__advanceB8ue170006IPiEEvRT_NS_15iterator_traitsIS2_E15difference_typeENS_26random_access_iterator_tagE, symObjAddr: 0xA668, symBinAddr: 0x10000C178, symSize: 0x28 }
  - { offsetInCU: 0x1422D, offset: 0x1FFA8, size: 0x8, addend: 0x0, symName: __ZNSt3__130__uninitialized_allocator_copyB8ue170006INS_9allocatorIiEEPiS3_S3_EET2_RT_T0_T1_S4_, symObjAddr: 0xA690, symBinAddr: 0x10000C1A0, symSize: 0x80 }
  - { offsetInCU: 0x142CA, offset: 0x20045, size: 0x8, addend: 0x0, symName: __ZNSt3__114__unwrap_rangeB8ue170006IPiS1_EENS_4pairIT0_S3_EET_S5_, symObjAddr: 0xA710, symBinAddr: 0x10000C220, symSize: 0x60 }
  - { offsetInCU: 0x14316, offset: 0x20091, size: 0x8, addend: 0x0, symName: __ZNSt3__135__uninitialized_allocator_copy_implB8ue170006INS_9allocatorIiEEPiS3_S3_EET2_RT_T0_T1_S4_, symObjAddr: 0xA770, symBinAddr: 0x10000C280, symSize: 0xFC }
  - { offsetInCU: 0x143B4, offset: 0x2012F, size: 0x8, addend: 0x0, symName: __ZNSt3__113__unwrap_iterB8ue170006IPiNS_18__unwrap_iter_implIS1_Lb1EEELi0EEEDTclsrT0_8__unwrapclsr3stdE7declvalIT_EEEES5_, symObjAddr: 0xA86C, symBinAddr: 0x10000C37C, symSize: 0x24 }
  - { offsetInCU: 0x143F9, offset: 0x20174, size: 0x8, addend: 0x0, symName: __ZNSt3__113__rewrap_iterB8ue170006IPiS1_NS_18__unwrap_iter_implIS1_Lb1EEEEET_S4_T0_, symObjAddr: 0xA890, symBinAddr: 0x10000C3A0, symSize: 0x50 }
  - { offsetInCU: 0x1444E, offset: 0x201C9, size: 0x8, addend: 0x0, symName: __ZNSt3__19make_pairB8ue170006IPiS1_EENS_4pairINS_18__unwrap_ref_decayIT_E4typeENS3_IT0_E4typeEEEOS4_OS7_, symObjAddr: 0xA8E0, symBinAddr: 0x10000C3F0, symSize: 0x38 }
  - { offsetInCU: 0x1454A, offset: 0x202C5, size: 0x8, addend: 0x0, symName: __ZNSt3__122__make_exception_guardB8ue170006INS_29_AllocatorDestroyRangeReverseINS_9allocatorIiEEPiEEEENS_28__exception_guard_exceptionsIT_EES7_, symObjAddr: 0xA988, symBinAddr: 0x10000C498, symSize: 0x4C }
  - { offsetInCU: 0x14580, offset: 0x202FB, size: 0x8, addend: 0x0, symName: __ZNSt3__119__allocator_destroyB8ue170006INS_9allocatorIiEENS_16reverse_iteratorIPiEES5_EEvRT_T0_T1_, symObjAddr: 0xAC08, symBinAddr: 0x10000C718, symSize: 0x70 }
  - { offsetInCU: 0x14637, offset: 0x203B2, size: 0x8, addend: 0x0, symName: __ZNSt3__123__dispatch_copy_or_moveB8ue170006INS_17_ClassicAlgPolicyENS_11__copy_loopIS1_EENS_14__copy_trivialEPiS5_S5_EENS_4pairIT2_T4_EES7_T3_S8_, symObjAddr: 0xACEC, symBinAddr: 0x10000C7FC, symSize: 0x44 }
  - { offsetInCU: 0x146B5, offset: 0x20430, size: 0x8, addend: 0x0, symName: __ZNSt3__121__unwrap_and_dispatchB8ue170006INS_10__overloadINS_11__copy_loopINS_17_ClassicAlgPolicyEEENS_14__copy_trivialEEEPiS7_S7_Li0EEENS_4pairIT0_T2_EES9_T1_SA_, symObjAddr: 0xAD30, symBinAddr: 0x10000C840, symSize: 0xB4 }
  - { offsetInCU: 0x1478B, offset: 0x20506, size: 0x8, addend: 0x0, symName: __ZNSt3__114__rewrap_rangeB8ue170006IPiS1_EET_S2_T0_, symObjAddr: 0xAE2C, symBinAddr: 0x10000C93C, symSize: 0x2C }
  - { offsetInCU: 0x147D7, offset: 0x20552, size: 0x8, addend: 0x0, symName: __ZNSt3__119__copy_trivial_implB8ue170006IiiEENS_4pairIPT_PT0_EES3_S3_S5_, symObjAddr: 0xAE58, symBinAddr: 0x10000C968, symSize: 0x80 }
  - { offsetInCU: 0x1483F, offset: 0x205BA, size: 0x8, addend: 0x0, symName: __ZNSt3__119__constexpr_memmoveB8ue170006IiiLi0EEEPT_S2_PT0_NS_15__element_countE, symObjAddr: 0xAED8, symBinAddr: 0x10000C9E8, symSize: 0xA0 }
  - { offsetInCU: 0x148AE, offset: 0x20629, size: 0x8, addend: 0x0, symName: __ZNSt3__19make_pairB8ue170006IRPiS1_EENS_4pairINS_18__unwrap_ref_decayIT_E4typeENS4_IT0_E4typeEEEOS5_OS8_, symObjAddr: 0xAF78, symBinAddr: 0x10000CA88, symSize: 0x38 }
  - { offsetInCU: 0x148FD, offset: 0x20678, size: 0x8, addend: 0x0, symName: __ZNSt3__110__distanceB8ue170006IPiEENS_15iterator_traitsIT_E15difference_typeES3_S3_NS_26random_access_iterator_tagE, symObjAddr: 0xAFB0, symBinAddr: 0x10000CAC0, symSize: 0x28 }
  - { offsetInCU: 0x1494A, offset: 0x206C5, size: 0x8, addend: 0x0, symName: __ZNSt3__1eqB8ue170006IPiEEbRKNS_11__wrap_iterIT_EES6_, symObjAddr: 0xAFD8, symBinAddr: 0x10000CAE8, symSize: 0x48 }
  - { offsetInCU: 0x1498D, offset: 0x20708, size: 0x8, addend: 0x0, symName: __ZNSt3__112__to_addressB8ue170006IdEEPT_S2_, symObjAddr: 0xB9FC, symBinAddr: 0x10000D50C, symSize: 0x14 }
  - { offsetInCU: 0x149C2, offset: 0x2073D, size: 0x8, addend: 0x0, symName: __ZNSt3__112__to_addressB8ue170006IPdEEPT_S3_, symObjAddr: 0xBC68, symBinAddr: 0x10000D778, symSize: 0x14 }
  - { offsetInCU: 0x149F7, offset: 0x20772, size: 0x8, addend: 0x0, symName: __ZNSt3__1neB8ue170006ERKNS_16__deque_iteratorIdPdRdPS1_lLl512EEES6_, symObjAddr: 0xC144, symBinAddr: 0x10000DC54, symSize: 0x34 }
  - { offsetInCU: 0x14A34, offset: 0x207AF, size: 0x8, addend: 0x0, symName: __ZNSt3__1eqB8ue170006ERKNS_16__deque_iteratorIdPdRdPS1_lLl512EEES6_, symObjAddr: 0xC298, symBinAddr: 0x10000DDA8, symSize: 0x30 }
  - { offsetInCU: 0x14EFE, offset: 0x20C79, size: 0x8, addend: 0x0, symName: __ZNSt3__14swapB8ue170006IPPdEEvRT_S4_, symObjAddr: 0xD780, symBinAddr: 0x10000F290, symSize: 0x3C }
  - { offsetInCU: 0x14F4F, offset: 0x20CCA, size: 0x8, addend: 0x0, symName: __ZNSt3__14moveB8ue170006IPPdS2_EET0_T_S4_S3_, symObjAddr: 0xD864, symBinAddr: 0x10000F374, symSize: 0x40 }
  - { offsetInCU: 0x14FC8, offset: 0x20D43, size: 0x8, addend: 0x0, symName: __ZNSt3__16__moveB8ue170006INS_17_ClassicAlgPolicyEPPdS3_S3_EENS_4pairIT0_T2_EES5_T1_S6_, symObjAddr: 0xD96C, symBinAddr: 0x10000F47C, symSize: 0x44 }
  - { offsetInCU: 0x15034, offset: 0x20DAF, size: 0x8, addend: 0x0, symName: __ZNSt3__123__dispatch_copy_or_moveB8ue170006INS_17_ClassicAlgPolicyENS_11__move_loopIS1_EENS_14__move_trivialEPPdS6_S6_EENS_4pairIT2_T4_EES8_T3_S9_, symObjAddr: 0xD9B0, symBinAddr: 0x10000F4C0, symSize: 0x44 }
  - { offsetInCU: 0x150B2, offset: 0x20E2D, size: 0x8, addend: 0x0, symName: __ZNSt3__121__unwrap_and_dispatchB8ue170006INS_10__overloadINS_11__move_loopINS_17_ClassicAlgPolicyEEENS_14__move_trivialEEEPPdS8_S8_Li0EEENS_4pairIT0_T2_EESA_T1_SB_, symObjAddr: 0xD9F4, symBinAddr: 0x10000F504, symSize: 0xB4 }
  - { offsetInCU: 0x15141, offset: 0x20EBC, size: 0x8, addend: 0x0, symName: __ZNSt3__114__unwrap_rangeB8ue170006IPPdS2_EENS_4pairIT0_S4_EET_S6_, symObjAddr: 0xDAA8, symBinAddr: 0x10000F5B8, symSize: 0x60 }
  - { offsetInCU: 0x15281, offset: 0x20FFC, size: 0x8, addend: 0x0, symName: __ZNSt3__113__unwrap_iterB8ue170006IPPdNS_18__unwrap_iter_implIS2_Lb1EEELi0EEEDTclsrT0_8__unwrapclsr3stdE7declvalIT_EEEES6_, symObjAddr: 0xDB50, symBinAddr: 0x10000F660, symSize: 0x24 }
  - { offsetInCU: 0x152C6, offset: 0x21041, size: 0x8, addend: 0x0, symName: __ZNSt3__19make_pairB8ue170006IPPdS2_EENS_4pairINS_18__unwrap_ref_decayIT_E4typeENS4_IT0_E4typeEEEOS5_OS8_, symObjAddr: 0xDB74, symBinAddr: 0x10000F684, symSize: 0x38 }
  - { offsetInCU: 0x15315, offset: 0x21090, size: 0x8, addend: 0x0, symName: __ZNSt3__114__rewrap_rangeB8ue170006IPPdS2_EET_S3_T0_, symObjAddr: 0xDBAC, symBinAddr: 0x10000F6BC, symSize: 0x2C }
  - { offsetInCU: 0x15361, offset: 0x210DC, size: 0x8, addend: 0x0, symName: __ZNSt3__113__rewrap_iterB8ue170006IPPdS2_NS_18__unwrap_iter_implIS2_Lb1EEEEET_S5_T0_, symObjAddr: 0xDBD8, symBinAddr: 0x10000F6E8, symSize: 0x50 }
  - { offsetInCU: 0x153B6, offset: 0x21131, size: 0x8, addend: 0x0, symName: __ZNSt3__119__copy_trivial_implB8ue170006IPdS1_EENS_4pairIPT_PT0_EES4_S4_S6_, symObjAddr: 0xDC28, symBinAddr: 0x10000F738, symSize: 0x80 }
  - { offsetInCU: 0x1541E, offset: 0x21199, size: 0x8, addend: 0x0, symName: __ZNSt3__119__constexpr_memmoveB8ue170006IPdS1_Li0EEEPT_S3_PT0_NS_15__element_countE, symObjAddr: 0xDCA8, symBinAddr: 0x10000F7B8, symSize: 0xA0 }
  - { offsetInCU: 0x1548D, offset: 0x21208, size: 0x8, addend: 0x0, symName: __ZNSt3__19make_pairB8ue170006IRPPdS2_EENS_4pairINS_18__unwrap_ref_decayIT_E4typeENS5_IT0_E4typeEEEOS6_OS9_, symObjAddr: 0xDD48, symBinAddr: 0x10000F858, symSize: 0x38 }
  - { offsetInCU: 0x1552F, offset: 0x212AA, size: 0x8, addend: 0x0, symName: __ZNSt3__18distanceB8ue170006INS_13move_iteratorIPPdEEEENS_15iterator_traitsIT_E15difference_typeES6_S6_, symObjAddr: 0xDF48, symBinAddr: 0x10000FA58, symSize: 0x3C }
  - { offsetInCU: 0x15572, offset: 0x212ED, size: 0x8, addend: 0x0, symName: __ZNSt3__110__distanceB8ue170006INS_13move_iteratorIPPdEEEENS_15iterator_traitsIT_E15difference_typeES6_S6_NS_26random_access_iterator_tagE, symObjAddr: 0xE14C, symBinAddr: 0x10000FC5C, symSize: 0x30 }
  - { offsetInCU: 0x155BF, offset: 0x2133A, size: 0x8, addend: 0x0, symName: __ZNSt3__1miB8ue170006IPPdS2_EENS_13move_iteratorIT_E15difference_typeERKS5_RKNS3_IT0_EE, symObjAddr: 0xE17C, symBinAddr: 0x10000FC8C, symSize: 0x48 }
  - { offsetInCU: 0x1560E, offset: 0x21389, size: 0x8, addend: 0x0, symName: __ZNSt3__113move_backwardB8ue170006IPPdS2_EET0_T_S4_S3_, symObjAddr: 0xE2E0, symBinAddr: 0x10000FDF0, symSize: 0x40 }
  - { offsetInCU: 0x15668, offset: 0x213E3, size: 0x8, addend: 0x0, symName: __ZNSt3__115__move_backwardB8ue170006INS_17_ClassicAlgPolicyEPPdS3_S3_EENS_4pairIT0_T2_EES5_T1_S6_, symObjAddr: 0xE320, symBinAddr: 0x10000FE30, symSize: 0x44 }
  - { offsetInCU: 0x156D4, offset: 0x2144F, size: 0x8, addend: 0x0, symName: __ZNSt3__123__dispatch_copy_or_moveB8ue170006INS_17_ClassicAlgPolicyENS_20__move_backward_loopIS1_EENS_23__move_backward_trivialEPPdS6_S6_EENS_4pairIT2_T4_EES8_T3_S9_, symObjAddr: 0xE364, symBinAddr: 0x10000FE74, symSize: 0x44 }
  - { offsetInCU: 0x15752, offset: 0x214CD, size: 0x8, addend: 0x0, symName: __ZNSt3__121__unwrap_and_dispatchB8ue170006INS_10__overloadINS_20__move_backward_loopINS_17_ClassicAlgPolicyEEENS_23__move_backward_trivialEEEPPdS8_S8_Li0EEENS_4pairIT0_T2_EESA_T1_SB_, symObjAddr: 0xE3A8, symBinAddr: 0x10000FEB8, symSize: 0xB4 }
  - { offsetInCU: 0x15828, offset: 0x215A3, size: 0x8, addend: 0x0, symName: __ZNSt3__128__copy_backward_trivial_implB8ue170006IPdS1_EENS_4pairIPT_PT0_EES4_S4_S6_, symObjAddr: 0xE4A4, symBinAddr: 0x10000FFB4, symSize: 0x90 }
  - { offsetInCU: 0x15890, offset: 0x2160B, size: 0x8, addend: 0x0, symName: __ZNSt3__19make_pairB8ue170006IRPPdS3_EENS_4pairINS_18__unwrap_ref_decayIT_E4typeENS5_IT0_E4typeEEEOS6_OS9_, symObjAddr: 0xE534, symBinAddr: 0x100010044, symSize: 0x38 }
  - { offsetInCU: 0x158DF, offset: 0x2165A, size: 0x8, addend: 0x0, symName: __ZNSt3__119__allocate_at_leastB8ue170006INS_9allocatorIPdEEEENS_19__allocation_resultINS_16allocator_traitsIT_E7pointerEEERS6_m, symObjAddr: 0xE67C, symBinAddr: 0x10001018C, symSize: 0x40 }
  - { offsetInCU: 0x15922, offset: 0x2169D, size: 0x8, addend: 0x0, symName: __ZNSt3__111__sort_implB8ue170006INS_17_ClassicAlgPolicyENS_16__deque_iteratorIdPdRdPS3_lLl512EEENS_7greaterIdEEEEvT0_S9_RT1_, symObjAddr: 0xEDC4, symBinAddr: 0x1000108D4, symSize: 0x188 }
  - { offsetInCU: 0x15986, offset: 0x21701, size: 0x8, addend: 0x0, symName: __ZNSt3__123__debug_randomize_rangeB8ue170006INS_17_ClassicAlgPolicyENS_16__deque_iteratorIdPdRdPS3_lLl512EEES6_EEvT0_T1_, symObjAddr: 0xEF4C, symBinAddr: 0x100010A5C, symSize: 0x1C }
  - { offsetInCU: 0x159D8, offset: 0x21753, size: 0x8, addend: 0x0, symName: __ZNSt3__114__partial_sortB8ue170006INS_17_ClassicAlgPolicyENS_7greaterIdEENS_16__deque_iteratorIdPdRdPS5_lLl512EEES8_EET1_S9_S9_T2_RT0_, symObjAddr: 0xEF68, symBinAddr: 0x100010A78, symSize: 0x110 }
  - { offsetInCU: 0x15A61, offset: 0x217DC, size: 0x8, addend: 0x0, symName: __ZNSt3__113__unwrap_iterB8ue170006INS_16__deque_iteratorIdPdRdPS2_lLl512EEENS_18__unwrap_iter_implIS5_Lb0EEELi0EEEDTclsrT0_8__unwrapclsr3stdE7declvalIT_EEEES9_, symObjAddr: 0xF078, symBinAddr: 0x100010B88, symSize: 0x44 }
  - { offsetInCU: 0x15AA6, offset: 0x21821, size: 0x8, addend: 0x0, symName: __ZNSt3__115__sort_dispatchB8ue170006INS_17_ClassicAlgPolicyENS_16__deque_iteratorIdPdRdPS3_lLl512EEENS_7greaterIdEEEEvT0_S9_RT1_, symObjAddr: 0xF0BC, symBinAddr: 0x100010BCC, symSize: 0x80 }
  - { offsetInCU: 0x15B25, offset: 0x218A0, size: 0x8, addend: 0x0, symName: __ZNSt3__135__check_strict_weak_ordering_sortedB8ue170006INS_16__deque_iteratorIdPdRdPS2_lLl512EEENS_7greaterIdEEEEvT_S8_RT0_, symObjAddr: 0xF13C, symBinAddr: 0x100010C4C, symSize: 0x20 }
  - { offsetInCU: 0x15B7C, offset: 0x218F7, size: 0x8, addend: 0x0, symName: __ZNSt3__119__partial_sort_implB8ue170006INS_17_ClassicAlgPolicyERNS_7greaterIdEENS_16__deque_iteratorIdPdRdPS6_lLl512EEES9_EET1_SA_SA_T2_OT0_, symObjAddr: 0xF188, symBinAddr: 0x100010C98, symSize: 0x1A0 }
  - { offsetInCU: 0x15C15, offset: 0x21990, size: 0x8, addend: 0x0, symName: __ZNSt3__111__make_heapB8ue170006INS_17_ClassicAlgPolicyERNS_7greaterIdEENS_16__deque_iteratorIdPdRdPS6_lLl512EEEEEvT1_SA_OT0_, symObjAddr: 0xF328, symBinAddr: 0x100010E38, symSize: 0xE8 }
  - { offsetInCU: 0x15CB9, offset: 0x21A34, size: 0x8, addend: 0x0, symName: __ZNSt3__1miB8ue170006ERKNS_16__deque_iteratorIdPdRdPS1_lLl512EEES6_, symObjAddr: 0xF410, symBinAddr: 0x100010F20, symSize: 0xA4 }
  - { offsetInCU: 0x15CF6, offset: 0x21A71, size: 0x8, addend: 0x0, symName: __ZNSt3__111__sort_heapB8ue170006INS_17_ClassicAlgPolicyERNS_7greaterIdEENS_16__deque_iteratorIdPdRdPS6_lLl512EEEEEvT1_SA_OT0_, symObjAddr: 0xF830, symBinAddr: 0x100011340, symSize: 0xD8 }
  - { offsetInCU: 0x15D9C, offset: 0x21B17, size: 0x8, addend: 0x0, symName: __ZNSt3__19iter_swapB8ue170006INS_16__deque_iteratorIdPdRdPS2_lLl512EEES5_EEvT_T0_, symObjAddr: 0xFA58, symBinAddr: 0x100011568, symSize: 0x58 }
  - { offsetInCU: 0x15DE5, offset: 0x21B60, size: 0x8, addend: 0x0, symName: __ZNSt3__14swapB8ue170006IdEEvRT_S2_, symObjAddr: 0xFAB0, symBinAddr: 0x1000115C0, symSize: 0x3C }
  - { offsetInCU: 0x15E5B, offset: 0x21BD6, size: 0x8, addend: 0x0, symName: __ZNSt3__110__pop_heapB8ue170006INS_17_ClassicAlgPolicyENS_7greaterIdEENS_16__deque_iteratorIdPdRdPS5_lLl512EEEEEvT1_S9_RT0_NS_15iterator_traitsIS9_E15difference_typeE, symObjAddr: 0xFB18, symBinAddr: 0x100011628, symSize: 0x15C }
  - { offsetInCU: 0x15F0E, offset: 0x21C89, size: 0x8, addend: 0x0, symName: __ZNSt3__19__sift_upB8ue170006INS_17_ClassicAlgPolicyERNS_7greaterIdEENS_16__deque_iteratorIdPdRdPS6_lLl512EEEEEvT1_SA_OT0_NS_15iterator_traitsISA_E15difference_typeE, symObjAddr: 0xFE34, symBinAddr: 0x100011944, symSize: 0x178 }
  - { offsetInCU: 0x1600A, offset: 0x21D85, size: 0x8, addend: 0x0, symName: __ZNSt3__17__log2iB8ue170006IlEET_S1_, symObjAddr: 0xFFD0, symBinAddr: 0x100011AE0, symSize: 0x54 }
  - { offsetInCU: 0x16041, offset: 0x21DBC, size: 0x8, addend: 0x0, symName: __ZNSt3__124__sort3_maybe_branchlessB8ue170006INS_17_ClassicAlgPolicyERNS_7greaterIdEENS_16__deque_iteratorIdPdRdPS6_lLl512EEEEENS_9enable_ifIXntsr21__use_branchless_sortIT0_T1_EE5valueEvE4typeESC_SC_SC_SB_, symObjAddr: 0x10808, symBinAddr: 0x100012318, symSize: 0x6C }
  - { offsetInCU: 0x160B2, offset: 0x21E2D, size: 0x8, addend: 0x0, symName: __ZNSt3__124__sort4_maybe_branchlessB8ue170006INS_17_ClassicAlgPolicyERNS_7greaterIdEENS_16__deque_iteratorIdPdRdPS6_lLl512EEEEENS_9enable_ifIXntsr21__use_branchless_sortIT0_T1_EE5valueEvE4typeESC_SC_SC_SC_SB_, symObjAddr: 0x10874, symBinAddr: 0x100012384, symSize: 0x90 }
  - { offsetInCU: 0x16132, offset: 0x21EAD, size: 0x8, addend: 0x0, symName: __ZNSt3__124__sort5_maybe_branchlessB8ue170006INS_17_ClassicAlgPolicyERNS_7greaterIdEENS_16__deque_iteratorIdPdRdPS6_lLl512EEEEENS_9enable_ifIXntsr21__use_branchless_sortIT0_T1_EE5valueEvE4typeESC_SC_SC_SC_SC_SB_, symObjAddr: 0x10904, symBinAddr: 0x100012414, symSize: 0xB8 }
  - { offsetInCU: 0x161C1, offset: 0x21F3C, size: 0x8, addend: 0x0, symName: __ZNSt3__116__insertion_sortB8ue170006INS_17_ClassicAlgPolicyERNS_7greaterIdEENS_16__deque_iteratorIdPdRdPS6_lLl512EEEEEvT1_SA_T0_, symObjAddr: 0x109BC, symBinAddr: 0x1000124CC, symSize: 0x194 }
  - { offsetInCU: 0x1628A, offset: 0x22005, size: 0x8, addend: 0x0, symName: __ZNSt3__114__partial_sortB8ue170006INS_17_ClassicAlgPolicyERNS_7greaterIdEENS_16__deque_iteratorIdPdRdPS6_lLl512EEES9_EET1_SA_SA_T2_RT0_, symObjAddr: 0x10CEC, symBinAddr: 0x1000127FC, symSize: 0x110 }
  - { offsetInCU: 0x16313, offset: 0x2208E, size: 0x8, addend: 0x0, symName: __ZNSt3__17__sort3B8ue170006INS_17_ClassicAlgPolicyERNS_7greaterIdEENS_16__deque_iteratorIdPdRdPS6_lLl512EEEEEjT1_SA_SA_T0_, symObjAddr: 0x10DFC, symBinAddr: 0x10001290C, symSize: 0x1F4 }
  - { offsetInCU: 0x16393, offset: 0x2210E, size: 0x8, addend: 0x0, symName: __ZNSt3__17__sort4B8ue170006INS_17_ClassicAlgPolicyERNS_7greaterIdEENS_16__deque_iteratorIdPdRdPS6_lLl512EEEEEvT1_SA_SA_SA_T0_, symObjAddr: 0x11E44, symBinAddr: 0x100013954, symSize: 0x160 }
  - { offsetInCU: 0x16410, offset: 0x2218B, size: 0x8, addend: 0x0, symName: __ZNSt3__17__sort5B8ue170006INS_17_ClassicAlgPolicyERNS_7greaterIdEENS_16__deque_iteratorIdPdRdPS6_lLl512EEEEEvT1_SA_SA_SA_SA_T0_, symObjAddr: 0x11FA4, symBinAddr: 0x100013AB4, symSize: 0x1D8 }
  - { offsetInCU: 0x1649D, offset: 0x22218, size: 0x8, addend: 0x0, symName: __ZNSt3__1ltB8ue170006ERKNS_16__deque_iteratorIdPdRdPS1_lLl512EEES6_, symObjAddr: 0x121B0, symBinAddr: 0x100013CC0, symSize: 0x98 }
  - { offsetInCU: 0x164DB, offset: 0x22256, size: 0x8, addend: 0x0, symName: __ZNSt3__1geB8ue170006ERKNS_16__deque_iteratorIdPdRdPS1_lLl512EEES6_, symObjAddr: 0x12248, symBinAddr: 0x100013D58, symSize: 0x34 }
  - { offsetInCU: 0x16518, offset: 0x22293, size: 0x8, addend: 0x0, symName: __ZNSt3__122__populate_left_bitsetB8ue170006IRNS_7greaterIdEENS_16__deque_iteratorIdPdRdPS5_lLl512EEEdEEvT0_T_RT1_Ry, symObjAddr: 0x1227C, symBinAddr: 0x100013D8C, symSize: 0xC0 }
  - { offsetInCU: 0x165D6, offset: 0x22351, size: 0x8, addend: 0x0, symName: __ZNSt3__123__populate_right_bitsetB8ue170006IRNS_7greaterIdEENS_16__deque_iteratorIdPdRdPS5_lLl512EEEdEEvT0_T_RT1_Ry, symObjAddr: 0x1233C, symBinAddr: 0x100013E4C, symSize: 0xB8 }
  - { offsetInCU: 0x16694, offset: 0x2240F, size: 0x8, addend: 0x0, symName: __ZNSt3__117__swap_bitmap_posB8ue170006INS_17_ClassicAlgPolicyENS_16__deque_iteratorIdPdRdPS3_lLl512EEEEEvT0_S7_RyS8_, symObjAddr: 0x123F4, symBinAddr: 0x100013F04, symSize: 0x118 }
  - { offsetInCU: 0x16737, offset: 0x224B2, size: 0x8, addend: 0x0, symName: __ZNSt3__133__bitset_partition_partial_blocksB8ue170006INS_17_ClassicAlgPolicyERNS_7greaterIdEENS_16__deque_iteratorIdPdRdPS6_lLl512EEEdEEvRT1_SB_T0_RT2_RySF_, symObjAddr: 0x1250C, symBinAddr: 0x10001401C, symSize: 0x300 }
  - { offsetInCU: 0x168C5, offset: 0x22640, size: 0x8, addend: 0x0, symName: __ZNSt3__19make_pairB8ue170006IRNS_16__deque_iteratorIdPdRdPS2_lLl512EEERbEENS_4pairINS_18__unwrap_ref_decayIT_E4typeENS9_IT0_E4typeEEEOSA_OSD_, symObjAddr: 0x129D8, symBinAddr: 0x1000144E8, symSize: 0x38 }
  - { offsetInCU: 0x16914, offset: 0x2268F, size: 0x8, addend: 0x0, symName: __ZNSt3__112__libcpp_ctzB8ue170006Ey, symObjAddr: 0x12A10, symBinAddr: 0x100014520, symSize: 0x20 }
  - { offsetInCU: 0x16940, offset: 0x226BB, size: 0x8, addend: 0x0, symName: __ZNSt3__113__libcpp_blsrB8ue170006Ey, symObjAddr: 0x12A30, symBinAddr: 0x100014540, symSize: 0x2C }
  - { offsetInCU: 0x1696C, offset: 0x226E7, size: 0x8, addend: 0x0, symName: __ZNSt3__112__libcpp_clzB8ue170006Ey, symObjAddr: 0x12AA8, symBinAddr: 0x1000145B8, symSize: 0x1C }
  - { offsetInCU: 0x16A81, offset: 0x227FC, size: 0x8, addend: 0x0, symName: __ZNSt3__1neB8ue170006ERKNS_15__tree_iteratorINS_12__value_typeIdiEEPNS_11__tree_nodeIS2_PvEElEES9_, symObjAddr: 0x14320, symBinAddr: 0x100015E30, symSize: 0x34 }
  - { offsetInCU: 0x16ABE, offset: 0x22839, size: 0x8, addend: 0x0, symName: __ZNSt3__1eqB8ue170006ERKNS_15__tree_iteratorINS_12__value_typeIdiEEPNS_11__tree_nodeIS2_PvEElEES9_, symObjAddr: 0x14354, symBinAddr: 0x100015E64, symSize: 0x30 }
  - { offsetInCU: 0x16AFC, offset: 0x22877, size: 0x8, addend: 0x0, symName: __ZNSt3__116__tree_next_iterB8ue170006IPNS_15__tree_end_nodeIPNS_16__tree_node_baseIPvEEEES5_EET_T0_, symObjAddr: 0x143E8, symBinAddr: 0x100015EF8, symSize: 0x80 }
  - { offsetInCU: 0x16B3A, offset: 0x228B5, size: 0x8, addend: 0x0, symName: __ZNSt3__110__tree_minB8ue170006IPNS_16__tree_node_baseIPvEEEET_S5_, symObjAddr: 0x14468, symBinAddr: 0x100015F78, symSize: 0x40 }
  - { offsetInCU: 0x16BD5, offset: 0x22950, size: 0x8, addend: 0x0, symName: __ZNSt3__17getlineB8ue170006IcNS_11char_traitsIcEENS_9allocatorIcEEEERNS_13basic_istreamIT_T0_EES9_RNS_12basic_stringIS6_S7_T1_EES6_, symObjAddr: 0x148A0, symBinAddr: 0x1000163B0, symSize: 0x234 }
  - { offsetInCU: 0x16C93, offset: 0x22A0E, size: 0x8, addend: 0x0, symName: __ZNSt3__112__to_addressB8ue170006INS_12basic_stringIcNS_11char_traitsIcEENS_9allocatorIcEEEEEEPT_S8_, symObjAddr: 0x15234, symBinAddr: 0x100016D44, symSize: 0x14 }
  - { offsetInCU: 0x16CC8, offset: 0x22A43, size: 0x8, addend: 0x0, symName: __ZNSt3__119__allocate_at_leastB8ue170006INS_9allocatorINS_12basic_stringIcNS_11char_traitsIcEENS1_IcEEEEEEEENS_19__allocation_resultINS_16allocator_traitsIT_E7pointerEEERSA_m, symObjAddr: 0x15BA4, symBinAddr: 0x1000176B4, symSize: 0x40 }
  - { offsetInCU: 0x16D0B, offset: 0x22A86, size: 0x8, addend: 0x0, symName: __ZNSt3__142__uninitialized_allocator_move_if_noexceptB8ue170006INS_9allocatorINS_12basic_stringIcNS_11char_traitsIcEENS1_IcEEEEEENS_16reverse_iteratorIPS6_EESA_SA_EET2_RT_T0_T1_SB_, symObjAddr: 0x15D8C, symBinAddr: 0x10001789C, symSize: 0x134 }
  - { offsetInCU: 0x16DAB, offset: 0x22B26, size: 0x8, addend: 0x0, symName: __ZNSt3__14swapB8ue170006IPNS_12basic_stringIcNS_11char_traitsIcEENS_9allocatorIcEEEEEEvRT_S9_, symObjAddr: 0x15F0C, symBinAddr: 0x100017A1C, symSize: 0x3C }
  - { offsetInCU: 0x16DFC, offset: 0x22B77, size: 0x8, addend: 0x0, symName: __ZNSt3__122__make_exception_guardB8ue170006INS_29_AllocatorDestroyRangeReverseINS_9allocatorINS_12basic_stringIcNS_11char_traitsIcEENS2_IcEEEEEENS_16reverse_iteratorIPS7_EEEEEENS_28__exception_guard_exceptionsIT_EESE_, symObjAddr: 0x16010, symBinAddr: 0x100017B20, symSize: 0x4C }
  - { offsetInCU: 0x16E32, offset: 0x22BAD, size: 0x8, addend: 0x0, symName: __ZNSt3__1neB8ue170006IPNS_12basic_stringIcNS_11char_traitsIcEENS_9allocatorIcEEEES7_EEbRKNS_16reverse_iteratorIT_EERKNS8_IT0_EE, symObjAddr: 0x160A0, symBinAddr: 0x100017BB0, symSize: 0x48 }
  - { offsetInCU: 0x16E7E, offset: 0x22BF9, size: 0x8, addend: 0x0, symName: __ZNSt3__112__to_addressB8ue170006INS_16reverse_iteratorIPNS_12basic_stringIcNS_11char_traitsIcEENS_9allocatorIcEEEEEEvEEu7__decayIDTclsr19__to_address_helperIT_EE6__callclsr3stdE7declvalIRKSA_EEEEESC_, symObjAddr: 0x160E8, symBinAddr: 0x100017BF8, symSize: 0x24 }
  - { offsetInCU: 0x16EDF, offset: 0x22C5A, size: 0x8, addend: 0x0, symName: __ZNSt3__119__allocator_destroyB8ue170006INS_9allocatorINS_12basic_stringIcNS_11char_traitsIcEENS1_IcEEEEEENS_16reverse_iteratorINS8_IPS6_EEEESB_EEvRT_T0_T1_, symObjAddr: 0x163A4, symBinAddr: 0x100017EB4, symSize: 0x70 }
  - { offsetInCU: 0x16F45, offset: 0x22CC0, size: 0x8, addend: 0x0, symName: __ZNSt3__1neB8ue170006INS_16reverse_iteratorIPNS_12basic_stringIcNS_11char_traitsIcEENS_9allocatorIcEEEEEES9_EEbRKNS1_IT_EERKNS1_IT0_EE, symObjAddr: 0x16450, symBinAddr: 0x100017F60, symSize: 0x60 }
  - { offsetInCU: 0x16F91, offset: 0x22D0C, size: 0x8, addend: 0x0, symName: __ZNSt3__112__to_addressB8ue170006INS_16reverse_iteratorINS1_IPNS_12basic_stringIcNS_11char_traitsIcEENS_9allocatorIcEEEEEEEEvEEu7__decayIDTclsr19__to_address_helperIT_EE6__callclsr3stdE7declvalIRKSB_EEEEESD_, symObjAddr: 0x164B0, symBinAddr: 0x100017FC0, symSize: 0x24 }
  - { offsetInCU: 0x16FF2, offset: 0x22D6D, size: 0x8, addend: 0x0, symName: __ZNSt3__122__make_exception_guardB8ue170006INS_6vectorINS_12basic_stringIcNS_11char_traitsIcEENS_9allocatorIcEEEENS5_IS7_EEE16__destroy_vectorEEENS_28__exception_guard_exceptionsIT_EESC_, symObjAddr: 0x16AE8, symBinAddr: 0x1000185F8, symSize: 0x40 }
  - { offsetInCU: 0x17027, offset: 0x22DA2, size: 0x8, addend: 0x0, symName: __ZNSt3__130__uninitialized_allocator_copyB8ue170006INS_9allocatorINS_12basic_stringIcNS_11char_traitsIcEENS1_IcEEEEEEPS6_S8_S8_EET2_RT_T0_T1_S9_, symObjAddr: 0x16D10, symBinAddr: 0x100018820, symSize: 0x80 }
  - { offsetInCU: 0x170C4, offset: 0x22E3F, size: 0x8, addend: 0x0, symName: __ZNSt3__114__unwrap_rangeB8ue170006IPNS_12basic_stringIcNS_11char_traitsIcEENS_9allocatorIcEEEES7_EENS_4pairIT0_S9_EET_SB_, symObjAddr: 0x16D90, symBinAddr: 0x1000188A0, symSize: 0x60 }
  - { offsetInCU: 0x17110, offset: 0x22E8B, size: 0x8, addend: 0x0, symName: __ZNSt3__135__uninitialized_allocator_copy_implB8ue170006INS_9allocatorINS_12basic_stringIcNS_11char_traitsIcEENS1_IcEEEEEEPS6_S8_S8_EET2_RT_T0_T1_S9_, symObjAddr: 0x16DF0, symBinAddr: 0x100018900, symSize: 0xFC }
  - { offsetInCU: 0x171AE, offset: 0x22F29, size: 0x8, addend: 0x0, symName: __ZNSt3__113__unwrap_iterB8ue170006IPNS_12basic_stringIcNS_11char_traitsIcEENS_9allocatorIcEEEENS_18__unwrap_iter_implIS7_Lb1EEELi0EEEDTclsrT0_8__unwrapclsr3stdE7declvalIT_EEEESB_, symObjAddr: 0x16EEC, symBinAddr: 0x1000189FC, symSize: 0x24 }
  - { offsetInCU: 0x171F3, offset: 0x22F6E, size: 0x8, addend: 0x0, symName: __ZNSt3__113__rewrap_iterB8ue170006IPNS_12basic_stringIcNS_11char_traitsIcEENS_9allocatorIcEEEES7_NS_18__unwrap_iter_implIS7_Lb1EEEEET_SA_T0_, symObjAddr: 0x16F10, symBinAddr: 0x100018A20, symSize: 0x50 }
  - { offsetInCU: 0x17248, offset: 0x22FC3, size: 0x8, addend: 0x0, symName: __ZNSt3__19make_pairB8ue170006IPNS_12basic_stringIcNS_11char_traitsIcEENS_9allocatorIcEEEES7_EENS_4pairINS_18__unwrap_ref_decayIT_E4typeENS9_IT0_E4typeEEEOSA_OSD_, symObjAddr: 0x16F60, symBinAddr: 0x100018A70, symSize: 0x38 }
  - { offsetInCU: 0x17344, offset: 0x230BF, size: 0x8, addend: 0x0, symName: __ZNSt3__122__make_exception_guardB8ue170006INS_29_AllocatorDestroyRangeReverseINS_9allocatorINS_12basic_stringIcNS_11char_traitsIcEENS2_IcEEEEEEPS7_EEEENS_28__exception_guard_exceptionsIT_EESC_, symObjAddr: 0x17008, symBinAddr: 0x100018B18, symSize: 0x4C }
  - { offsetInCU: 0x1737A, offset: 0x230F5, size: 0x8, addend: 0x0, symName: __ZNSt3__119__allocator_destroyB8ue170006INS_9allocatorINS_12basic_stringIcNS_11char_traitsIcEENS1_IcEEEEEENS_16reverse_iteratorIPS6_EESA_EEvRT_T0_T1_, symObjAddr: 0x17290, symBinAddr: 0x100018DA0, symSize: 0x70 }
  - { offsetInCU: 0x1744F, offset: 0x231CA, size: 0x8, addend: 0x0, symName: __ZNSt3__1neB8ue170006ERKNS_15__tree_iteratorINS_12__value_typeIiNS_6vectorINS_12basic_stringIcNS_11char_traitsIcEENS_9allocatorIcEEEENS6_IS8_EEEEEEPNS_11__tree_nodeISB_PvEElEESI_, symObjAddr: 0x182E4, symBinAddr: 0x100019DF4, symSize: 0x34 }
  - { offsetInCU: 0x1748C, offset: 0x23207, size: 0x8, addend: 0x0, symName: __ZNSt3__1eqB8ue170006ERKNS_15__tree_iteratorINS_12__value_typeIiNS_6vectorINS_12basic_stringIcNS_11char_traitsIcEENS_9allocatorIcEEEENS6_IS8_EEEEEEPNS_11__tree_nodeISB_PvEElEESI_, symObjAddr: 0x18318, symBinAddr: 0x100019E28, symSize: 0x30 }
  - { offsetInCU: 0x1786D, offset: 0x235E8, size: 0x8, addend: 0x0, symName: __ZSt28__throw_bad_array_new_lengthB8ue170006v, symObjAddr: 0x6294, symBinAddr: 0x100007DA4, symSize: 0x34 }
  - { offsetInCU: 0x187B5, offset: 0x24530, size: 0x8, addend: 0x0, symName: __ZNSt3__16vectorIiNS_9allocatorIiEEE26__swap_out_circular_bufferERNS_14__split_bufferIiRS2_EE, symObjAddr: 0x6758, symBinAddr: 0x100008268, symSize: 0x110 }
  - { offsetInCU: 0x1884B, offset: 0x245C6, size: 0x8, addend: 0x0, symName: __ZNSt3__124uniform_int_distributionIlEclINS_13random_deviceEEElRT_RKNS1_10param_typeE, symObjAddr: 0x9214, symBinAddr: 0x10000AD24, symSize: 0x174 }
  - { offsetInCU: 0x18CCC, offset: 0x24A47, size: 0x8, addend: 0x0, symName: __ZNSt3__16vectorINS_12basic_stringIcNS_11char_traitsIcEENS_9allocatorIcEEEENS4_IS6_EEE26__swap_out_circular_bufferERNS_14__split_bufferIS6_RS7_EE, symObjAddr: 0x15820, symBinAddr: 0x100017330, symSize: 0x110 }
  - { offsetInCU: 0x1AC96, offset: 0x26A11, size: 0x8, addend: 0x0, symName: __ZN9interfaceC2Ev, symObjAddr: 0x0, symBinAddr: 0x100002750, symSize: 0x134 }
  - { offsetInCU: 0x1ACC1, offset: 0x26A3C, size: 0x8, addend: 0x0, symName: __ZNSt3__16vectorIiNS_9allocatorIiEEEC1B8ue170006Ev, symObjAddr: 0x134, symBinAddr: 0x100002884, symSize: 0x2C }
  - { offsetInCU: 0x1ACE9, offset: 0x26A64, size: 0x8, addend: 0x0, symName: __ZNSt3__13mapIi10competitorNS_4lessIiEENS_9allocatorINS_4pairIKiS1_EEEEEC1B8ue170006Ev, symObjAddr: 0x160, symBinAddr: 0x1000028B0, symSize: 0x2C }
  - { offsetInCU: 0x1AD11, offset: 0x26A8C, size: 0x8, addend: 0x0, symName: __ZNSt3__13mapIiNS_6vectorINS_12basic_stringIcNS_11char_traitsIcEENS_9allocatorIcEEEENS5_IS7_EEEENS_4lessIiEENS5_INS_4pairIKiS9_EEEEEC1B8ue170006Ev, symObjAddr: 0x18C, symBinAddr: 0x1000028DC, symSize: 0x2C }
  - { offsetInCU: 0x1AD39, offset: 0x26AB4, size: 0x8, addend: 0x0, symName: __ZN9interface9init_compEv, symObjAddr: 0x1B8, symBinAddr: 0x100002908, symSize: 0x78 }
  - { offsetInCU: 0x1AD60, offset: 0x26ADB, size: 0x8, addend: 0x0, symName: __ZNSt3__13mapIiNS_6vectorINS_12basic_stringIcNS_11char_traitsIcEENS_9allocatorIcEEEENS5_IS7_EEEENS_4lessIiEENS5_INS_4pairIKiS9_EEEEED1B8ue170006Ev, symObjAddr: 0x230, symBinAddr: 0x100002980, symSize: 0x2C }
  - { offsetInCU: 0x1AD88, offset: 0x26B03, size: 0x8, addend: 0x0, symName: __ZNSt3__13mapIi10competitorNS_4lessIiEENS_9allocatorINS_4pairIKiS1_EEEEED1B8ue170006Ev, symObjAddr: 0x268, symBinAddr: 0x1000029AC, symSize: 0x2C }
  - { offsetInCU: 0x1ADB0, offset: 0x26B2B, size: 0x8, addend: 0x0, symName: __ZNSt3__16vectorIiNS_9allocatorIiEEED1B8ue170006Ev, symObjAddr: 0x294, symBinAddr: 0x1000029D8, symSize: 0x2C }
  - { offsetInCU: 0x1ADD8, offset: 0x26B53, size: 0x8, addend: 0x0, symName: __ZN9interfaceC1Ev, symObjAddr: 0x2C0, symBinAddr: 0x100002A04, symSize: 0x2C }
  - { offsetInCU: 0x1AE03, offset: 0x26B7E, size: 0x8, addend: 0x0, symName: __ZN9interfaceD2Ev, symObjAddr: 0x2EC, symBinAddr: 0x100002A30, symSize: 0x100 }
  - { offsetInCU: 0x1AE2E, offset: 0x26BA9, size: 0x8, addend: 0x0, symName: __ZN9interfaceD1Ev, symObjAddr: 0x3EC, symBinAddr: 0x100002B30, symSize: 0x2C }
  - { offsetInCU: 0x1AE59, offset: 0x26BD4, size: 0x8, addend: 0x0, symName: __ZN9interface9show_manuEv, symObjAddr: 0x418, symBinAddr: 0x100002B5C, symSize: 0xE4 }
  - { offsetInCU: 0x1AE80, offset: 0x26BFB, size: 0x8, addend: 0x0, symName: __ZNSt3__16vectorIiNS_9allocatorIiEEE5clearB8ue170006Ev, symObjAddr: 0x5C8, symBinAddr: 0x100002C40, symSize: 0x44 }
  - { offsetInCU: 0x1AEB3, offset: 0x26C2E, size: 0x8, addend: 0x0, symName: __ZNSt3__13mapIi10competitorNS_4lessIiEENS_9allocatorINS_4pairIKiS1_EEEEE5clearB8ue170006Ev, symObjAddr: 0x60C, symBinAddr: 0x100002C84, symSize: 0x24 }
  - { offsetInCU: 0x1AED7, offset: 0x26C52, size: 0x8, addend: 0x0, symName: __ZN9interface17create_competitorEv, symObjAddr: 0x630, symBinAddr: 0x100002CA8, symSize: 0x254 }
  - { offsetInCU: 0x1AF62, offset: 0x26CDD, size: 0x8, addend: 0x0, symName: __ZNSt3__13mapIiNS_6vectorINS_12basic_stringIcNS_11char_traitsIcEENS_9allocatorIcEEEENS5_IS7_EEEENS_4lessIiEENS5_INS_4pairIKiS9_EEEEE5clearB8ue170006Ev, symObjAddr: 0x884, symBinAddr: 0x100002EFC, symSize: 0x24 }
  - { offsetInCU: 0x1AF8B, offset: 0x26D06, size: 0x8, addend: 0x0, symName: __ZNSt3__112basic_stringIcNS_11char_traitsIcEENS_9allocatorIcEEEC1B8ue170006ILi0EEEPKc, symObjAddr: 0x8A8, symBinAddr: 0x100002F20, symSize: 0x34 }
  - { offsetInCU: 0x1AFC9, offset: 0x26D44, size: 0x8, addend: 0x0, symName: __ZNKSt3__112basic_stringIcNS_11char_traitsIcEENS_9allocatorIcEEE4sizeB8ue170006Ev, symObjAddr: 0x8DC, symBinAddr: 0x100002F54, symSize: 0x54 }
  - { offsetInCU: 0x1AFED, offset: 0x26D68, size: 0x8, addend: 0x0, symName: __ZNSt3__112basic_stringIcNS_11char_traitsIcEENS_9allocatorIcEEEixB8ue170006Em, symObjAddr: 0x930, symBinAddr: 0x100002FA8, symSize: 0x30 }
  - { offsetInCU: 0x1B020, offset: 0x26D9B, size: 0x8, addend: 0x0, symName: __ZNSt3__112basic_stringIcNS_11char_traitsIcEENS_9allocatorIcEEEpLB8ue170006Ec, symObjAddr: 0x960, symBinAddr: 0x100002FD8, symSize: 0x34 }
  - { offsetInCU: 0x1B058, offset: 0x26DD3, size: 0x8, addend: 0x0, symName: __ZN10competitorC1Ev, symObjAddr: 0x994, symBinAddr: 0x10000300C, symSize: 0x2C }
  - { offsetInCU: 0x1B083, offset: 0x26DFE, size: 0x8, addend: 0x0, symName: __ZNSt3__16vectorIiNS_9allocatorIiEEE9push_backB8ue170006ERKi, symObjAddr: 0x9C0, symBinAddr: 0x100003038, symSize: 0x6C }
  - { offsetInCU: 0x1B0B8, offset: 0x26E33, size: 0x8, addend: 0x0, symName: __ZNSt3__13mapIi10competitorNS_4lessIiEENS_9allocatorINS_4pairIKiS1_EEEEE6insertB8ue170006ERKS7_, symObjAddr: 0xA2C, symBinAddr: 0x1000030A4, symSize: 0x4C }
  - { offsetInCU: 0x1B104, offset: 0x26E7F, size: 0x8, addend: 0x0, symName: __ZNSt3__14pairIKi10competitorEC1B8ue170006IiS2_EERKNS0_IT_T0_EE, symObjAddr: 0xAB8, symBinAddr: 0x100003130, symSize: 0x34 }
  - { offsetInCU: 0x1B14C, offset: 0x26EC7, size: 0x8, addend: 0x0, symName: __ZNSt3__14pairIKi10competitorED1Ev, symObjAddr: 0xAEC, symBinAddr: 0x100003164, symSize: 0x2C }
  - { offsetInCU: 0x1B177, offset: 0x26EF2, size: 0x8, addend: 0x0, symName: __ZNSt3__14pairIi10competitorED1Ev, symObjAddr: 0xB18, symBinAddr: 0x100003190, symSize: 0x2C }
  - { offsetInCU: 0x1B1A2, offset: 0x26F1D, size: 0x8, addend: 0x0, symName: __ZN10competitorD1Ev, symObjAddr: 0xB44, symBinAddr: 0x1000031BC, symSize: 0x2C }
  - { offsetInCU: 0x1B1CC, offset: 0x26F47, size: 0x8, addend: 0x0, symName: __Z7printeri, symObjAddr: 0xB70, symBinAddr: 0x1000031E8, symSize: 0x3C }
  - { offsetInCU: 0x1B1F6, offset: 0x26F71, size: 0x8, addend: 0x0, symName: __ZN9interface16competition_drawEv, symObjAddr: 0xBAC, symBinAddr: 0x100003224, symSize: 0x254 }
  - { offsetInCU: 0x1B22B, offset: 0x26FA6, size: 0x8, addend: 0x0, symName: __ZNSt3__16vectorIiNS_9allocatorIiEEE5beginB8ue170006Ev, symObjAddr: 0xE48, symBinAddr: 0x1000034C0, symSize: 0x30 }
  - { offsetInCU: 0x1B251, offset: 0x26FCC, size: 0x8, addend: 0x0, symName: __ZNSt3__16vectorIiNS_9allocatorIiEEE3endB8ue170006Ev, symObjAddr: 0xE78, symBinAddr: 0x1000034F0, symSize: 0x30 }
  - { offsetInCU: 0x1B277, offset: 0x26FF2, size: 0x8, addend: 0x0, symName: __ZN9interface7contestEv, symObjAddr: 0xF14, symBinAddr: 0x10000358C, symSize: 0x804 }
  - { offsetInCU: 0x1B39E, offset: 0x27119, size: 0x8, addend: 0x0, symName: __ZNSt3__18multimapIdiNS_7greaterIdEENS_9allocatorINS_4pairIKdiEEEEEC1B8ue170006Ev, symObjAddr: 0x1718, symBinAddr: 0x100003D90, symSize: 0x2C }
  - { offsetInCU: 0x1B3C6, offset: 0x27141, size: 0x8, addend: 0x0, symName: __ZNSt3__16vectorIiNS_9allocatorIiEEEaSB8ue170006ERKS3_, symObjAddr: 0x1744, symBinAddr: 0x100003DBC, symSize: 0x68 }
  - { offsetInCU: 0x1B3FB, offset: 0x27176, size: 0x8, addend: 0x0, symName: __ZNSt3__15dequeIdNS_9allocatorIdEEEC1B8ue170006Ev, symObjAddr: 0x17E0, symBinAddr: 0x100003E58, symSize: 0x2C }
  - { offsetInCU: 0x1B423, offset: 0x2719E, size: 0x8, addend: 0x0, symName: __ZNSt3__15dequeIdNS_9allocatorIdEEE9push_backERKd, symObjAddr: 0x180C, symBinAddr: 0x100003E84, symSize: 0xAC }
  - { offsetInCU: 0x1B467, offset: 0x271E2, size: 0x8, addend: 0x0, symName: __ZNSt3__15dequeIdNS_9allocatorIdEEE5beginB8ue170006Ev, symObjAddr: 0x1908, symBinAddr: 0x100003F80, symSize: 0xCC }
  - { offsetInCU: 0x1B49A, offset: 0x27215, size: 0x8, addend: 0x0, symName: __ZNSt3__15dequeIdNS_9allocatorIdEEE3endB8ue170006Ev, symObjAddr: 0x19D4, symBinAddr: 0x10000404C, symSize: 0xBC }
  - { offsetInCU: 0x1B4DC, offset: 0x27257, size: 0x8, addend: 0x0, symName: __ZNSt3__15dequeIdNS_9allocatorIdEEE9pop_frontEv, symObjAddr: 0x1A90, symBinAddr: 0x100004108, symSize: 0xD4 }
  - { offsetInCU: 0x1B52F, offset: 0x272AA, size: 0x8, addend: 0x0, symName: __ZNSt3__15dequeIdNS_9allocatorIdEEE8pop_backEv, symObjAddr: 0x1B64, symBinAddr: 0x1000041DC, symSize: 0xE0 }
  - { offsetInCU: 0x1B591, offset: 0x2730C, size: 0x8, addend: 0x0, symName: __ZNKSt3__15dequeIdNS_9allocatorIdEEE4sizeB8ue170006Ev, symObjAddr: 0x1CC4, symBinAddr: 0x10000433C, symSize: 0x28 }
  - { offsetInCU: 0x1B5B5, offset: 0x27330, size: 0x8, addend: 0x0, symName: __ZNSt3__13mapIi10competitorNS_4lessIiEENS_9allocatorINS_4pairIKiS1_EEEEEixERS6_, symObjAddr: 0x1CEC, symBinAddr: 0x100004364, symSize: 0xC8 }
  - { offsetInCU: 0x1B62C, offset: 0x273A7, size: 0x8, addend: 0x0, symName: __ZNKSt3__111__wrap_iterIPiEdeB8ue170006Ev, symObjAddr: 0x1DB4, symBinAddr: 0x10000442C, symSize: 0x18 }
  - { offsetInCU: 0x1B650, offset: 0x273CB, size: 0x8, addend: 0x0, symName: __ZNSt3__18multimapIdiNS_7greaterIdEENS_9allocatorINS_4pairIKdiEEEEE6insertB8ue170006ERKS6_, symObjAddr: 0x1E18, symBinAddr: 0x100004490, symSize: 0x40 }
  - { offsetInCU: 0x1B69C, offset: 0x27417, size: 0x8, addend: 0x0, symName: __ZNSt3__14pairIKdiEC1B8ue170006IdiEERKNS0_IT_T0_EE, symObjAddr: 0x1E90, symBinAddr: 0x100004508, symSize: 0x34 }
  - { offsetInCU: 0x1B6E4, offset: 0x2745F, size: 0x8, addend: 0x0, symName: __ZNSt3__18multimapIdiNS_7greaterIdEENS_9allocatorINS_4pairIKdiEEEEE5beginB8ue170006Ev, symObjAddr: 0x1EC4, symBinAddr: 0x10000453C, symSize: 0x38 }
  - { offsetInCU: 0x1B708, offset: 0x27483, size: 0x8, addend: 0x0, symName: __ZNSt3__18multimapIdiNS_7greaterIdEENS_9allocatorINS_4pairIKdiEEEEE3endB8ue170006Ev, symObjAddr: 0x1F2C, symBinAddr: 0x1000045A4, symSize: 0x38 }
  - { offsetInCU: 0x1B72C, offset: 0x274A7, size: 0x8, addend: 0x0, symName: __ZNKSt3__114__map_iteratorINS_15__tree_iteratorINS_12__value_typeIdiEEPNS_11__tree_nodeIS3_PvEElEEEptB8ue170006Ev, symObjAddr: 0x1F64, symBinAddr: 0x1000045DC, symSize: 0x2C }
  - { offsetInCU: 0x1B750, offset: 0x274CB, size: 0x8, addend: 0x0, symName: __ZNSt3__114__map_iteratorINS_15__tree_iteratorINS_12__value_typeIdiEEPNS_11__tree_nodeIS3_PvEElEEEppB8ue170006Ei, symObjAddr: 0x1F90, symBinAddr: 0x100004608, symSize: 0x34 }
  - { offsetInCU: 0x1B78F, offset: 0x2750A, size: 0x8, addend: 0x0, symName: __ZNKSt3__114__map_iteratorINS_15__tree_iteratorINS_12__value_typeIdiEEPNS_11__tree_nodeIS3_PvEElEEEdeB8ue170006Ev, symObjAddr: 0x1FC4, symBinAddr: 0x10000463C, symSize: 0x28 }
  - { offsetInCU: 0x1B7B3, offset: 0x2752E, size: 0x8, addend: 0x0, symName: __ZNSt3__18multimapIdiNS_7greaterIdEENS_9allocatorINS_4pairIKdiEEEEE5clearB8ue170006Ev, symObjAddr: 0x1FEC, symBinAddr: 0x100004664, symSize: 0x24 }
  - { offsetInCU: 0x1B7D7, offset: 0x27552, size: 0x8, addend: 0x0, symName: __ZNSt3__15dequeIdNS_9allocatorIdEEED1B8ue170006Ev, symObjAddr: 0x2010, symBinAddr: 0x100004688, symSize: 0x2C }
  - { offsetInCU: 0x1B7FF, offset: 0x2757A, size: 0x8, addend: 0x0, symName: __ZNSt3__111__wrap_iterIPiEppB8ue170006Ei, symObjAddr: 0x203C, symBinAddr: 0x1000046B4, symSize: 0x34 }
  - { offsetInCU: 0x1B83B, offset: 0x275B6, size: 0x8, addend: 0x0, symName: __ZNSt3__18multimapIdiNS_7greaterIdEENS_9allocatorINS_4pairIKdiEEEEED1B8ue170006Ev, symObjAddr: 0x2070, symBinAddr: 0x1000046E8, symSize: 0x2C }
  - { offsetInCU: 0x1B863, offset: 0x275DE, size: 0x8, addend: 0x0, symName: __ZN9interface10show_scoreEv, symObjAddr: 0x209C, symBinAddr: 0x100004714, symSize: 0x2A4 }
  - { offsetInCU: 0x1B8B5, offset: 0x27630, size: 0x8, addend: 0x0, symName: __ZN9interface11save_recordEv, symObjAddr: 0x2340, symBinAddr: 0x1000049B8, symSize: 0x260 }
  - { offsetInCU: 0x1B9A2, offset: 0x2771D, size: 0x8, addend: 0x0, symName: __ZNSt3__114basic_ofstreamIcNS_11char_traitsIcEEEC1Ev, symObjAddr: 0x25A0, symBinAddr: 0x100004C18, symSize: 0xF4 }
  - { offsetInCU: 0x1B9CD, offset: 0x27748, size: 0x8, addend: 0x0, symName: __ZNSt3__114basic_ofstreamIcNS_11char_traitsIcEEE5closeEv, symObjAddr: 0x2694, symBinAddr: 0x100004D0C, symSize: 0x58 }
  - { offsetInCU: 0x1B9F8, offset: 0x27773, size: 0x8, addend: 0x0, symName: __ZNSt3__114basic_ofstreamIcNS_11char_traitsIcEEED1Ev, symObjAddr: 0x26EC, symBinAddr: 0x100004D64, symSize: 0x70 }
  - { offsetInCU: 0x1BA24, offset: 0x2779F, size: 0x8, addend: 0x0, symName: __ZN9interface17start_competitionEv, symObjAddr: 0x275C, symBinAddr: 0x100004DD4, symSize: 0x6C }
  - { offsetInCU: 0x1BA4B, offset: 0x277C6, size: 0x8, addend: 0x0, symName: __ZN9interface11load_recordEv, symObjAddr: 0x27C8, symBinAddr: 0x100004E40, symSize: 0x404 }
  - { offsetInCU: 0x1BB75, offset: 0x278F0, size: 0x8, addend: 0x0, symName: __ZNSt3__114basic_ifstreamIcNS_11char_traitsIcEEEC1EPKcj, symObjAddr: 0x2BCC, symBinAddr: 0x100005244, symSize: 0x17C }
  - { offsetInCU: 0x1BBBE, offset: 0x27939, size: 0x8, addend: 0x0, symName: __ZNKSt3__114basic_ifstreamIcNS_11char_traitsIcEEE7is_openEv, symObjAddr: 0x2D48, symBinAddr: 0x1000053C0, symSize: 0x2C }
  - { offsetInCU: 0x1BBE4, offset: 0x2795F, size: 0x8, addend: 0x0, symName: __ZNSt3__114basic_ifstreamIcNS_11char_traitsIcEEE5closeEv, symObjAddr: 0x2D74, symBinAddr: 0x1000053EC, symSize: 0x58 }
  - { offsetInCU: 0x1BC0A, offset: 0x27985, size: 0x8, addend: 0x0, symName: __ZNKSt3__19basic_iosIcNS_11char_traitsIcEEE3eofB8ue170006Ev, symObjAddr: 0x2F5C, symBinAddr: 0x1000055D4, symSize: 0x28 }
  - { offsetInCU: 0x1BC2E, offset: 0x279A9, size: 0x8, addend: 0x0, symName: __ZNSt3__112basic_stringIcNS_11char_traitsIcEENS_9allocatorIcEEEC1B8ue170006Ev, symObjAddr: 0x2F84, symBinAddr: 0x1000055FC, symSize: 0x2C }
  - { offsetInCU: 0x1BC56, offset: 0x279D1, size: 0x8, addend: 0x0, symName: __ZNKSt3__19basic_iosIcNS_11char_traitsIcEEEcvPvB8ue170006Ev, symObjAddr: 0x300C, symBinAddr: 0x100005684, symSize: 0x4C }
  - { offsetInCU: 0x1BC7A, offset: 0x279F5, size: 0x8, addend: 0x0, symName: __ZNSt3__16vectorINS_12basic_stringIcNS_11char_traitsIcEENS_9allocatorIcEEEENS4_IS6_EEEC1B8ue170006Ev, symObjAddr: 0x3058, symBinAddr: 0x1000056D0, symSize: 0x2C }
  - { offsetInCU: 0x1BCA2, offset: 0x27A1D, size: 0x8, addend: 0x0, symName: __ZNKSt3__112basic_stringIcNS_11char_traitsIcEENS_9allocatorIcEEE6substrB8ue170006Emm, symObjAddr: 0x3084, symBinAddr: 0x1000056FC, symSize: 0x68 }
  - { offsetInCU: 0x1BCE4, offset: 0x27A5F, size: 0x8, addend: 0x0, symName: __ZNSt3__16vectorINS_12basic_stringIcNS_11char_traitsIcEENS_9allocatorIcEEEENS4_IS6_EEE9push_backB8ue170006ERKS6_, symObjAddr: 0x30EC, symBinAddr: 0x100005764, symSize: 0x6C }
  - { offsetInCU: 0x1BD19, offset: 0x27A94, size: 0x8, addend: 0x0, symName: __ZNSt3__13mapIiNS_6vectorINS_12basic_stringIcNS_11char_traitsIcEENS_9allocatorIcEEEENS5_IS7_EEEENS_4lessIiEENS5_INS_4pairIKiS9_EEEEE6insertB8ue170006ERKSE_, symObjAddr: 0x3158, symBinAddr: 0x1000057D0, symSize: 0x4C }
  - { offsetInCU: 0x1BD65, offset: 0x27AE0, size: 0x8, addend: 0x0, symName: __ZNSt3__14pairIKiNS_6vectorINS_12basic_stringIcNS_11char_traitsIcEENS_9allocatorIcEEEENS6_IS8_EEEEEC1B8ue170006IiSA_EERKNS0_IT_T0_EE, symObjAddr: 0x31E4, symBinAddr: 0x10000585C, symSize: 0x34 }
  - { offsetInCU: 0x1BDAD, offset: 0x27B28, size: 0x8, addend: 0x0, symName: __ZNSt3__14pairIKiNS_6vectorINS_12basic_stringIcNS_11char_traitsIcEENS_9allocatorIcEEEENS6_IS8_EEEEED1Ev, symObjAddr: 0x3218, symBinAddr: 0x100005890, symSize: 0x2C }
  - { offsetInCU: 0x1BDD8, offset: 0x27B53, size: 0x8, addend: 0x0, symName: __ZNSt3__14pairIiNS_6vectorINS_12basic_stringIcNS_11char_traitsIcEENS_9allocatorIcEEEENS5_IS7_EEEEED1Ev, symObjAddr: 0x3244, symBinAddr: 0x1000058BC, symSize: 0x2C }
  - { offsetInCU: 0x1BE03, offset: 0x27B7E, size: 0x8, addend: 0x0, symName: __ZNSt3__16vectorINS_12basic_stringIcNS_11char_traitsIcEENS_9allocatorIcEEEENS4_IS6_EEED1B8ue170006Ev, symObjAddr: 0x3270, symBinAddr: 0x1000058E8, symSize: 0x2C }
  - { offsetInCU: 0x1BE30, offset: 0x27BAB, size: 0x8, addend: 0x0, symName: __ZNSt3__114basic_ifstreamIcNS_11char_traitsIcEEED1Ev, symObjAddr: 0x329C, symBinAddr: 0x100005914, symSize: 0x70 }
  - { offsetInCU: 0x1BE5C, offset: 0x27BD7, size: 0x8, addend: 0x0, symName: __ZN9interface11show_recordEv, symObjAddr: 0x330C, symBinAddr: 0x100005984, symSize: 0x19C }
  - { offsetInCU: 0x1BEA0, offset: 0x27C1B, size: 0x8, addend: 0x0, symName: __ZNSt3__13mapIiNS_6vectorINS_12basic_stringIcNS_11char_traitsIcEENS_9allocatorIcEEEENS5_IS7_EEEENS_4lessIiEENS5_INS_4pairIKiS9_EEEEE5beginB8ue170006Ev, symObjAddr: 0x34A8, symBinAddr: 0x100005B20, symSize: 0x38 }
  - { offsetInCU: 0x1BEC4, offset: 0x27C3F, size: 0x8, addend: 0x0, symName: __ZNSt3__13mapIiNS_6vectorINS_12basic_stringIcNS_11char_traitsIcEENS_9allocatorIcEEEENS5_IS7_EEEENS_4lessIiEENS5_INS_4pairIKiS9_EEEEE3endB8ue170006Ev, symObjAddr: 0x3510, symBinAddr: 0x100005B88, symSize: 0x38 }
  - { offsetInCU: 0x1BEE8, offset: 0x27C63, size: 0x8, addend: 0x0, symName: __ZNKSt3__114__map_iteratorINS_15__tree_iteratorINS_12__value_typeIiNS_6vectorINS_12basic_stringIcNS_11char_traitsIcEENS_9allocatorIcEEEENS7_IS9_EEEEEEPNS_11__tree_nodeISC_PvEElEEEptB8ue170006Ev, symObjAddr: 0x3548, symBinAddr: 0x100005BC0, symSize: 0x2C }
  - { offsetInCU: 0x1BF0C, offset: 0x27C87, size: 0x8, addend: 0x0, symName: __ZNSt3__16vectorINS_12basic_stringIcNS_11char_traitsIcEENS_9allocatorIcEEEENS4_IS6_EEEixB8ue170006Em, symObjAddr: 0x3574, symBinAddr: 0x100005BEC, symSize: 0x2C }
  - { offsetInCU: 0x1BF41, offset: 0x27CBC, size: 0x8, addend: 0x0, symName: __ZNSt3__114__map_iteratorINS_15__tree_iteratorINS_12__value_typeIiNS_6vectorINS_12basic_stringIcNS_11char_traitsIcEENS_9allocatorIcEEEENS7_IS9_EEEEEEPNS_11__tree_nodeISC_PvEElEEEppB8ue170006Ei, symObjAddr: 0x35A0, symBinAddr: 0x100005C18, symSize: 0x34 }
  - { offsetInCU: 0x1BF80, offset: 0x27CFB, size: 0x8, addend: 0x0, symName: __ZN9interface12clear_recordEv, symObjAddr: 0x35D4, symBinAddr: 0x100005C4C, symSize: 0x190 }
  - { offsetInCU: 0x1BFCC, offset: 0x27D47, size: 0x8, addend: 0x0, symName: __ZNSt3__114basic_ofstreamIcNS_11char_traitsIcEEEC1EPKcj, symObjAddr: 0x3764, symBinAddr: 0x100005DDC, symSize: 0x17C }
  - { offsetInCU: 0x1C015, offset: 0x27D90, size: 0x8, addend: 0x0, symName: __ZN9interface11exit_systemEv, symObjAddr: 0x38E0, symBinAddr: 0x100005F58, symSize: 0x60 }
  - { offsetInCU: 0x1C03D, offset: 0x27DB8, size: 0x8, addend: 0x0, symName: __ZN10competitorC2Ev, symObjAddr: 0x3940, symBinAddr: 0x100005FB8, symSize: 0x2C }
  - { offsetInCU: 0x1C068, offset: 0x27DE3, size: 0x8, addend: 0x0, symName: __ZNSt3__14pairIKi10competitorED2Ev, symObjAddr: 0x396C, symBinAddr: 0x100005FE4, symSize: 0x30 }
  - { offsetInCU: 0x1C093, offset: 0x27E0E, size: 0x8, addend: 0x0, symName: __ZNSt3__14pairIi10competitorED2Ev, symObjAddr: 0x399C, symBinAddr: 0x100006014, symSize: 0x30 }
  - { offsetInCU: 0x1C0BE, offset: 0x27E39, size: 0x8, addend: 0x0, symName: __ZN10competitorD2Ev, symObjAddr: 0x39CC, symBinAddr: 0x100006044, symSize: 0x2C }
  - { offsetInCU: 0x1C0E9, offset: 0x27E64, size: 0x8, addend: 0x0, symName: __ZNSt3__114basic_ofstreamIcNS_11char_traitsIcEEED2Ev, symObjAddr: 0x39F8, symBinAddr: 0x100006070, symSize: 0x9C }
  - { offsetInCU: 0x1C121, offset: 0x27E9C, size: 0x8, addend: 0x0, symName: __ZTv0_n24_NSt3__114basic_ofstreamIcNS_11char_traitsIcEEED1Ev, symObjAddr: 0x3A94, symBinAddr: 0x10000610C, symSize: 0x28 }
  - { offsetInCU: 0x1C138, offset: 0x27EB3, size: 0x8, addend: 0x0, symName: __ZNSt3__14pairIKiNS_6vectorINS_12basic_stringIcNS_11char_traitsIcEENS_9allocatorIcEEEENS6_IS8_EEEEED2Ev, symObjAddr: 0x3ABC, symBinAddr: 0x100006134, symSize: 0x30 }
  - { offsetInCU: 0x1C163, offset: 0x27EDE, size: 0x8, addend: 0x0, symName: __ZNSt3__14pairIiNS_6vectorINS_12basic_stringIcNS_11char_traitsIcEENS_9allocatorIcEEEENS5_IS7_EEEEED2Ev, symObjAddr: 0x3AEC, symBinAddr: 0x100006164, symSize: 0x30 }
  - { offsetInCU: 0x1C18E, offset: 0x27F09, size: 0x8, addend: 0x0, symName: __ZNSt3__114basic_ifstreamIcNS_11char_traitsIcEEED2Ev, symObjAddr: 0x3B1C, symBinAddr: 0x100006194, symSize: 0x9C }
  - { offsetInCU: 0x1C1C6, offset: 0x27F41, size: 0x8, addend: 0x0, symName: __ZTv0_n24_NSt3__114basic_ifstreamIcNS_11char_traitsIcEEED1Ev, symObjAddr: 0x3BB8, symBinAddr: 0x100006230, symSize: 0x28 }
  - { offsetInCU: 0x1C1DD, offset: 0x27F58, size: 0x8, addend: 0x0, symName: __ZNSt3__16vectorIiNS_9allocatorIiEEEC2B8ue170006Ev, symObjAddr: 0x3BE0, symBinAddr: 0x100006258, symSize: 0x44 }
  - { offsetInCU: 0x1C20F, offset: 0x27F8A, size: 0x8, addend: 0x0, symName: __ZNSt3__117__compressed_pairIPiNS_9allocatorIiEEEC1B8ue170006IDnNS_18__default_init_tagEEEOT_OT0_, symObjAddr: 0x3C24, symBinAddr: 0x10000629C, symSize: 0x3C }
  - { offsetInCU: 0x1C265, offset: 0x27FE0, size: 0x8, addend: 0x0, symName: __ZNSt3__117__compressed_pairIPiNS_9allocatorIiEEEC2B8ue170006IDnNS_18__default_init_tagEEEOT_OT0_, symObjAddr: 0x3C60, symBinAddr: 0x1000062D8, symSize: 0x40 }
  - { offsetInCU: 0x1C2BB, offset: 0x28036, size: 0x8, addend: 0x0, symName: __ZNSt3__122__compressed_pair_elemIPiLi0ELb0EEC2B8ue170006IDnvEEOT_, symObjAddr: 0x3CA0, symBinAddr: 0x100006318, symSize: 0x1C }
  - { offsetInCU: 0x1C2FC, offset: 0x28077, size: 0x8, addend: 0x0, symName: __ZNSt3__122__compressed_pair_elemINS_9allocatorIiEELi1ELb1EEC2B8ue170006ENS_18__default_init_tagE, symObjAddr: 0x3CBC, symBinAddr: 0x100006334, symSize: 0x2C }
  - { offsetInCU: 0x1C32E, offset: 0x280A9, size: 0x8, addend: 0x0, symName: __ZNSt3__19allocatorIiEC2B8ue170006Ev, symObjAddr: 0x3CE8, symBinAddr: 0x100006360, symSize: 0x2C }
  - { offsetInCU: 0x1C356, offset: 0x280D1, size: 0x8, addend: 0x0, symName: __ZNSt3__116__non_trivial_ifILb1ENS_9allocatorIiEEEC2B8ue170006Ev, symObjAddr: 0x3D14, symBinAddr: 0x10000638C, symSize: 0x14 }
  - { offsetInCU: 0x1C37E, offset: 0x280F9, size: 0x8, addend: 0x0, symName: __ZNSt3__13mapIi10competitorNS_4lessIiEENS_9allocatorINS_4pairIKiS1_EEEEEC2B8ue170006Ev, symObjAddr: 0x3D28, symBinAddr: 0x1000063A0, symSize: 0x40 }
  - { offsetInCU: 0x1C3A6, offset: 0x28121, size: 0x8, addend: 0x0, symName: __ZNSt3__119__map_value_compareIiNS_12__value_typeIi10competitorEENS_4lessIiEELb1EEC1B8ue170006ES5_, symObjAddr: 0x3D68, symBinAddr: 0x1000063E0, symSize: 0x2C }
  - { offsetInCU: 0x1C3DD, offset: 0x28158, size: 0x8, addend: 0x0, symName: __ZNSt3__16__treeINS_12__value_typeIi10competitorEENS_19__map_value_compareIiS3_NS_4lessIiEELb1EEENS_9allocatorIS3_EEEC1ERKS7_, symObjAddr: 0x3D94, symBinAddr: 0x10000640C, symSize: 0x34 }
  - { offsetInCU: 0x1C417, offset: 0x28192, size: 0x8, addend: 0x0, symName: __ZNSt3__119__map_value_compareIiNS_12__value_typeIi10competitorEENS_4lessIiEELb1EEC2B8ue170006ES5_, symObjAddr: 0x3DC8, symBinAddr: 0x100006440, symSize: 0x14 }
  - { offsetInCU: 0x1C44E, offset: 0x281C9, size: 0x8, addend: 0x0, symName: __ZNSt3__16__treeINS_12__value_typeIi10competitorEENS_19__map_value_compareIiS3_NS_4lessIiEELb1EEENS_9allocatorIS3_EEEC2ERKS7_, symObjAddr: 0x3DDC, symBinAddr: 0x100006454, symSize: 0x70 }
  - { offsetInCU: 0x1C488, offset: 0x28203, size: 0x8, addend: 0x0, symName: __ZNSt3__117__compressed_pairINS_15__tree_end_nodeIPNS_16__tree_node_baseIPvEEEENS_9allocatorINS_11__tree_nodeINS_12__value_typeIi10competitorEES3_EEEEEC1B8ue170006ILb1EvEEv, symObjAddr: 0x3E4C, symBinAddr: 0x1000064C4, symSize: 0x2C }
  - { offsetInCU: 0x1C4C1, offset: 0x2823C, size: 0x8, addend: 0x0, symName: __ZNSt3__117__compressed_pairImNS_19__map_value_compareIiNS_12__value_typeIi10competitorEENS_4lessIiEELb1EEEEC1B8ue170006IiRKS7_EEOT_OT0_, symObjAddr: 0x3E78, symBinAddr: 0x1000064F0, symSize: 0x3C }
  - { offsetInCU: 0x1C517, offset: 0x28292, size: 0x8, addend: 0x0, symName: __ZNSt3__16__treeINS_12__value_typeIi10competitorEENS_19__map_value_compareIiS3_NS_4lessIiEELb1EEENS_9allocatorIS3_EEE10__end_nodeB8ue170006Ev, symObjAddr: 0x3EB4, symBinAddr: 0x10000652C, symSize: 0x2C }
  - { offsetInCU: 0x1C53B, offset: 0x282B6, size: 0x8, addend: 0x0, symName: __ZNSt3__16__treeINS_12__value_typeIi10competitorEENS_19__map_value_compareIiS3_NS_4lessIiEELb1EEENS_9allocatorIS3_EEE12__begin_nodeB8ue170006Ev, symObjAddr: 0x3EE0, symBinAddr: 0x100006558, symSize: 0x14 }
  - { offsetInCU: 0x1C55F, offset: 0x282DA, size: 0x8, addend: 0x0, symName: __ZNSt3__117__compressed_pairINS_15__tree_end_nodeIPNS_16__tree_node_baseIPvEEEENS_9allocatorINS_11__tree_nodeINS_12__value_typeIi10competitorEES3_EEEEEC2B8ue170006ILb1EvEEv, symObjAddr: 0x3EF4, symBinAddr: 0x10000656C, symSize: 0x34 }
  - { offsetInCU: 0x1C593, offset: 0x2830E, size: 0x8, addend: 0x0, symName: __ZNSt3__122__compressed_pair_elemINS_15__tree_end_nodeIPNS_16__tree_node_baseIPvEEEELi0ELb0EEC2B8ue170006ENS_16__value_init_tagE, symObjAddr: 0x3F28, symBinAddr: 0x1000065A0, symSize: 0x2C }
  - { offsetInCU: 0x1C5C5, offset: 0x28340, size: 0x8, addend: 0x0, symName: __ZNSt3__122__compressed_pair_elemINS_9allocatorINS_11__tree_nodeINS_12__value_typeIi10competitorEEPvEEEELi1ELb1EEC2B8ue170006ENS_16__value_init_tagE, symObjAddr: 0x3F54, symBinAddr: 0x1000065CC, symSize: 0x2C }
  - { offsetInCU: 0x1C5F7, offset: 0x28372, size: 0x8, addend: 0x0, symName: __ZNSt3__115__tree_end_nodeIPNS_16__tree_node_baseIPvEEEC1B8ue170006Ev, symObjAddr: 0x3F80, symBinAddr: 0x1000065F8, symSize: 0x2C }
  - { offsetInCU: 0x1C61F, offset: 0x2839A, size: 0x8, addend: 0x0, symName: __ZNSt3__115__tree_end_nodeIPNS_16__tree_node_baseIPvEEEC2B8ue170006Ev, symObjAddr: 0x3FAC, symBinAddr: 0x100006624, symSize: 0x18 }
  - { offsetInCU: 0x1C647, offset: 0x283C2, size: 0x8, addend: 0x0, symName: __ZNSt3__19allocatorINS_11__tree_nodeINS_12__value_typeIi10competitorEEPvEEEC2B8ue170006Ev, symObjAddr: 0x3FC4, symBinAddr: 0x10000663C, symSize: 0x2C }
  - { offsetInCU: 0x1C66F, offset: 0x283EA, size: 0x8, addend: 0x0, symName: __ZNSt3__116__non_trivial_ifILb1ENS_9allocatorINS_11__tree_nodeINS_12__value_typeIi10competitorEEPvEEEEEC2B8ue170006Ev, symObjAddr: 0x3FF0, symBinAddr: 0x100006668, symSize: 0x14 }
  - { offsetInCU: 0x1C697, offset: 0x28412, size: 0x8, addend: 0x0, symName: __ZNSt3__117__compressed_pairImNS_19__map_value_compareIiNS_12__value_typeIi10competitorEENS_4lessIiEELb1EEEEC2B8ue170006IiRKS7_EEOT_OT0_, symObjAddr: 0x4004, symBinAddr: 0x10000667C, symSize: 0x44 }
  - { offsetInCU: 0x1C6ED, offset: 0x28468, size: 0x8, addend: 0x0, symName: __ZNSt3__122__compressed_pair_elemImLi0ELb0EEC2B8ue170006IivEEOT_, symObjAddr: 0x4048, symBinAddr: 0x1000066C0, symSize: 0x24 }
  - { offsetInCU: 0x1C72E, offset: 0x284A9, size: 0x8, addend: 0x0, symName: __ZNSt3__122__compressed_pair_elemINS_19__map_value_compareIiNS_12__value_typeIi10competitorEENS_4lessIiEELb1EEELi1ELb1EEC2B8ue170006IRKS7_vEEOT_, symObjAddr: 0x406C, symBinAddr: 0x1000066E4, symSize: 0x18 }
  - { offsetInCU: 0x1C76F, offset: 0x284EA, size: 0x8, addend: 0x0, symName: __ZNSt3__114pointer_traitsIPNS_15__tree_end_nodeIPNS_16__tree_node_baseIPvEEEEE10pointer_toB8ue170006ERS6_, symObjAddr: 0x4084, symBinAddr: 0x1000066FC, symSize: 0x14 }
  - { offsetInCU: 0x1C791, offset: 0x2850C, size: 0x8, addend: 0x0, symName: __ZNSt3__117__compressed_pairINS_15__tree_end_nodeIPNS_16__tree_node_baseIPvEEEENS_9allocatorINS_11__tree_nodeINS_12__value_typeIi10competitorEES3_EEEEE5firstB8ue170006Ev, symObjAddr: 0x4098, symBinAddr: 0x100006710, symSize: 0x24 }
  - { offsetInCU: 0x1C7B5, offset: 0x28530, size: 0x8, addend: 0x0, symName: __ZNSt3__122__compressed_pair_elemINS_15__tree_end_nodeIPNS_16__tree_node_baseIPvEEEELi0ELb0EE5__getB8ue170006Ev, symObjAddr: 0x40BC, symBinAddr: 0x100006734, symSize: 0x14 }
  - { offsetInCU: 0x1C7D9, offset: 0x28554, size: 0x8, addend: 0x0, symName: __ZNSt3__13mapIiNS_6vectorINS_12basic_stringIcNS_11char_traitsIcEENS_9allocatorIcEEEENS5_IS7_EEEENS_4lessIiEENS5_INS_4pairIKiS9_EEEEEC2B8ue170006Ev, symObjAddr: 0x40D0, symBinAddr: 0x100006748, symSize: 0x40 }
  - { offsetInCU: 0x1C801, offset: 0x2857C, size: 0x8, addend: 0x0, symName: __ZNSt3__119__map_value_compareIiNS_12__value_typeIiNS_6vectorINS_12basic_stringIcNS_11char_traitsIcEENS_9allocatorIcEEEENS6_IS8_EEEEEENS_4lessIiEELb1EEC1B8ue170006ESD_, symObjAddr: 0x4110, symBinAddr: 0x100006788, symSize: 0x2C }
  - { offsetInCU: 0x1C838, offset: 0x285B3, size: 0x8, addend: 0x0, symName: __ZNSt3__16__treeINS_12__value_typeIiNS_6vectorINS_12basic_stringIcNS_11char_traitsIcEENS_9allocatorIcEEEENS6_IS8_EEEEEENS_19__map_value_compareIiSB_NS_4lessIiEELb1EEENS6_ISB_EEEC1ERKSF_, symObjAddr: 0x413C, symBinAddr: 0x1000067B4, symSize: 0x34 }
  - { offsetInCU: 0x1C872, offset: 0x285ED, size: 0x8, addend: 0x0, symName: __ZNSt3__119__map_value_compareIiNS_12__value_typeIiNS_6vectorINS_12basic_stringIcNS_11char_traitsIcEENS_9allocatorIcEEEENS6_IS8_EEEEEENS_4lessIiEELb1EEC2B8ue170006ESD_, symObjAddr: 0x4170, symBinAddr: 0x1000067E8, symSize: 0x14 }
  - { offsetInCU: 0x1C8A9, offset: 0x28624, size: 0x8, addend: 0x0, symName: __ZNSt3__16__treeINS_12__value_typeIiNS_6vectorINS_12basic_stringIcNS_11char_traitsIcEENS_9allocatorIcEEEENS6_IS8_EEEEEENS_19__map_value_compareIiSB_NS_4lessIiEELb1EEENS6_ISB_EEEC2ERKSF_, symObjAddr: 0x4184, symBinAddr: 0x1000067FC, symSize: 0x70 }
  - { offsetInCU: 0x1C8E3, offset: 0x2865E, size: 0x8, addend: 0x0, symName: __ZNSt3__117__compressed_pairINS_15__tree_end_nodeIPNS_16__tree_node_baseIPvEEEENS_9allocatorINS_11__tree_nodeINS_12__value_typeIiNS_6vectorINS_12basic_stringIcNS_11char_traitsIcEENS7_IcEEEENS7_ISF_EEEEEES3_EEEEEC1B8ue170006ILb1EvEEv, symObjAddr: 0x41F4, symBinAddr: 0x10000686C, symSize: 0x2C }
  - { offsetInCU: 0x1C917, offset: 0x28692, size: 0x8, addend: 0x0, symName: __ZNSt3__117__compressed_pairImNS_19__map_value_compareIiNS_12__value_typeIiNS_6vectorINS_12basic_stringIcNS_11char_traitsIcEENS_9allocatorIcEEEENS7_IS9_EEEEEENS_4lessIiEELb1EEEEC1B8ue170006IiRKSF_EEOT_OT0_, symObjAddr: 0x4220, symBinAddr: 0x100006898, symSize: 0x3C }
  - { offsetInCU: 0x1C96D, offset: 0x286E8, size: 0x8, addend: 0x0, symName: __ZNSt3__16__treeINS_12__value_typeIiNS_6vectorINS_12basic_stringIcNS_11char_traitsIcEENS_9allocatorIcEEEENS6_IS8_EEEEEENS_19__map_value_compareIiSB_NS_4lessIiEELb1EEENS6_ISB_EEE10__end_nodeB8ue170006Ev, symObjAddr: 0x425C, symBinAddr: 0x1000068D4, symSize: 0x2C }
  - { offsetInCU: 0x1C991, offset: 0x2870C, size: 0x8, addend: 0x0, symName: __ZNSt3__16__treeINS_12__value_typeIiNS_6vectorINS_12basic_stringIcNS_11char_traitsIcEENS_9allocatorIcEEEENS6_IS8_EEEEEENS_19__map_value_compareIiSB_NS_4lessIiEELb1EEENS6_ISB_EEE12__begin_nodeB8ue170006Ev, symObjAddr: 0x4288, symBinAddr: 0x100006900, symSize: 0x14 }
  - { offsetInCU: 0x1C9B5, offset: 0x28730, size: 0x8, addend: 0x0, symName: __ZNSt3__117__compressed_pairINS_15__tree_end_nodeIPNS_16__tree_node_baseIPvEEEENS_9allocatorINS_11__tree_nodeINS_12__value_typeIiNS_6vectorINS_12basic_stringIcNS_11char_traitsIcEENS7_IcEEEENS7_ISF_EEEEEES3_EEEEEC2B8ue170006ILb1EvEEv, symObjAddr: 0x429C, symBinAddr: 0x100006914, symSize: 0x34 }
  - { offsetInCU: 0x1C9E9, offset: 0x28764, size: 0x8, addend: 0x0, symName: __ZNSt3__122__compressed_pair_elemINS_9allocatorINS_11__tree_nodeINS_12__value_typeIiNS_6vectorINS_12basic_stringIcNS_11char_traitsIcEENS1_IcEEEENS1_IS9_EEEEEEPvEEEELi1ELb1EEC2B8ue170006ENS_16__value_init_tagE, symObjAddr: 0x42D0, symBinAddr: 0x100006948, symSize: 0x2C }
  - { offsetInCU: 0x1CA1B, offset: 0x28796, size: 0x8, addend: 0x0, symName: __ZNSt3__19allocatorINS_11__tree_nodeINS_12__value_typeIiNS_6vectorINS_12basic_stringIcNS_11char_traitsIcEENS0_IcEEEENS0_IS8_EEEEEEPvEEEC2B8ue170006Ev, symObjAddr: 0x42FC, symBinAddr: 0x100006974, symSize: 0x2C }
  - { offsetInCU: 0x1CA43, offset: 0x287BE, size: 0x8, addend: 0x0, symName: __ZNSt3__116__non_trivial_ifILb1ENS_9allocatorINS_11__tree_nodeINS_12__value_typeIiNS_6vectorINS_12basic_stringIcNS_11char_traitsIcEENS1_IcEEEENS1_IS9_EEEEEEPvEEEEEC2B8ue170006Ev, symObjAddr: 0x4328, symBinAddr: 0x1000069A0, symSize: 0x14 }
  - { offsetInCU: 0x1CA6B, offset: 0x287E6, size: 0x8, addend: 0x0, symName: __ZNSt3__117__compressed_pairImNS_19__map_value_compareIiNS_12__value_typeIiNS_6vectorINS_12basic_stringIcNS_11char_traitsIcEENS_9allocatorIcEEEENS7_IS9_EEEEEENS_4lessIiEELb1EEEEC2B8ue170006IiRKSF_EEOT_OT0_, symObjAddr: 0x433C, symBinAddr: 0x1000069B4, symSize: 0x44 }
  - { offsetInCU: 0x1CAC1, offset: 0x2883C, size: 0x8, addend: 0x0, symName: __ZNSt3__122__compressed_pair_elemINS_19__map_value_compareIiNS_12__value_typeIiNS_6vectorINS_12basic_stringIcNS_11char_traitsIcEENS_9allocatorIcEEEENS7_IS9_EEEEEENS_4lessIiEELb1EEELi1ELb1EEC2B8ue170006IRKSF_vEEOT_, symObjAddr: 0x4380, symBinAddr: 0x1000069F8, symSize: 0x18 }
  - { offsetInCU: 0x1CB02, offset: 0x2887D, size: 0x8, addend: 0x0, symName: __ZNSt3__117__compressed_pairINS_15__tree_end_nodeIPNS_16__tree_node_baseIPvEEEENS_9allocatorINS_11__tree_nodeINS_12__value_typeIiNS_6vectorINS_12basic_stringIcNS_11char_traitsIcEENS7_IcEEEENS7_ISF_EEEEEES3_EEEEE5firstB8ue170006Ev, symObjAddr: 0x4398, symBinAddr: 0x100006A10, symSize: 0x24 }
  - { offsetInCU: 0x1CB26, offset: 0x288A1, size: 0x8, addend: 0x0, symName: __ZNSt3__16vectorIiNS_9allocatorIiEEED2B8ue170006Ev, symObjAddr: 0x43BC, symBinAddr: 0x100006A34, symSize: 0x3C }
  - { offsetInCU: 0x1CB4E, offset: 0x288C9, size: 0x8, addend: 0x0, symName: __ZNSt3__16vectorIiNS_9allocatorIiEEE16__destroy_vectorC1B8ue170006ERS3_, symObjAddr: 0x43F8, symBinAddr: 0x100006A70, symSize: 0x34 }
  - { offsetInCU: 0x1CB85, offset: 0x28900, size: 0x8, addend: 0x0, symName: __ZNSt3__16vectorIiNS_9allocatorIiEEE16__destroy_vectorclB8ue170006Ev, symObjAddr: 0x442C, symBinAddr: 0x100006AA4, symSize: 0x90 }
  - { offsetInCU: 0x1CBA9, offset: 0x28924, size: 0x8, addend: 0x0, symName: __ZNSt3__16vectorIiNS_9allocatorIiEEE16__destroy_vectorC2B8ue170006ERS3_, symObjAddr: 0x44BC, symBinAddr: 0x100006B34, symSize: 0x20 }
  - { offsetInCU: 0x1CBE0, offset: 0x2895B, size: 0x8, addend: 0x0, symName: __ZNSt3__16vectorIiNS_9allocatorIiEEE7__clearB8ue170006Ev, symObjAddr: 0x44DC, symBinAddr: 0x100006B54, symSize: 0x28 }
  - { offsetInCU: 0x1CC04, offset: 0x2897F, size: 0x8, addend: 0x0, symName: __ZNKSt3__16vectorIiNS_9allocatorIiEEE17__annotate_deleteB8ue170006Ev, symObjAddr: 0x4504, symBinAddr: 0x100006B7C, symSize: 0xB8 }
  - { offsetInCU: 0x1CC28, offset: 0x289A3, size: 0x8, addend: 0x0, symName: __ZNSt3__116allocator_traitsINS_9allocatorIiEEE10deallocateB8ue170006ERS2_Pim, symObjAddr: 0x45BC, symBinAddr: 0x100006C34, symSize: 0x34 }
  - { offsetInCU: 0x1CC69, offset: 0x289E4, size: 0x8, addend: 0x0, symName: __ZNSt3__16vectorIiNS_9allocatorIiEEE7__allocB8ue170006Ev, symObjAddr: 0x45F0, symBinAddr: 0x100006C68, symSize: 0x28 }
  - { offsetInCU: 0x1CC8D, offset: 0x28A08, size: 0x8, addend: 0x0, symName: __ZNKSt3__16vectorIiNS_9allocatorIiEEE8capacityB8ue170006Ev, symObjAddr: 0x4618, symBinAddr: 0x100006C90, symSize: 0x40 }
  - { offsetInCU: 0x1CCB1, offset: 0x28A2C, size: 0x8, addend: 0x0, symName: __ZNSt3__16vectorIiNS_9allocatorIiEEE22__base_destruct_at_endB8ue170006EPi, symObjAddr: 0x4658, symBinAddr: 0x100006CD0, symSize: 0xA0 }
  - { offsetInCU: 0x1CCF3, offset: 0x28A6E, size: 0x8, addend: 0x0, symName: __ZNSt3__116allocator_traitsINS_9allocatorIiEEE7destroyB8ue170006IivEEvRS2_PT_, symObjAddr: 0x46F8, symBinAddr: 0x100006D70, symSize: 0x2C }
  - { offsetInCU: 0x1CD30, offset: 0x28AAB, size: 0x8, addend: 0x0, symName: __ZNSt3__19allocatorIiE7destroyB8ue170006EPi, symObjAddr: 0x4738, symBinAddr: 0x100006DB0, symSize: 0x14 }
  - { offsetInCU: 0x1CD62, offset: 0x28ADD, size: 0x8, addend: 0x0, symName: __ZNKSt3__16vectorIiNS_9allocatorIiEEE31__annotate_contiguous_containerB8ue170006EPKvS5_S5_S5_, symObjAddr: 0x474C, symBinAddr: 0x100006DC4, symSize: 0x20 }
  - { offsetInCU: 0x1CDB6, offset: 0x28B31, size: 0x8, addend: 0x0, symName: __ZNKSt3__16vectorIiNS_9allocatorIiEEE4dataB8ue170006Ev, symObjAddr: 0x476C, symBinAddr: 0x100006DE4, symSize: 0x28 }
  - { offsetInCU: 0x1CDDA, offset: 0x28B55, size: 0x8, addend: 0x0, symName: __ZNKSt3__16vectorIiNS_9allocatorIiEEE4sizeB8ue170006Ev, symObjAddr: 0x4794, symBinAddr: 0x100006E0C, symSize: 0x28 }
  - { offsetInCU: 0x1CDFE, offset: 0x28B79, size: 0x8, addend: 0x0, symName: __ZNSt3__19allocatorIiE10deallocateB8ue170006EPim, symObjAddr: 0x47BC, symBinAddr: 0x100006E34, symSize: 0x70 }
  - { offsetInCU: 0x1CE3E, offset: 0x28BB9, size: 0x8, addend: 0x0, symName: __ZNSt3__117__compressed_pairIPiNS_9allocatorIiEEE6secondB8ue170006Ev, symObjAddr: 0x48B4, symBinAddr: 0x100006F20, symSize: 0x24 }
  - { offsetInCU: 0x1CE62, offset: 0x28BDD, size: 0x8, addend: 0x0, symName: __ZNSt3__122__compressed_pair_elemINS_9allocatorIiEELi1ELb1EE5__getB8ue170006Ev, symObjAddr: 0x48D8, symBinAddr: 0x100006F44, symSize: 0x14 }
  - { offsetInCU: 0x1CE86, offset: 0x28C01, size: 0x8, addend: 0x0, symName: __ZNKSt3__16vectorIiNS_9allocatorIiEEE9__end_capB8ue170006Ev, symObjAddr: 0x48EC, symBinAddr: 0x100006F58, symSize: 0x28 }
  - { offsetInCU: 0x1CEAA, offset: 0x28C25, size: 0x8, addend: 0x0, symName: __ZNKSt3__117__compressed_pairIPiNS_9allocatorIiEEE5firstB8ue170006Ev, symObjAddr: 0x4914, symBinAddr: 0x100006F80, symSize: 0x24 }
  - { offsetInCU: 0x1CECE, offset: 0x28C49, size: 0x8, addend: 0x0, symName: __ZNKSt3__122__compressed_pair_elemIPiLi0ELb0EE5__getB8ue170006Ev, symObjAddr: 0x4938, symBinAddr: 0x100006FA4, symSize: 0x14 }
  - { offsetInCU: 0x1CEF2, offset: 0x28C6D, size: 0x8, addend: 0x0, symName: __ZNSt3__13mapIi10competitorNS_4lessIiEENS_9allocatorINS_4pairIKiS1_EEEEED2B8ue170006Ev, symObjAddr: 0x494C, symBinAddr: 0x100006FB8, symSize: 0x2C }
  - { offsetInCU: 0x1CF1A, offset: 0x28C95, size: 0x8, addend: 0x0, symName: __ZNSt3__16__treeINS_12__value_typeIi10competitorEENS_19__map_value_compareIiS3_NS_4lessIiEELb1EEENS_9allocatorIS3_EEED1Ev, symObjAddr: 0x4978, symBinAddr: 0x100006FE4, symSize: 0x2C }
  - { offsetInCU: 0x1CF45, offset: 0x28CC0, size: 0x8, addend: 0x0, symName: __ZNSt3__16__treeINS_12__value_typeIi10competitorEENS_19__map_value_compareIiS3_NS_4lessIiEELb1EEENS_9allocatorIS3_EEED2Ev, symObjAddr: 0x49A4, symBinAddr: 0x100007010, symSize: 0x38 }
  - { offsetInCU: 0x1CF70, offset: 0x28CEB, size: 0x8, addend: 0x0, symName: __ZNSt3__16__treeINS_12__value_typeIi10competitorEENS_19__map_value_compareIiS3_NS_4lessIiEELb1EEENS_9allocatorIS3_EEE7destroyEPNS_11__tree_nodeIS3_PvEE, symObjAddr: 0x49DC, symBinAddr: 0x100007048, symSize: 0xC0 }
  - { offsetInCU: 0x1CFC3, offset: 0x28D3E, size: 0x8, addend: 0x0, symName: __ZNKSt3__16__treeINS_12__value_typeIi10competitorEENS_19__map_value_compareIiS3_NS_4lessIiEELb1EEENS_9allocatorIS3_EEE6__rootB8ue170006Ev, symObjAddr: 0x4A9C, symBinAddr: 0x100007108, symSize: 0x28 }
  - { offsetInCU: 0x1CFE7, offset: 0x28D62, size: 0x8, addend: 0x0, symName: __ZNSt3__16__treeINS_12__value_typeIi10competitorEENS_19__map_value_compareIiS3_NS_4lessIiEELb1EEENS_9allocatorIS3_EEE12__node_allocB8ue170006Ev, symObjAddr: 0x4AC4, symBinAddr: 0x100007130, symSize: 0x28 }
  - { offsetInCU: 0x1D00B, offset: 0x28D86, size: 0x8, addend: 0x0, symName: __ZNSt3__116allocator_traitsINS_9allocatorINS_11__tree_nodeINS_12__value_typeIi10competitorEEPvEEEEE7destroyB8ue170006INS_4pairIKiS4_EEvvEEvRS8_PT_, symObjAddr: 0x4AEC, symBinAddr: 0x100007158, symSize: 0x28 }
  - { offsetInCU: 0x1D047, offset: 0x28DC2, size: 0x8, addend: 0x0, symName: __ZNSt3__122__tree_key_value_typesINS_12__value_typeIi10competitorEEE9__get_ptrB8ue170006ERS3_, symObjAddr: 0x4B14, symBinAddr: 0x100007180, symSize: 0x24 }
  - { offsetInCU: 0x1D06A, offset: 0x28DE5, size: 0x8, addend: 0x0, symName: __ZNSt3__116allocator_traitsINS_9allocatorINS_11__tree_nodeINS_12__value_typeIi10competitorEEPvEEEEE10deallocateB8ue170006ERS8_PS7_m, symObjAddr: 0x4B38, symBinAddr: 0x1000071A4, symSize: 0x34 }
  - { offsetInCU: 0x1D0AB, offset: 0x28E26, size: 0x8, addend: 0x0, symName: __ZNSt3__117__compressed_pairINS_15__tree_end_nodeIPNS_16__tree_node_baseIPvEEEENS_9allocatorINS_11__tree_nodeINS_12__value_typeIi10competitorEES3_EEEEE6secondB8ue170006Ev, symObjAddr: 0x4B6C, symBinAddr: 0x1000071D8, symSize: 0x24 }
  - { offsetInCU: 0x1D0CF, offset: 0x28E4A, size: 0x8, addend: 0x0, symName: __ZNSt3__122__compressed_pair_elemINS_9allocatorINS_11__tree_nodeINS_12__value_typeIi10competitorEEPvEEEELi1ELb1EE5__getB8ue170006Ev, symObjAddr: 0x4B90, symBinAddr: 0x1000071FC, symSize: 0x14 }
  - { offsetInCU: 0x1D0F3, offset: 0x28E6E, size: 0x8, addend: 0x0, symName: __ZNSt3__112__value_typeIi10competitorE11__get_valueB8ue170006Ev, symObjAddr: 0x4BA4, symBinAddr: 0x100007210, symSize: 0x14 }
  - { offsetInCU: 0x1D117, offset: 0x28E92, size: 0x8, addend: 0x0, symName: __ZNSt3__19allocatorINS_11__tree_nodeINS_12__value_typeIi10competitorEEPvEEE10deallocateB8ue170006EPS6_m, symObjAddr: 0x4BB8, symBinAddr: 0x100007224, symSize: 0x74 }
  - { offsetInCU: 0x1D157, offset: 0x28ED2, size: 0x8, addend: 0x0, symName: __ZNKSt3__16__treeINS_12__value_typeIi10competitorEENS_19__map_value_compareIiS3_NS_4lessIiEELb1EEENS_9allocatorIS3_EEE10__end_nodeB8ue170006Ev, symObjAddr: 0x4C2C, symBinAddr: 0x100007298, symSize: 0x2C }
  - { offsetInCU: 0x1D17B, offset: 0x28EF6, size: 0x8, addend: 0x0, symName: __ZNKSt3__117__compressed_pairINS_15__tree_end_nodeIPNS_16__tree_node_baseIPvEEEENS_9allocatorINS_11__tree_nodeINS_12__value_typeIi10competitorEES3_EEEEE5firstB8ue170006Ev, symObjAddr: 0x4C58, symBinAddr: 0x1000072C4, symSize: 0x24 }
  - { offsetInCU: 0x1D19F, offset: 0x28F1A, size: 0x8, addend: 0x0, symName: __ZNKSt3__122__compressed_pair_elemINS_15__tree_end_nodeIPNS_16__tree_node_baseIPvEEEELi0ELb0EE5__getB8ue170006Ev, symObjAddr: 0x4C7C, symBinAddr: 0x1000072E8, symSize: 0x14 }
  - { offsetInCU: 0x1D1C3, offset: 0x28F3E, size: 0x8, addend: 0x0, symName: __ZNSt3__13mapIiNS_6vectorINS_12basic_stringIcNS_11char_traitsIcEENS_9allocatorIcEEEENS5_IS7_EEEENS_4lessIiEENS5_INS_4pairIKiS9_EEEEED2B8ue170006Ev, symObjAddr: 0x4C90, symBinAddr: 0x1000072FC, symSize: 0x2C }
  - { offsetInCU: 0x1D1EB, offset: 0x28F66, size: 0x8, addend: 0x0, symName: __ZNSt3__16__treeINS_12__value_typeIiNS_6vectorINS_12basic_stringIcNS_11char_traitsIcEENS_9allocatorIcEEEENS6_IS8_EEEEEENS_19__map_value_compareIiSB_NS_4lessIiEELb1EEENS6_ISB_EEED1Ev, symObjAddr: 0x4CBC, symBinAddr: 0x100007328, symSize: 0x2C }
  - { offsetInCU: 0x1D216, offset: 0x28F91, size: 0x8, addend: 0x0, symName: __ZNSt3__16__treeINS_12__value_typeIiNS_6vectorINS_12basic_stringIcNS_11char_traitsIcEENS_9allocatorIcEEEENS6_IS8_EEEEEENS_19__map_value_compareIiSB_NS_4lessIiEELb1EEENS6_ISB_EEED2Ev, symObjAddr: 0x4CE8, symBinAddr: 0x100007354, symSize: 0x38 }
  - { offsetInCU: 0x1D241, offset: 0x28FBC, size: 0x8, addend: 0x0, symName: __ZNSt3__16__treeINS_12__value_typeIiNS_6vectorINS_12basic_stringIcNS_11char_traitsIcEENS_9allocatorIcEEEENS6_IS8_EEEEEENS_19__map_value_compareIiSB_NS_4lessIiEELb1EEENS6_ISB_EEE7destroyEPNS_11__tree_nodeISB_PvEE, symObjAddr: 0x4D20, symBinAddr: 0x10000738C, symSize: 0xC0 }
  - { offsetInCU: 0x1D294, offset: 0x2900F, size: 0x8, addend: 0x0, symName: __ZNKSt3__16__treeINS_12__value_typeIiNS_6vectorINS_12basic_stringIcNS_11char_traitsIcEENS_9allocatorIcEEEENS6_IS8_EEEEEENS_19__map_value_compareIiSB_NS_4lessIiEELb1EEENS6_ISB_EEE6__rootB8ue170006Ev, symObjAddr: 0x4DE0, symBinAddr: 0x10000744C, symSize: 0x28 }
  - { offsetInCU: 0x1D2B8, offset: 0x29033, size: 0x8, addend: 0x0, symName: __ZNSt3__16__treeINS_12__value_typeIiNS_6vectorINS_12basic_stringIcNS_11char_traitsIcEENS_9allocatorIcEEEENS6_IS8_EEEEEENS_19__map_value_compareIiSB_NS_4lessIiEELb1EEENS6_ISB_EEE12__node_allocB8ue170006Ev, symObjAddr: 0x4E08, symBinAddr: 0x100007474, symSize: 0x28 }
  - { offsetInCU: 0x1D2DC, offset: 0x29057, size: 0x8, addend: 0x0, symName: __ZNSt3__116allocator_traitsINS_9allocatorINS_11__tree_nodeINS_12__value_typeIiNS_6vectorINS_12basic_stringIcNS_11char_traitsIcEENS1_IcEEEENS1_IS9_EEEEEEPvEEEEE7destroyB8ue170006INS_4pairIKiSB_EEvvEEvRSF_PT_, symObjAddr: 0x4E30, symBinAddr: 0x10000749C, symSize: 0x28 }
  - { offsetInCU: 0x1D318, offset: 0x29093, size: 0x8, addend: 0x0, symName: __ZNSt3__122__tree_key_value_typesINS_12__value_typeIiNS_6vectorINS_12basic_stringIcNS_11char_traitsIcEENS_9allocatorIcEEEENS6_IS8_EEEEEEE9__get_ptrB8ue170006ERSB_, symObjAddr: 0x4E58, symBinAddr: 0x1000074C4, symSize: 0x24 }
  - { offsetInCU: 0x1D33B, offset: 0x290B6, size: 0x8, addend: 0x0, symName: __ZNSt3__116allocator_traitsINS_9allocatorINS_11__tree_nodeINS_12__value_typeIiNS_6vectorINS_12basic_stringIcNS_11char_traitsIcEENS1_IcEEEENS1_IS9_EEEEEEPvEEEEE10deallocateB8ue170006ERSF_PSE_m, symObjAddr: 0x4E7C, symBinAddr: 0x1000074E8, symSize: 0x34 }
  - { offsetInCU: 0x1D37C, offset: 0x290F7, size: 0x8, addend: 0x0, symName: __ZNSt3__117__compressed_pairINS_15__tree_end_nodeIPNS_16__tree_node_baseIPvEEEENS_9allocatorINS_11__tree_nodeINS_12__value_typeIiNS_6vectorINS_12basic_stringIcNS_11char_traitsIcEENS7_IcEEEENS7_ISF_EEEEEES3_EEEEE6secondB8ue170006Ev, symObjAddr: 0x4EB0, symBinAddr: 0x10000751C, symSize: 0x24 }
  - { offsetInCU: 0x1D3A0, offset: 0x2911B, size: 0x8, addend: 0x0, symName: __ZNSt3__122__compressed_pair_elemINS_9allocatorINS_11__tree_nodeINS_12__value_typeIiNS_6vectorINS_12basic_stringIcNS_11char_traitsIcEENS1_IcEEEENS1_IS9_EEEEEEPvEEEELi1ELb1EE5__getB8ue170006Ev, symObjAddr: 0x4ED4, symBinAddr: 0x100007540, symSize: 0x14 }
  - { offsetInCU: 0x1D3C4, offset: 0x2913F, size: 0x8, addend: 0x0, symName: __ZNSt3__112__value_typeIiNS_6vectorINS_12basic_stringIcNS_11char_traitsIcEENS_9allocatorIcEEEENS5_IS7_EEEEE11__get_valueB8ue170006Ev, symObjAddr: 0x4EE8, symBinAddr: 0x100007554, symSize: 0x14 }
  - { offsetInCU: 0x1D3E8, offset: 0x29163, size: 0x8, addend: 0x0, symName: __ZNSt3__19allocatorINS_11__tree_nodeINS_12__value_typeIiNS_6vectorINS_12basic_stringIcNS_11char_traitsIcEENS0_IcEEEENS0_IS8_EEEEEEPvEEE10deallocateB8ue170006EPSD_m, symObjAddr: 0x4EFC, symBinAddr: 0x100007568, symSize: 0x70 }
  - { offsetInCU: 0x1D428, offset: 0x291A3, size: 0x8, addend: 0x0, symName: __ZNKSt3__16__treeINS_12__value_typeIiNS_6vectorINS_12basic_stringIcNS_11char_traitsIcEENS_9allocatorIcEEEENS6_IS8_EEEEEENS_19__map_value_compareIiSB_NS_4lessIiEELb1EEENS6_ISB_EEE10__end_nodeB8ue170006Ev, symObjAddr: 0x4F6C, symBinAddr: 0x1000075D8, symSize: 0x2C }
  - { offsetInCU: 0x1D44C, offset: 0x291C7, size: 0x8, addend: 0x0, symName: __ZNKSt3__117__compressed_pairINS_15__tree_end_nodeIPNS_16__tree_node_baseIPvEEEENS_9allocatorINS_11__tree_nodeINS_12__value_typeIiNS_6vectorINS_12basic_stringIcNS_11char_traitsIcEENS7_IcEEEENS7_ISF_EEEEEES3_EEEEE5firstB8ue170006Ev, symObjAddr: 0x4F98, symBinAddr: 0x100007604, symSize: 0x24 }
  - { offsetInCU: 0x1D48E, offset: 0x29209, size: 0x8, addend: 0x0, symName: __ZNKSt3__16vectorIiNS_9allocatorIiEEE17__annotate_shrinkB8ue170006Em, symObjAddr: 0x5B18, symBinAddr: 0x100007628, symSize: 0xB4 }
  - { offsetInCU: 0x1D4C1, offset: 0x2923C, size: 0x8, addend: 0x0, symName: __ZNSt3__16__treeINS_12__value_typeIi10competitorEENS_19__map_value_compareIiS3_NS_4lessIiEELb1EEENS_9allocatorIS3_EEE5clearEv, symObjAddr: 0x5BCC, symBinAddr: 0x1000076DC, symSize: 0x74 }
  - { offsetInCU: 0x1D4E7, offset: 0x29262, size: 0x8, addend: 0x0, symName: __ZNSt3__16__treeINS_12__value_typeIi10competitorEENS_19__map_value_compareIiS3_NS_4lessIiEELb1EEENS_9allocatorIS3_EEE4sizeB8ue170006Ev, symObjAddr: 0x5C40, symBinAddr: 0x100007750, symSize: 0x28 }
  - { offsetInCU: 0x1D50B, offset: 0x29286, size: 0x8, addend: 0x0, symName: __ZNSt3__117__compressed_pairImNS_19__map_value_compareIiNS_12__value_typeIi10competitorEENS_4lessIiEELb1EEEE5firstB8ue170006Ev, symObjAddr: 0x5C68, symBinAddr: 0x100007778, symSize: 0x24 }
  - { offsetInCU: 0x1D52F, offset: 0x292AA, size: 0x8, addend: 0x0, symName: __ZNSt3__122__compressed_pair_elemImLi0ELb0EE5__getB8ue170006Ev, symObjAddr: 0x5C8C, symBinAddr: 0x10000779C, symSize: 0x14 }
  - { offsetInCU: 0x1D553, offset: 0x292CE, size: 0x8, addend: 0x0, symName: __ZNSt3__16__treeINS_12__value_typeIiNS_6vectorINS_12basic_stringIcNS_11char_traitsIcEENS_9allocatorIcEEEENS6_IS8_EEEEEENS_19__map_value_compareIiSB_NS_4lessIiEELb1EEENS6_ISB_EEE5clearEv, symObjAddr: 0x5CA0, symBinAddr: 0x1000077B0, symSize: 0x74 }
  - { offsetInCU: 0x1D579, offset: 0x292F4, size: 0x8, addend: 0x0, symName: __ZNSt3__16__treeINS_12__value_typeIiNS_6vectorINS_12basic_stringIcNS_11char_traitsIcEENS_9allocatorIcEEEENS6_IS8_EEEEEENS_19__map_value_compareIiSB_NS_4lessIiEELb1EEENS6_ISB_EEE4sizeB8ue170006Ev, symObjAddr: 0x5D14, symBinAddr: 0x100007824, symSize: 0x28 }
  - { offsetInCU: 0x1D59D, offset: 0x29318, size: 0x8, addend: 0x0, symName: __ZNSt3__117__compressed_pairImNS_19__map_value_compareIiNS_12__value_typeIiNS_6vectorINS_12basic_stringIcNS_11char_traitsIcEENS_9allocatorIcEEEENS7_IS9_EEEEEENS_4lessIiEELb1EEEE5firstB8ue170006Ev, symObjAddr: 0x5D3C, symBinAddr: 0x10000784C, symSize: 0x24 }
  - { offsetInCU: 0x1D5C1, offset: 0x2933C, size: 0x8, addend: 0x0, symName: __ZNSt3__112basic_stringIcNS_11char_traitsIcEENS_9allocatorIcEEEC2B8ue170006ILi0EEEPKc, symObjAddr: 0x5D60, symBinAddr: 0x100007870, symSize: 0x58 }
  - { offsetInCU: 0x1D5FF, offset: 0x2937A, size: 0x8, addend: 0x0, symName: __ZNKSt3__112basic_stringIcNS_11char_traitsIcEENS_9allocatorIcEEE15__get_long_sizeB8ue170006Ev, symObjAddr: 0x5DB8, symBinAddr: 0x1000078C8, symSize: 0x28 }
  - { offsetInCU: 0x1D623, offset: 0x2939E, size: 0x8, addend: 0x0, symName: __ZNKSt3__112basic_stringIcNS_11char_traitsIcEENS_9allocatorIcEEE16__get_short_sizeB8ue170006Ev, symObjAddr: 0x5DE0, symBinAddr: 0x1000078F0, symSize: 0x34 }
  - { offsetInCU: 0x1D647, offset: 0x293C2, size: 0x8, addend: 0x0, symName: __ZNSt3__112basic_stringIcNS_11char_traitsIcEENS_9allocatorIcEEE13__get_pointerB8ue170006Ev, symObjAddr: 0x5E14, symBinAddr: 0x100007924, symSize: 0x54 }
  - { offsetInCU: 0x1D66B, offset: 0x293E6, size: 0x8, addend: 0x0, symName: __ZNSt3__112basic_stringIcNS_11char_traitsIcEENS_9allocatorIcEEE18__get_long_pointerB8ue170006Ev, symObjAddr: 0x5E68, symBinAddr: 0x100007978, symSize: 0x28 }
  - { offsetInCU: 0x1D68F, offset: 0x2940A, size: 0x8, addend: 0x0, symName: __ZNSt3__112basic_stringIcNS_11char_traitsIcEENS_9allocatorIcEEE19__get_short_pointerB8ue170006Ev, symObjAddr: 0x5E90, symBinAddr: 0x1000079A0, symSize: 0x28 }
  - { offsetInCU: 0x1D6B3, offset: 0x2942E, size: 0x8, addend: 0x0, symName: __ZNSt3__117__compressed_pairINS_12basic_stringIcNS_11char_traitsIcEENS_9allocatorIcEEE5__repES5_E5firstB8ue170006Ev, symObjAddr: 0x5EB8, symBinAddr: 0x1000079C8, symSize: 0x24 }
  - { offsetInCU: 0x1D6D7, offset: 0x29452, size: 0x8, addend: 0x0, symName: __ZNSt3__122__compressed_pair_elemINS_12basic_stringIcNS_11char_traitsIcEENS_9allocatorIcEEE5__repELi0ELb0EE5__getB8ue170006Ev, symObjAddr: 0x5EDC, symBinAddr: 0x1000079EC, symSize: 0x14 }
  - { offsetInCU: 0x1D6FB, offset: 0x29476, size: 0x8, addend: 0x0, symName: __ZNSt3__114pointer_traitsIPcE10pointer_toB8ue170006ERc, symObjAddr: 0x5EF0, symBinAddr: 0x100007A00, symSize: 0x14 }
  - { offsetInCU: 0x1D71D, offset: 0x29498, size: 0x8, addend: 0x0, symName: __ZNSt3__112basic_stringIcNS_11char_traitsIcEENS_9allocatorIcEEEC2B8ue170006Ev, symObjAddr: 0x5F04, symBinAddr: 0x100007A14, symSize: 0x3C }
  - { offsetInCU: 0x1D745, offset: 0x294C0, size: 0x8, addend: 0x0, symName: __ZNSt3__112basic_stringIcNS_11char_traitsIcEENS_9allocatorIcEEE14__default_initB8ue170006Ev, symObjAddr: 0x5F40, symBinAddr: 0x100007A50, symSize: 0xB0 }
  - { offsetInCU: 0x1D796, offset: 0x29511, size: 0x8, addend: 0x0, symName: __ZNSt3__112basic_stringIcNS_11char_traitsIcEENS_9allocatorIcEEE11__recommendB8ue170006Em, symObjAddr: 0x5FF0, symBinAddr: 0x100007B00, symSize: 0x9C }
  - { offsetInCU: 0x1D7C8, offset: 0x29543, size: 0x8, addend: 0x0, symName: __ZNSt3__116allocator_traitsINS_9allocatorIcEEE8allocateB8ue170006ERS2_m, symObjAddr: 0x608C, symBinAddr: 0x100007B9C, symSize: 0x2C }
  - { offsetInCU: 0x1D7FA, offset: 0x29575, size: 0x8, addend: 0x0, symName: __ZNSt3__112basic_stringIcNS_11char_traitsIcEENS_9allocatorIcEEE7__allocB8ue170006Ev, symObjAddr: 0x60B8, symBinAddr: 0x100007BC8, symSize: 0x24 }
  - { offsetInCU: 0x1D81E, offset: 0x29599, size: 0x8, addend: 0x0, symName: __ZNSt3__112basic_stringIcNS_11char_traitsIcEENS_9allocatorIcEEE16__begin_lifetimeB8ue170006EPcm, symObjAddr: 0x60DC, symBinAddr: 0x100007BEC, symSize: 0x14 }
  - { offsetInCU: 0x1D850, offset: 0x295CB, size: 0x8, addend: 0x0, symName: __ZNSt3__112basic_stringIcNS_11char_traitsIcEENS_9allocatorIcEEE18__set_long_pointerB8ue170006EPc, symObjAddr: 0x60F0, symBinAddr: 0x100007C00, symSize: 0x38 }
  - { offsetInCU: 0x1D883, offset: 0x295FE, size: 0x8, addend: 0x0, symName: __ZNSt3__112basic_stringIcNS_11char_traitsIcEENS_9allocatorIcEEE14__set_long_capB8ue170006Em, symObjAddr: 0x6128, symBinAddr: 0x100007C38, symSize: 0x70 }
  - { offsetInCU: 0x1D8B6, offset: 0x29631, size: 0x8, addend: 0x0, symName: __ZNSt3__112basic_stringIcNS_11char_traitsIcEENS_9allocatorIcEEE15__set_long_sizeB8ue170006Em, symObjAddr: 0x6198, symBinAddr: 0x100007CA8, symSize: 0x38 }
  - { offsetInCU: 0x1D8E9, offset: 0x29664, size: 0x8, addend: 0x0, symName: __ZNSt3__112basic_stringIcNS_11char_traitsIcEENS_9allocatorIcEEE10__align_itB8ue170006ILm16EEEmm, symObjAddr: 0x61D0, symBinAddr: 0x100007CE0, symSize: 0x1C }
  - { offsetInCU: 0x1D916, offset: 0x29691, size: 0x8, addend: 0x0, symName: __ZNSt3__19allocatorIcE8allocateB8ue170006Em, symObjAddr: 0x61EC, symBinAddr: 0x100007CFC, symSize: 0x84 }
  - { offsetInCU: 0x1D952, offset: 0x296CD, size: 0x8, addend: 0x0, symName: __ZNSt3__116allocator_traitsINS_9allocatorIcEEE8max_sizeB8ue170006IS2_vEEmRKS2_, symObjAddr: 0x6270, symBinAddr: 0x100007D80, symSize: 0x24 }
  - { offsetInCU: 0x1D980, offset: 0x296FB, size: 0x8, addend: 0x0, symName: __ZNKSt3__19allocatorIcE8max_sizeB8ue170006Ev, symObjAddr: 0x62F0, symBinAddr: 0x100007E00, symSize: 0x14 }
  - { offsetInCU: 0x1D9A4, offset: 0x2971F, size: 0x8, addend: 0x0, symName: __ZNSt3__117__compressed_pairINS_12basic_stringIcNS_11char_traitsIcEENS_9allocatorIcEEE5__repES5_E6secondB8ue170006Ev, symObjAddr: 0x6328, symBinAddr: 0x100007E38, symSize: 0x24 }
  - { offsetInCU: 0x1D9C8, offset: 0x29743, size: 0x8, addend: 0x0, symName: __ZNSt3__122__compressed_pair_elemINS_9allocatorIcEELi1ELb1EE5__getB8ue170006Ev, symObjAddr: 0x634C, symBinAddr: 0x100007E5C, symSize: 0x14 }
  - { offsetInCU: 0x1D9EC, offset: 0x29767, size: 0x8, addend: 0x0, symName: __ZNSt3__16vectorIiNS_9allocatorIiEEE9__end_capB8ue170006Ev, symObjAddr: 0x6360, symBinAddr: 0x100007E70, symSize: 0x28 }
  - { offsetInCU: 0x1DA10, offset: 0x2978B, size: 0x8, addend: 0x0, symName: __ZNSt3__16vectorIiNS_9allocatorIiEEE22__construct_one_at_endB8ue170006IJRKiEEEvDpOT_, symObjAddr: 0x6388, symBinAddr: 0x100007E98, symSize: 0x98 }
  - { offsetInCU: 0x1DA5D, offset: 0x297D8, size: 0x8, addend: 0x0, symName: __ZNSt3__16vectorIiNS_9allocatorIiEEE21__push_back_slow_pathIRKiEEvOT_, symObjAddr: 0x6420, symBinAddr: 0x100007F30, symSize: 0xE0 }
  - { offsetInCU: 0x1DAB9, offset: 0x29834, size: 0x8, addend: 0x0, symName: __ZNSt3__117__compressed_pairIPiNS_9allocatorIiEEE5firstB8ue170006Ev, symObjAddr: 0x6500, symBinAddr: 0x100008010, symSize: 0x24 }
  - { offsetInCU: 0x1DADD, offset: 0x29858, size: 0x8, addend: 0x0, symName: __ZNSt3__122__compressed_pair_elemIPiLi0ELb0EE5__getB8ue170006Ev, symObjAddr: 0x6524, symBinAddr: 0x100008034, symSize: 0x14 }
  - { offsetInCU: 0x1DB1A, offset: 0x29895, size: 0x8, addend: 0x0, symName: __ZNSt3__16vectorIiNS_9allocatorIiEEE21_ConstructTransactionC1B8ue170006ERS3_m, symObjAddr: 0x6538, symBinAddr: 0x100008048, symSize: 0x3C }
  - { offsetInCU: 0x1DB60, offset: 0x298DB, size: 0x8, addend: 0x0, symName: __ZNSt3__116allocator_traitsINS_9allocatorIiEEE9constructB8ue170006IiJRKiEvEEvRS2_PT_DpOT0_, symObjAddr: 0x6574, symBinAddr: 0x100008084, symSize: 0x34 }
  - { offsetInCU: 0x1DBB7, offset: 0x29932, size: 0x8, addend: 0x0, symName: __ZNSt3__16vectorIiNS_9allocatorIiEEE21_ConstructTransactionD1B8ue170006Ev, symObjAddr: 0x65A8, symBinAddr: 0x1000080B8, symSize: 0x2C }
  - { offsetInCU: 0x1DBDF, offset: 0x2995A, size: 0x8, addend: 0x0, symName: __ZNSt3__16vectorIiNS_9allocatorIiEEE21_ConstructTransactionC2B8ue170006ERS3_m, symObjAddr: 0x65D4, symBinAddr: 0x1000080E4, symSize: 0x44 }
  - { offsetInCU: 0x1DC25, offset: 0x299A0, size: 0x8, addend: 0x0, symName: __ZNSt3__19allocatorIiE9constructB8ue170006IiJRKiEEEvPT_DpOT0_, symObjAddr: 0x6618, symBinAddr: 0x100008128, symSize: 0x28 }
  - { offsetInCU: 0x1DC79, offset: 0x299F4, size: 0x8, addend: 0x0, symName: __ZNSt3__16vectorIiNS_9allocatorIiEEE21_ConstructTransactionD2B8ue170006Ev, symObjAddr: 0x6640, symBinAddr: 0x100008150, symSize: 0x20 }
  - { offsetInCU: 0x1DCA1, offset: 0x29A1C, size: 0x8, addend: 0x0, symName: __ZNKSt3__16vectorIiNS_9allocatorIiEEE11__recommendB8ue170006Em, symObjAddr: 0x6660, symBinAddr: 0x100008170, symSize: 0xB4 }
  - { offsetInCU: 0x1DCF4, offset: 0x29A6F, size: 0x8, addend: 0x0, symName: __ZNSt3__114__split_bufferIiRNS_9allocatorIiEEEC1EmmS3_, symObjAddr: 0x6714, symBinAddr: 0x100008224, symSize: 0x44 }
  - { offsetInCU: 0x1DD49, offset: 0x29AC4, size: 0x8, addend: 0x0, symName: __ZNSt3__114__split_bufferIiRNS_9allocatorIiEEED1Ev, symObjAddr: 0x6868, symBinAddr: 0x100008378, symSize: 0x2C }
  - { offsetInCU: 0x1DD74, offset: 0x29AEF, size: 0x8, addend: 0x0, symName: __ZNKSt3__16vectorIiNS_9allocatorIiEEE8max_sizeEv, symObjAddr: 0x6894, symBinAddr: 0x1000083A4, symSize: 0x74 }
  - { offsetInCU: 0x1DD9A, offset: 0x29B15, size: 0x8, addend: 0x0, symName: __ZNKSt3__16vectorIiNS_9allocatorIiEEE20__throw_length_errorB8ue170006Ev, symObjAddr: 0x6908, symBinAddr: 0x100008418, symSize: 0x1C }
  - { offsetInCU: 0x1DDC8, offset: 0x29B43, size: 0x8, addend: 0x0, symName: __ZNSt3__116allocator_traitsINS_9allocatorIiEEE8max_sizeB8ue170006IS2_vEEmRKS2_, symObjAddr: 0x697C, symBinAddr: 0x10000848C, symSize: 0x24 }
  - { offsetInCU: 0x1DDF6, offset: 0x29B71, size: 0x8, addend: 0x0, symName: __ZNKSt3__16vectorIiNS_9allocatorIiEEE7__allocB8ue170006Ev, symObjAddr: 0x69A0, symBinAddr: 0x1000084B0, symSize: 0x28 }
  - { offsetInCU: 0x1DE1A, offset: 0x29B95, size: 0x8, addend: 0x0, symName: __ZNSt3__114numeric_limitsIlE3maxB8ue170006Ev, symObjAddr: 0x69C8, symBinAddr: 0x1000084D8, symSize: 0x14 }
  - { offsetInCU: 0x1DE38, offset: 0x29BB3, size: 0x8, addend: 0x0, symName: __ZNKSt3__16__lessIvvEclB8ue170006ImmEEbRKT_RKT0_, symObjAddr: 0x6A30, symBinAddr: 0x100008540, symSize: 0x34 }
  - { offsetInCU: 0x1DE8A, offset: 0x29C05, size: 0x8, addend: 0x0, symName: __ZNKSt3__19allocatorIiE8max_sizeB8ue170006Ev, symObjAddr: 0x6A64, symBinAddr: 0x100008574, symSize: 0x14 }
  - { offsetInCU: 0x1DEAE, offset: 0x29C29, size: 0x8, addend: 0x0, symName: __ZNKSt3__117__compressed_pairIPiNS_9allocatorIiEEE6secondB8ue170006Ev, symObjAddr: 0x6A78, symBinAddr: 0x100008588, symSize: 0x24 }
  - { offsetInCU: 0x1DED2, offset: 0x29C4D, size: 0x8, addend: 0x0, symName: __ZNKSt3__122__compressed_pair_elemINS_9allocatorIiEELi1ELb1EE5__getB8ue170006Ev, symObjAddr: 0x6A9C, symBinAddr: 0x1000085AC, symSize: 0x14 }
  - { offsetInCU: 0x1DEF6, offset: 0x29C71, size: 0x8, addend: 0x0, symName: __ZNSt3__123__libcpp_numeric_limitsIlLb1EE3maxB8ue170006Ev, symObjAddr: 0x6AB0, symBinAddr: 0x1000085C0, symSize: 0x8 }
  - { offsetInCU: 0x1DF09, offset: 0x29C84, size: 0x8, addend: 0x0, symName: __ZNSt12length_errorC1B8ue170006EPKc, symObjAddr: 0x6B1C, symBinAddr: 0x10000862C, symSize: 0x34 }
  - { offsetInCU: 0x1DF3F, offset: 0x29CBA, size: 0x8, addend: 0x0, symName: __ZNSt12length_errorC2B8ue170006EPKc, symObjAddr: 0x6B50, symBinAddr: 0x100008660, symSize: 0x4C }
  - { offsetInCU: 0x1DF75, offset: 0x29CF0, size: 0x8, addend: 0x0, symName: __ZNSt3__114__split_bufferIiRNS_9allocatorIiEEEC2EmmS3_, symObjAddr: 0x6BF0, symBinAddr: 0x100008700, symSize: 0xD4 }
  - { offsetInCU: 0x1DFE8, offset: 0x29D63, size: 0x8, addend: 0x0, symName: __ZNSt3__117__compressed_pairIPiRNS_9allocatorIiEEEC1B8ue170006IDnS4_EEOT_OT0_, symObjAddr: 0x6CC4, symBinAddr: 0x1000087D4, symSize: 0x3C }
  - { offsetInCU: 0x1E03E, offset: 0x29DB9, size: 0x8, addend: 0x0, symName: __ZNSt3__114__split_bufferIiRNS_9allocatorIiEEE7__allocB8ue170006Ev, symObjAddr: 0x6D40, symBinAddr: 0x100008850, symSize: 0x28 }
  - { offsetInCU: 0x1E062, offset: 0x29DDD, size: 0x8, addend: 0x0, symName: __ZNSt3__114__split_bufferIiRNS_9allocatorIiEEE9__end_capB8ue170006Ev, symObjAddr: 0x6D68, symBinAddr: 0x100008878, symSize: 0x28 }
  - { offsetInCU: 0x1E086, offset: 0x29E01, size: 0x8, addend: 0x0, symName: __ZNSt3__117__compressed_pairIPiRNS_9allocatorIiEEEC2B8ue170006IDnS4_EEOT_OT0_, symObjAddr: 0x6D90, symBinAddr: 0x1000088A0, symSize: 0x48 }
  - { offsetInCU: 0x1E0DC, offset: 0x29E57, size: 0x8, addend: 0x0, symName: __ZNSt3__122__compressed_pair_elemIRNS_9allocatorIiEELi1ELb0EEC2B8ue170006IS3_vEEOT_, symObjAddr: 0x6DD8, symBinAddr: 0x1000088E8, symSize: 0x20 }
  - { offsetInCU: 0x1E11D, offset: 0x29E98, size: 0x8, addend: 0x0, symName: __ZNSt3__19allocatorIiE8allocateB8ue170006Em, symObjAddr: 0x6DF8, symBinAddr: 0x100008908, symSize: 0x84 }
  - { offsetInCU: 0x1E14F, offset: 0x29ECA, size: 0x8, addend: 0x0, symName: __ZNSt3__117__compressed_pairIPiRNS_9allocatorIiEEE6secondB8ue170006Ev, symObjAddr: 0x6E7C, symBinAddr: 0x10000898C, symSize: 0x28 }
  - { offsetInCU: 0x1E173, offset: 0x29EEE, size: 0x8, addend: 0x0, symName: __ZNSt3__122__compressed_pair_elemIRNS_9allocatorIiEELi1ELb0EE5__getB8ue170006Ev, symObjAddr: 0x6EA4, symBinAddr: 0x1000089B4, symSize: 0x18 }
  - { offsetInCU: 0x1E197, offset: 0x29F12, size: 0x8, addend: 0x0, symName: __ZNSt3__117__compressed_pairIPiRNS_9allocatorIiEEE5firstB8ue170006Ev, symObjAddr: 0x6EBC, symBinAddr: 0x1000089CC, symSize: 0x24 }
  - { offsetInCU: 0x1E1BB, offset: 0x29F36, size: 0x8, addend: 0x0, symName: __ZNSt3__116reverse_iteratorIPiEC1B8ue170006ES1_, symObjAddr: 0x6FC8, symBinAddr: 0x100008AD8, symSize: 0x34 }
  - { offsetInCU: 0x1E1F1, offset: 0x29F6C, size: 0x8, addend: 0x0, symName: __ZNKSt3__116reverse_iteratorIPiE4baseB8ue170006Ev, symObjAddr: 0x6FFC, symBinAddr: 0x100008B0C, symSize: 0x18 }
  - { offsetInCU: 0x1E215, offset: 0x29F90, size: 0x8, addend: 0x0, symName: __ZNKSt3__16vectorIiNS_9allocatorIiEEE14__annotate_newB8ue170006Em, symObjAddr: 0x7050, symBinAddr: 0x100008B60, symSize: 0xAC }
  - { offsetInCU: 0x1E248, offset: 0x29FC3, size: 0x8, addend: 0x0, symName: __ZNKSt3__116reverse_iteratorIPiEdeB8ue170006Ev, symObjAddr: 0x7194, symBinAddr: 0x100008CA4, symSize: 0x28 }
  - { offsetInCU: 0x1E27A, offset: 0x29FF5, size: 0x8, addend: 0x0, symName: __ZNSt3__116reverse_iteratorIPiEppB8ue170006Ev, symObjAddr: 0x71BC, symBinAddr: 0x100008CCC, symSize: 0x20 }
  - { offsetInCU: 0x1E2A3, offset: 0x2A01E, size: 0x8, addend: 0x0, symName: __ZNSt3__119__to_address_helperINS_16reverse_iteratorIPiEEvE6__callB8ue170006ERKS3_, symObjAddr: 0x7254, symBinAddr: 0x100008D64, symSize: 0x4C }
  - { offsetInCU: 0x1E2C5, offset: 0x2A040, size: 0x8, addend: 0x0, symName: __ZNKSt3__116reverse_iteratorIPiEptB8ue170006Ev, symObjAddr: 0x72A0, symBinAddr: 0x100008DB0, symSize: 0x24 }
  - { offsetInCU: 0x1E30C, offset: 0x2A087, size: 0x8, addend: 0x0, symName: __ZNKSt3__111__move_loopINS_17_ClassicAlgPolicyEEclB8ue170006INS_16reverse_iteratorIPiEES6_S6_EENS_4pairIT_T1_EES8_T0_S9_, symObjAddr: 0x753C, symBinAddr: 0x10000904C, symSize: 0xA0 }
  - { offsetInCU: 0x1E375, offset: 0x2A0F0, size: 0x8, addend: 0x0, symName: __ZNSt3__18_IterOpsINS_17_ClassicAlgPolicyEE11__iter_moveB8ue170006IRNS_16reverse_iteratorIPiEEEENS_9enable_ifIXsr12is_referenceIDTdeclsr3stdE7declvalIRT_EEEEE5valueEDTclsr3stdE4movedeclsr3stdE7declvalISA_EEEEE4typeEOS9_, symObjAddr: 0x773C, symBinAddr: 0x10000924C, symSize: 0x28 }
  - { offsetInCU: 0x1E3A0, offset: 0x2A11B, size: 0x8, addend: 0x0, symName: __ZNSt3__18_IterOpsINS_17_ClassicAlgPolicyEE25__validate_iter_referenceB8ue170006IRNS_16reverse_iteratorIPiEEEEvv, symObjAddr: 0x7764, symBinAddr: 0x100009274, symSize: 0x4 }
  - { offsetInCU: 0x1E3BD, offset: 0x2A138, size: 0x8, addend: 0x0, symName: __ZNSt3__118__unwrap_iter_implINS_16reverse_iteratorIPiEELb0EE8__unwrapB8ue170006ES3_, symObjAddr: 0x7768, symBinAddr: 0x100009278, symSize: 0x24 }
  - { offsetInCU: 0x1E3DF, offset: 0x2A15A, size: 0x8, addend: 0x0, symName: __ZNSt3__14pairINS_16reverse_iteratorIPiEES3_EC1B8ue170006ERKS3_S6_, symObjAddr: 0x778C, symBinAddr: 0x10000929C, symSize: 0x3C }
  - { offsetInCU: 0x1E423, offset: 0x2A19E, size: 0x8, addend: 0x0, symName: __ZNSt3__14pairINS_16reverse_iteratorIPiEES3_EC2B8ue170006ERKS3_S6_, symObjAddr: 0x77C8, symBinAddr: 0x1000092D8, symSize: 0x34 }
  - { offsetInCU: 0x1E467, offset: 0x2A1E2, size: 0x8, addend: 0x0, symName: __ZNSt3__118__unwrap_iter_implINS_16reverse_iteratorIPiEELb0EE8__rewrapB8ue170006ES3_S3_, symObjAddr: 0x77FC, symBinAddr: 0x10000930C, symSize: 0x2C }
  - { offsetInCU: 0x1E493, offset: 0x2A20E, size: 0x8, addend: 0x0, symName: __ZNSt3__116reverse_iteratorIPiEC2B8ue170006ES1_, symObjAddr: 0x7828, symBinAddr: 0x100009338, symSize: 0x28 }
  - { offsetInCU: 0x1E4C9, offset: 0x2A244, size: 0x8, addend: 0x0, symName: __ZNSt3__114__split_bufferIiRNS_9allocatorIiEEED2Ev, symObjAddr: 0x7850, symBinAddr: 0x100009360, symSize: 0x80 }
  - { offsetInCU: 0x1E4F4, offset: 0x2A26F, size: 0x8, addend: 0x0, symName: __ZNSt3__114__split_bufferIiRNS_9allocatorIiEEE5clearB8ue170006Ev, symObjAddr: 0x78D0, symBinAddr: 0x1000093E0, symSize: 0x28 }
  - { offsetInCU: 0x1E518, offset: 0x2A293, size: 0x8, addend: 0x0, symName: __ZNKSt3__114__split_bufferIiRNS_9allocatorIiEEE8capacityB8ue170006Ev, symObjAddr: 0x78F8, symBinAddr: 0x100009408, symSize: 0x40 }
  - { offsetInCU: 0x1E53C, offset: 0x2A2B7, size: 0x8, addend: 0x0, symName: __ZNSt3__114__split_bufferIiRNS_9allocatorIiEEE17__destruct_at_endB8ue170006EPi, symObjAddr: 0x7938, symBinAddr: 0x100009448, symSize: 0x2C }
  - { offsetInCU: 0x1E56E, offset: 0x2A2E9, size: 0x8, addend: 0x0, symName: __ZNSt3__114__split_bufferIiRNS_9allocatorIiEEE17__destruct_at_endB8ue170006EPiNS_17integral_constantIbLb0EEE, symObjAddr: 0x7964, symBinAddr: 0x100009474, symSize: 0x94 }
  - { offsetInCU: 0x1E5AC, offset: 0x2A327, size: 0x8, addend: 0x0, symName: __ZNKSt3__114__split_bufferIiRNS_9allocatorIiEEE9__end_capB8ue170006Ev, symObjAddr: 0x79F8, symBinAddr: 0x100009508, symSize: 0x28 }
  - { offsetInCU: 0x1E5D0, offset: 0x2A34B, size: 0x8, addend: 0x0, symName: __ZNKSt3__117__compressed_pairIPiRNS_9allocatorIiEEE5firstB8ue170006Ev, symObjAddr: 0x7A20, symBinAddr: 0x100009530, symSize: 0x24 }
  - { offsetInCU: 0x1E5F4, offset: 0x2A36F, size: 0x8, addend: 0x0, symName: __ZNSt3__14pairIi10competitorEC1B8ue170006ERKiRKS1_, symObjAddr: 0x7A44, symBinAddr: 0x100009554, symSize: 0x3C }
  - { offsetInCU: 0x1E638, offset: 0x2A3B3, size: 0x8, addend: 0x0, symName: __ZNSt3__14pairIi10competitorEC2B8ue170006ERKiRKS1_, symObjAddr: 0x7A80, symBinAddr: 0x100009590, symSize: 0x48 }
  - { offsetInCU: 0x1E67C, offset: 0x2A3F7, size: 0x8, addend: 0x0, symName: __ZN10competitorC1ERKS_, symObjAddr: 0x7AC8, symBinAddr: 0x1000095D8, symSize: 0x34 }
  - { offsetInCU: 0x1E6B0, offset: 0x2A42B, size: 0x8, addend: 0x0, symName: __ZN10competitorC2ERKS_, symObjAddr: 0x7AFC, symBinAddr: 0x10000960C, symSize: 0x40 }
  - { offsetInCU: 0x1E6E4, offset: 0x2A45F, size: 0x8, addend: 0x0, symName: __ZNSt3__16__treeINS_12__value_typeIi10competitorEENS_19__map_value_compareIiS3_NS_4lessIiEELb1EEENS_9allocatorIS3_EEE15__insert_uniqueB8ue170006ERKNS_4pairIKiS2_EE, symObjAddr: 0x7B3C, symBinAddr: 0x10000964C, symSize: 0x50 }
  - { offsetInCU: 0x1E717, offset: 0x2A492, size: 0x8, addend: 0x0, symName: __ZNSt3__14pairINS_14__map_iteratorINS_15__tree_iteratorINS_12__value_typeIi10competitorEEPNS_11__tree_nodeIS5_PvEElEEEEbEC1B8ue170006ISA_bEERKNS0_IT_T0_EE, symObjAddr: 0x7B8C, symBinAddr: 0x10000969C, symSize: 0x34 }
  - { offsetInCU: 0x1E75F, offset: 0x2A4DA, size: 0x8, addend: 0x0, symName: __ZNSt3__16__treeINS_12__value_typeIi10competitorEENS_19__map_value_compareIiS3_NS_4lessIiEELb1EEENS_9allocatorIS3_EEE25__emplace_unique_key_argsIiJRKNS_4pairIKiS2_EEEEENSC_INS_15__tree_iteratorIS3_PNS_11__tree_nodeIS3_PvEElEEbEERKT_DpOT0_, symObjAddr: 0x7BC0, symBinAddr: 0x1000096D0, symSize: 0xF0 }
  - { offsetInCU: 0x1E809, offset: 0x2A584, size: 0x8, addend: 0x0, symName: __ZNSt3__122__tree_key_value_typesINS_12__value_typeIi10competitorEEE9__get_keyB8ue170006IKNS_4pairIKiS2_EEEENS_9enable_ifIXsr17__is_same_uncvrefIT_S8_EE5valueERS7_E4typeERSB_, symObjAddr: 0x7CB0, symBinAddr: 0x1000097C0, symSize: 0x14 }
  - { offsetInCU: 0x1E835, offset: 0x2A5B0, size: 0x8, addend: 0x0, symName: __ZNSt3__16__treeINS_12__value_typeIi10competitorEENS_19__map_value_compareIiS3_NS_4lessIiEELb1EEENS_9allocatorIS3_EEE12__find_equalIiEERPNS_16__tree_node_baseIPvEERPNS_15__tree_end_nodeISF_EERKT_, symObjAddr: 0x7CC4, symBinAddr: 0x1000097D4, symSize: 0x184 }
  - { offsetInCU: 0x1E8A0, offset: 0x2A61B, size: 0x8, addend: 0x0, symName: __ZNSt3__16__treeINS_12__value_typeIi10competitorEENS_19__map_value_compareIiS3_NS_4lessIiEELb1EEENS_9allocatorIS3_EEE16__construct_nodeIJRKNS_4pairIKiS2_EEEEENS_10unique_ptrINS_11__tree_nodeIS3_PvEENS_22__tree_node_destructorINS8_ISK_EEEEEEDpOT_, symObjAddr: 0x7E48, symBinAddr: 0x100009958, symSize: 0x118 }
  - { offsetInCU: 0x1E8FF, offset: 0x2A67A, size: 0x8, addend: 0x0, symName: __ZNSt3__16__treeINS_12__value_typeIi10competitorEENS_19__map_value_compareIiS3_NS_4lessIiEELb1EEENS_9allocatorIS3_EEE16__insert_node_atEPNS_15__tree_end_nodeIPNS_16__tree_node_baseIPvEEEERSF_SF_, symObjAddr: 0x7F60, symBinAddr: 0x100009A70, symSize: 0xCC }
  - { offsetInCU: 0x1E952, offset: 0x2A6CD, size: 0x8, addend: 0x0, symName: __ZNKSt3__110unique_ptrINS_11__tree_nodeINS_12__value_typeIi10competitorEEPvEENS_22__tree_node_destructorINS_9allocatorIS6_EEEEE3getB8ue170006Ev, symObjAddr: 0x802C, symBinAddr: 0x100009B3C, symSize: 0x28 }
  - { offsetInCU: 0x1E976, offset: 0x2A6F1, size: 0x8, addend: 0x0, symName: __ZNSt3__110unique_ptrINS_11__tree_nodeINS_12__value_typeIi10competitorEEPvEENS_22__tree_node_destructorINS_9allocatorIS6_EEEEE7releaseB8ue170006Ev, symObjAddr: 0x8054, symBinAddr: 0x100009B64, symSize: 0x44 }
  - { offsetInCU: 0x1E9A9, offset: 0x2A724, size: 0x8, addend: 0x0, symName: __ZNSt3__110unique_ptrINS_11__tree_nodeINS_12__value_typeIi10competitorEEPvEENS_22__tree_node_destructorINS_9allocatorIS6_EEEEED1B8ue170006Ev, symObjAddr: 0x8098, symBinAddr: 0x100009BA8, symSize: 0x2C }
  - { offsetInCU: 0x1E9D1, offset: 0x2A74C, size: 0x8, addend: 0x0, symName: __ZNSt3__115__tree_iteratorINS_12__value_typeIi10competitorEEPNS_11__tree_nodeIS3_PvEElEC1B8ue170006ES7_, symObjAddr: 0x80C4, symBinAddr: 0x100009BD4, symSize: 0x34 }
  - { offsetInCU: 0x1EA08, offset: 0x2A783, size: 0x8, addend: 0x0, symName: __ZNSt3__14pairINS_15__tree_iteratorINS_12__value_typeIi10competitorEEPNS_11__tree_nodeIS4_PvEElEEbEC1B8ue170006ERKS9_RKb, symObjAddr: 0x80F8, symBinAddr: 0x100009C08, symSize: 0x3C }
  - { offsetInCU: 0x1EA4C, offset: 0x2A7C7, size: 0x8, addend: 0x0, symName: __ZNKSt3__16__treeINS_12__value_typeIi10competitorEENS_19__map_value_compareIiS3_NS_4lessIiEELb1EEENS_9allocatorIS3_EEE10__root_ptrB8ue170006Ev, symObjAddr: 0x8134, symBinAddr: 0x100009C44, symSize: 0x24 }
  - { offsetInCU: 0x1EA70, offset: 0x2A7EB, size: 0x8, addend: 0x0, symName: __ZNSt3__16__treeINS_12__value_typeIi10competitorEENS_19__map_value_compareIiS3_NS_4lessIiEELb1EEENS_9allocatorIS3_EEE10value_compB8ue170006Ev, symObjAddr: 0x8158, symBinAddr: 0x100009C68, symSize: 0x28 }
  - { offsetInCU: 0x1EA94, offset: 0x2A80F, size: 0x8, addend: 0x0, symName: __ZNKSt3__119__map_value_compareIiNS_12__value_typeIi10competitorEENS_4lessIiEELb1EEclB8ue170006ERKiRKS3_, symObjAddr: 0x8180, symBinAddr: 0x100009C90, symSize: 0x50 }
  - { offsetInCU: 0x1EAD6, offset: 0x2A851, size: 0x8, addend: 0x0, symName: __ZNKSt3__119__map_value_compareIiNS_12__value_typeIi10competitorEENS_4lessIiEELb1EEclB8ue170006ERKS3_RKi, symObjAddr: 0x81D0, symBinAddr: 0x100009CE0, symSize: 0x48 }
  - { offsetInCU: 0x1EB18, offset: 0x2A893, size: 0x8, addend: 0x0, symName: __ZNSt3__117__compressed_pairImNS_19__map_value_compareIiNS_12__value_typeIi10competitorEENS_4lessIiEELb1EEEE6secondB8ue170006Ev, symObjAddr: 0x8218, symBinAddr: 0x100009D28, symSize: 0x24 }
  - { offsetInCU: 0x1EB3C, offset: 0x2A8B7, size: 0x8, addend: 0x0, symName: __ZNSt3__122__compressed_pair_elemINS_19__map_value_compareIiNS_12__value_typeIi10competitorEENS_4lessIiEELb1EEELi1ELb1EE5__getB8ue170006Ev, symObjAddr: 0x823C, symBinAddr: 0x100009D4C, symSize: 0x14 }
  - { offsetInCU: 0x1EB60, offset: 0x2A8DB, size: 0x8, addend: 0x0, symName: __ZNKSt3__14lessIiEclB8ue170006ERKiS3_, symObjAddr: 0x8250, symBinAddr: 0x100009D60, symSize: 0x34 }
  - { offsetInCU: 0x1EBA2, offset: 0x2A91D, size: 0x8, addend: 0x0, symName: __ZNKSt3__112__value_typeIi10competitorE11__get_valueB8ue170006Ev, symObjAddr: 0x8284, symBinAddr: 0x100009D94, symSize: 0x14 }
  - { offsetInCU: 0x1EBC6, offset: 0x2A941, size: 0x8, addend: 0x0, symName: __ZNSt3__116allocator_traitsINS_9allocatorINS_11__tree_nodeINS_12__value_typeIi10competitorEEPvEEEEE8allocateB8ue170006ERS8_m, symObjAddr: 0x8298, symBinAddr: 0x100009DA8, symSize: 0x2C }
  - { offsetInCU: 0x1EBF8, offset: 0x2A973, size: 0x8, addend: 0x0, symName: __ZNSt3__122__tree_node_destructorINS_9allocatorINS_11__tree_nodeINS_12__value_typeIi10competitorEEPvEEEEEC1B8ue170006ERS8_b, symObjAddr: 0x82C4, symBinAddr: 0x100009DD4, symSize: 0x48 }
  - { offsetInCU: 0x1EC43, offset: 0x2A9BE, size: 0x8, addend: 0x0, symName: __ZNSt3__110unique_ptrINS_11__tree_nodeINS_12__value_typeIi10competitorEEPvEENS_22__tree_node_destructorINS_9allocatorIS6_EEEEEC1B8ue170006ILb1EvEEPS6_NS_16__dependent_typeINS_27__unique_ptr_deleter_sfinaeISA_EEXT_EE20__good_rval_ref_typeE, symObjAddr: 0x830C, symBinAddr: 0x100009E1C, symSize: 0x3C }
  - { offsetInCU: 0x1EC93, offset: 0x2AA0E, size: 0x8, addend: 0x0, symName: __ZNSt3__116allocator_traitsINS_9allocatorINS_11__tree_nodeINS_12__value_typeIi10competitorEEPvEEEEE9constructB8ue170006INS_4pairIKiS4_EEJRKSD_EvEEvRS8_PT_DpOT0_, symObjAddr: 0x8348, symBinAddr: 0x100009E58, symSize: 0x34 }
  - { offsetInCU: 0x1ECEA, offset: 0x2AA65, size: 0x8, addend: 0x0, symName: __ZNKSt3__110unique_ptrINS_11__tree_nodeINS_12__value_typeIi10competitorEEPvEENS_22__tree_node_destructorINS_9allocatorIS6_EEEEEptB8ue170006Ev, symObjAddr: 0x837C, symBinAddr: 0x100009E8C, symSize: 0x28 }
  - { offsetInCU: 0x1ED0E, offset: 0x2AA89, size: 0x8, addend: 0x0, symName: __ZNSt3__110unique_ptrINS_11__tree_nodeINS_12__value_typeIi10competitorEEPvEENS_22__tree_node_destructorINS_9allocatorIS6_EEEEE11get_deleterB8ue170006Ev, symObjAddr: 0x83A4, symBinAddr: 0x100009EB4, symSize: 0x24 }
  - { offsetInCU: 0x1ED32, offset: 0x2AAAD, size: 0x8, addend: 0x0, symName: __ZNSt3__19allocatorINS_11__tree_nodeINS_12__value_typeIi10competitorEEPvEEE8allocateB8ue170006Em, symObjAddr: 0x83C8, symBinAddr: 0x100009ED8, symSize: 0x8C }
  - { offsetInCU: 0x1ED6E, offset: 0x2AAE9, size: 0x8, addend: 0x0, symName: __ZNSt3__116allocator_traitsINS_9allocatorINS_11__tree_nodeINS_12__value_typeIi10competitorEEPvEEEEE8max_sizeB8ue170006IS8_vEEmRKS8_, symObjAddr: 0x8454, symBinAddr: 0x100009F64, symSize: 0x24 }
  - { offsetInCU: 0x1ED9C, offset: 0x2AB17, size: 0x8, addend: 0x0, symName: __ZNKSt3__19allocatorINS_11__tree_nodeINS_12__value_typeIi10competitorEEPvEEE8max_sizeB8ue170006Ev, symObjAddr: 0x8478, symBinAddr: 0x100009F88, symSize: 0x18 }
  - { offsetInCU: 0x1EDC0, offset: 0x2AB3B, size: 0x8, addend: 0x0, symName: __ZNSt3__122__tree_node_destructorINS_9allocatorINS_11__tree_nodeINS_12__value_typeIi10competitorEEPvEEEEEC2B8ue170006ERS8_b, symObjAddr: 0x8490, symBinAddr: 0x100009FA0, symSize: 0x38 }
  - { offsetInCU: 0x1EE06, offset: 0x2AB81, size: 0x8, addend: 0x0, symName: __ZNSt3__110unique_ptrINS_11__tree_nodeINS_12__value_typeIi10competitorEEPvEENS_22__tree_node_destructorINS_9allocatorIS6_EEEEEC2B8ue170006ILb1EvEEPS6_NS_16__dependent_typeINS_27__unique_ptr_deleter_sfinaeISA_EEXT_EE20__good_rval_ref_typeE, symObjAddr: 0x84C8, symBinAddr: 0x100009FD8, symSize: 0x5C }
  - { offsetInCU: 0x1EE56, offset: 0x2ABD1, size: 0x8, addend: 0x0, symName: __ZNSt3__117__compressed_pairIPNS_11__tree_nodeINS_12__value_typeIi10competitorEEPvEENS_22__tree_node_destructorINS_9allocatorIS6_EEEEEC1B8ue170006IRS7_SB_EEOT_OT0_, symObjAddr: 0x8524, symBinAddr: 0x10000A034, symSize: 0x3C }
  - { offsetInCU: 0x1EEAC, offset: 0x2AC27, size: 0x8, addend: 0x0, symName: __ZNSt3__117__compressed_pairIPNS_11__tree_nodeINS_12__value_typeIi10competitorEEPvEENS_22__tree_node_destructorINS_9allocatorIS6_EEEEEC2B8ue170006IRS7_SB_EEOT_OT0_, symObjAddr: 0x8560, symBinAddr: 0x10000A070, symSize: 0x48 }
  - { offsetInCU: 0x1EF02, offset: 0x2AC7D, size: 0x8, addend: 0x0, symName: __ZNSt3__122__compressed_pair_elemIPNS_11__tree_nodeINS_12__value_typeIi10competitorEEPvEELi0ELb0EEC2B8ue170006IRS7_vEEOT_, symObjAddr: 0x85A8, symBinAddr: 0x10000A0B8, symSize: 0x24 }
  - { offsetInCU: 0x1EF43, offset: 0x2ACBE, size: 0x8, addend: 0x0, symName: __ZNSt3__122__compressed_pair_elemINS_22__tree_node_destructorINS_9allocatorINS_11__tree_nodeINS_12__value_typeIi10competitorEEPvEEEEEELi1ELb0EEC2B8ue170006ISA_vEEOT_, symObjAddr: 0x85CC, symBinAddr: 0x10000A0DC, symSize: 0x24 }
  - { offsetInCU: 0x1EF84, offset: 0x2ACFF, size: 0x8, addend: 0x0, symName: __ZNSt3__19allocatorINS_11__tree_nodeINS_12__value_typeIi10competitorEEPvEEE9constructB8ue170006INS_4pairIKiS3_EEJRKSB_EEEvPT_DpOT0_, symObjAddr: 0x85F0, symBinAddr: 0x10000A100, symSize: 0x30 }
  - { offsetInCU: 0x1EFD8, offset: 0x2AD53, size: 0x8, addend: 0x0, symName: __ZNSt3__14pairIKi10competitorEC1B8ue170006ERKS3_, symObjAddr: 0x8620, symBinAddr: 0x10000A130, symSize: 0x34 }
  - { offsetInCU: 0x1F00A, offset: 0x2AD85, size: 0x8, addend: 0x0, symName: __ZNSt3__14pairIKi10competitorEC2B8ue170006ERKS3_, symObjAddr: 0x8654, symBinAddr: 0x10000A164, symSize: 0x48 }
  - { offsetInCU: 0x1F03C, offset: 0x2ADB7, size: 0x8, addend: 0x0, symName: __ZNKSt3__117__compressed_pairIPNS_11__tree_nodeINS_12__value_typeIi10competitorEEPvEENS_22__tree_node_destructorINS_9allocatorIS6_EEEEE5firstB8ue170006Ev, symObjAddr: 0x869C, symBinAddr: 0x10000A1AC, symSize: 0x24 }
  - { offsetInCU: 0x1F060, offset: 0x2ADDB, size: 0x8, addend: 0x0, symName: __ZNKSt3__122__compressed_pair_elemIPNS_11__tree_nodeINS_12__value_typeIi10competitorEEPvEELi0ELb0EE5__getB8ue170006Ev, symObjAddr: 0x86C0, symBinAddr: 0x10000A1D0, symSize: 0x14 }
  - { offsetInCU: 0x1F084, offset: 0x2ADFF, size: 0x8, addend: 0x0, symName: __ZNSt3__117__compressed_pairIPNS_11__tree_nodeINS_12__value_typeIi10competitorEEPvEENS_22__tree_node_destructorINS_9allocatorIS6_EEEEE6secondB8ue170006Ev, symObjAddr: 0x86D4, symBinAddr: 0x10000A1E4, symSize: 0x28 }
  - { offsetInCU: 0x1F0A8, offset: 0x2AE23, size: 0x8, addend: 0x0, symName: __ZNSt3__122__compressed_pair_elemINS_22__tree_node_destructorINS_9allocatorINS_11__tree_nodeINS_12__value_typeIi10competitorEEPvEEEEEELi1ELb0EE5__getB8ue170006Ev, symObjAddr: 0x86FC, symBinAddr: 0x10000A20C, symSize: 0x14 }
  - { offsetInCU: 0x1F0CC, offset: 0x2AE47, size: 0x8, addend: 0x0, symName: __ZNKSt3__116__tree_node_baseIPvE15__parent_unsafeB8ue170006Ev, symObjAddr: 0x8A50, symBinAddr: 0x10000A560, symSize: 0x18 }
  - { offsetInCU: 0x1F0F0, offset: 0x2AE6B, size: 0x8, addend: 0x0, symName: __ZNSt3__116__tree_node_baseIPvE12__set_parentB8ue170006EPS2_, symObjAddr: 0x8C4C, symBinAddr: 0x10000A75C, symSize: 0x20 }
  - { offsetInCU: 0x1F123, offset: 0x2AE9E, size: 0x8, addend: 0x0, symName: __ZNSt3__117__compressed_pairIPNS_11__tree_nodeINS_12__value_typeIi10competitorEEPvEENS_22__tree_node_destructorINS_9allocatorIS6_EEEEE5firstB8ue170006Ev, symObjAddr: 0x8C6C, symBinAddr: 0x10000A77C, symSize: 0x24 }
  - { offsetInCU: 0x1F147, offset: 0x2AEC2, size: 0x8, addend: 0x0, symName: __ZNSt3__122__compressed_pair_elemIPNS_11__tree_nodeINS_12__value_typeIi10competitorEEPvEELi0ELb0EE5__getB8ue170006Ev, symObjAddr: 0x8C90, symBinAddr: 0x10000A7A0, symSize: 0x14 }
  - { offsetInCU: 0x1F16B, offset: 0x2AEE6, size: 0x8, addend: 0x0, symName: __ZNSt3__110unique_ptrINS_11__tree_nodeINS_12__value_typeIi10competitorEEPvEENS_22__tree_node_destructorINS_9allocatorIS6_EEEEED2B8ue170006Ev, symObjAddr: 0x8CA4, symBinAddr: 0x10000A7B4, symSize: 0x30 }
  - { offsetInCU: 0x1F193, offset: 0x2AF0E, size: 0x8, addend: 0x0, symName: __ZNSt3__110unique_ptrINS_11__tree_nodeINS_12__value_typeIi10competitorEEPvEENS_22__tree_node_destructorINS_9allocatorIS6_EEEEE5resetB8ue170006EPS6_, symObjAddr: 0x8CD4, symBinAddr: 0x10000A7E4, symSize: 0x78 }
  - { offsetInCU: 0x1F1D5, offset: 0x2AF50, size: 0x8, addend: 0x0, symName: __ZNSt3__122__tree_node_destructorINS_9allocatorINS_11__tree_nodeINS_12__value_typeIi10competitorEEPvEEEEEclB8ue170006EPS7_, symObjAddr: 0x8D4C, symBinAddr: 0x10000A85C, symSize: 0xAC }
  - { offsetInCU: 0x1F208, offset: 0x2AF83, size: 0x8, addend: 0x0, symName: __ZNSt3__115__tree_iteratorINS_12__value_typeIi10competitorEEPNS_11__tree_nodeIS3_PvEElEC2B8ue170006ES7_, symObjAddr: 0x8DF8, symBinAddr: 0x10000A908, symSize: 0x20 }
  - { offsetInCU: 0x1F23F, offset: 0x2AFBA, size: 0x8, addend: 0x0, symName: __ZNSt3__14pairINS_15__tree_iteratorINS_12__value_typeIi10competitorEEPNS_11__tree_nodeIS4_PvEElEEbEC2B8ue170006ERKS9_RKb, symObjAddr: 0x8E18, symBinAddr: 0x10000A928, symSize: 0x38 }
  - { offsetInCU: 0x1F283, offset: 0x2AFFE, size: 0x8, addend: 0x0, symName: __ZNSt3__14pairINS_14__map_iteratorINS_15__tree_iteratorINS_12__value_typeIi10competitorEEPNS_11__tree_nodeIS5_PvEElEEEEbEC2B8ue170006ISA_bEERKNS0_IT_T0_EE, symObjAddr: 0x8E50, symBinAddr: 0x10000A960, symSize: 0x50 }
  - { offsetInCU: 0x1F2CB, offset: 0x2B046, size: 0x8, addend: 0x0, symName: __ZNSt3__114__map_iteratorINS_15__tree_iteratorINS_12__value_typeIi10competitorEEPNS_11__tree_nodeIS4_PvEElEEEC1B8ue170006ES9_, symObjAddr: 0x8EA0, symBinAddr: 0x10000A9B0, symSize: 0x34 }
  - { offsetInCU: 0x1F302, offset: 0x2B07D, size: 0x8, addend: 0x0, symName: __ZNSt3__114__map_iteratorINS_15__tree_iteratorINS_12__value_typeIi10competitorEEPNS_11__tree_nodeIS4_PvEElEEEC2B8ue170006ES9_, symObjAddr: 0x8ED4, symBinAddr: 0x10000A9E4, symSize: 0x20 }
  - { offsetInCU: 0x1F339, offset: 0x2B0B4, size: 0x8, addend: 0x0, symName: __ZNSt3__14pairIKi10competitorEC2B8ue170006IiS2_EERKNS0_IT_T0_EE, symObjAddr: 0x8EF4, symBinAddr: 0x10000AA04, symSize: 0x48 }
  - { offsetInCU: 0x1F381, offset: 0x2B0FC, size: 0x8, addend: 0x0, symName: __ZNSt3__16vectorIiNS_9allocatorIiEEE11__make_iterB8ue170006EPi, symObjAddr: 0x8F3C, symBinAddr: 0x10000AA4C, symSize: 0x30 }
  - { offsetInCU: 0x1F3B4, offset: 0x2B12F, size: 0x8, addend: 0x0, symName: __ZNSt3__111__wrap_iterIPiEC1B8ue170006ES1_, symObjAddr: 0x8F6C, symBinAddr: 0x10000AA7C, symSize: 0x34 }
  - { offsetInCU: 0x1F3EA, offset: 0x2B165, size: 0x8, addend: 0x0, symName: __ZNSt3__111__wrap_iterIPiEC2B8ue170006ES1_, symObjAddr: 0x8FA0, symBinAddr: 0x10000AAB0, symSize: 0x20 }
  - { offsetInCU: 0x1F420, offset: 0x2B19B, size: 0x8, addend: 0x0, symName: __ZNSt3__18_IterOpsINS_17_ClassicAlgPolicyEE4nextB8ue170006INS_11__wrap_iterIPiEEEET_S7_S7_, symObjAddr: 0x9108, symBinAddr: 0x10000AC18, symSize: 0x20 }
  - { offsetInCU: 0x1F455, offset: 0x2B1D0, size: 0x8, addend: 0x0, symName: __ZNSt3__124uniform_int_distributionIlEC1Ell, symObjAddr: 0x9170, symBinAddr: 0x10000AC80, symSize: 0x3C }
  - { offsetInCU: 0x1F499, offset: 0x2B214, size: 0x8, addend: 0x0, symName: __ZNSt3__111__wrap_iterIPiEmmB8ue170006Ev, symObjAddr: 0x91AC, symBinAddr: 0x10000ACBC, symSize: 0x20 }
  - { offsetInCU: 0x1F4BD, offset: 0x2B238, size: 0x8, addend: 0x0, symName: __ZNSt3__124uniform_int_distributionIlE10param_typeC1B8ue170006Ell, symObjAddr: 0x9388, symBinAddr: 0x10000AE98, symSize: 0x3C }
  - { offsetInCU: 0x1F506, offset: 0x2B281, size: 0x8, addend: 0x0, symName: __ZNSt3__18_IterOpsINS_17_ClassicAlgPolicyEE9iter_swapB8ue170006IRNS_11__wrap_iterIPiEES6_EEvOT_OT0_, symObjAddr: 0x93C4, symBinAddr: 0x10000AED4, symSize: 0x44 }
  - { offsetInCU: 0x1F548, offset: 0x2B2C3, size: 0x8, addend: 0x0, symName: __ZNKSt3__111__wrap_iterIPiEplB8ue170006El, symObjAddr: 0x9408, symBinAddr: 0x10000AF18, symSize: 0x3C }
  - { offsetInCU: 0x1F588, offset: 0x2B303, size: 0x8, addend: 0x0, symName: __ZNSt3__111__wrap_iterIPiEppB8ue170006Ev, symObjAddr: 0x9444, symBinAddr: 0x10000AF54, symSize: 0x20 }
  - { offsetInCU: 0x1F5AC, offset: 0x2B327, size: 0x8, addend: 0x0, symName: __ZNKSt3__111__wrap_iterIPiE4baseB8ue170006Ev, symObjAddr: 0x9464, symBinAddr: 0x10000AF74, symSize: 0x18 }
  - { offsetInCU: 0x1F5D0, offset: 0x2B34B, size: 0x8, addend: 0x0, symName: __ZNSt3__124uniform_int_distributionIlEC2Ell, symObjAddr: 0x947C, symBinAddr: 0x10000AF8C, symSize: 0x3C }
  - { offsetInCU: 0x1F614, offset: 0x2B38F, size: 0x8, addend: 0x0, symName: __ZNKSt3__124uniform_int_distributionIlE10param_type1bB8ue170006Ev, symObjAddr: 0x94B8, symBinAddr: 0x10000AFC8, symSize: 0x18 }
  - { offsetInCU: 0x1F638, offset: 0x2B3B3, size: 0x8, addend: 0x0, symName: __ZNKSt3__124uniform_int_distributionIlE10param_type1aB8ue170006Ev, symObjAddr: 0x94D0, symBinAddr: 0x10000AFE0, symSize: 0x18 }
  - { offsetInCU: 0x1F65C, offset: 0x2B3D7, size: 0x8, addend: 0x0, symName: __ZNSt3__125__independent_bits_engineINS_13random_deviceEmEC1ERS1_m, symObjAddr: 0x94E8, symBinAddr: 0x10000AFF8, symSize: 0x3C }
  - { offsetInCU: 0x1F6A2, offset: 0x2B41D, size: 0x8, addend: 0x0, symName: __ZNSt3__125__independent_bits_engineINS_13random_deviceEmEclB8ue170006Ev, symObjAddr: 0x9524, symBinAddr: 0x10000B034, symSize: 0x24 }
  - { offsetInCU: 0x1F6C6, offset: 0x2B441, size: 0x8, addend: 0x0, symName: __ZNSt3__114numeric_limitsImE3maxB8ue170006Ev, symObjAddr: 0x959C, symBinAddr: 0x10000B0AC, symSize: 0x14 }
  - { offsetInCU: 0x1F6DA, offset: 0x2B455, size: 0x8, addend: 0x0, symName: __ZNSt3__125__independent_bits_engineINS_13random_deviceEmEC2ERS1_m, symObjAddr: 0x95B0, symBinAddr: 0x10000B0C0, symSize: 0x264 }
  - { offsetInCU: 0x1F720, offset: 0x2B49B, size: 0x8, addend: 0x0, symName: __ZNSt3__125__independent_bits_engineINS_13random_deviceEmE6__evalENS_17integral_constantIbLb1EEE, symObjAddr: 0x9814, symBinAddr: 0x10000B324, symSize: 0x1F0 }
  - { offsetInCU: 0x1F7E0, offset: 0x2B55B, size: 0x8, addend: 0x0, symName: __ZNSt3__113random_device3minB8ue170006Ev, symObjAddr: 0x9A04, symBinAddr: 0x10000B514, symSize: 0x8 }
  - { offsetInCU: 0x1F7F3, offset: 0x2B56E, size: 0x8, addend: 0x0, symName: __ZNSt3__123__libcpp_numeric_limitsImLb1EE3maxB8ue170006Ev, symObjAddr: 0x9A28, symBinAddr: 0x10000B538, symSize: 0x8 }
  - { offsetInCU: 0x1F806, offset: 0x2B581, size: 0x8, addend: 0x0, symName: __ZNSt3__124uniform_int_distributionIlE10param_typeC2B8ue170006Ell, symObjAddr: 0x9A30, symBinAddr: 0x10000B540, symSize: 0x2C }
  - { offsetInCU: 0x1F84A, offset: 0x2B5C5, size: 0x8, addend: 0x0, symName: __ZNSt3__111__wrap_iterIPiEpLB8ue170006El, symObjAddr: 0x9AE8, symBinAddr: 0x10000B5F8, symSize: 0x28 }
  - { offsetInCU: 0x1F87C, offset: 0x2B5F7, size: 0x8, addend: 0x0, symName: __ZNSt3__18multimapIdiNS_7greaterIdEENS_9allocatorINS_4pairIKdiEEEEEC2B8ue170006Ev, symObjAddr: 0x9B10, symBinAddr: 0x10000B620, symSize: 0x40 }
  - { offsetInCU: 0x1F8A4, offset: 0x2B61F, size: 0x8, addend: 0x0, symName: __ZNSt3__119__map_value_compareIdNS_12__value_typeIdiEENS_7greaterIdEELb1EEC1B8ue170006ES4_, symObjAddr: 0x9B50, symBinAddr: 0x10000B660, symSize: 0x2C }
  - { offsetInCU: 0x1F8DB, offset: 0x2B656, size: 0x8, addend: 0x0, symName: __ZNSt3__16__treeINS_12__value_typeIdiEENS_19__map_value_compareIdS2_NS_7greaterIdEELb1EEENS_9allocatorIS2_EEEC1ERKS6_, symObjAddr: 0x9B7C, symBinAddr: 0x10000B68C, symSize: 0x34 }
  - { offsetInCU: 0x1F915, offset: 0x2B690, size: 0x8, addend: 0x0, symName: __ZNSt3__119__map_value_compareIdNS_12__value_typeIdiEENS_7greaterIdEELb1EEC2B8ue170006ES4_, symObjAddr: 0x9BB0, symBinAddr: 0x10000B6C0, symSize: 0x14 }
  - { offsetInCU: 0x1F94C, offset: 0x2B6C7, size: 0x8, addend: 0x0, symName: __ZNSt3__16__treeINS_12__value_typeIdiEENS_19__map_value_compareIdS2_NS_7greaterIdEELb1EEENS_9allocatorIS2_EEEC2ERKS6_, symObjAddr: 0x9BC4, symBinAddr: 0x10000B6D4, symSize: 0x70 }
  - { offsetInCU: 0x1F986, offset: 0x2B701, size: 0x8, addend: 0x0, symName: __ZNSt3__117__compressed_pairINS_15__tree_end_nodeIPNS_16__tree_node_baseIPvEEEENS_9allocatorINS_11__tree_nodeINS_12__value_typeIdiEES3_EEEEEC1B8ue170006ILb1EvEEv, symObjAddr: 0x9C34, symBinAddr: 0x10000B744, symSize: 0x2C }
  - { offsetInCU: 0x1F9BA, offset: 0x2B735, size: 0x8, addend: 0x0, symName: __ZNSt3__117__compressed_pairImNS_19__map_value_compareIdNS_12__value_typeIdiEENS_7greaterIdEELb1EEEEC1B8ue170006IiRKS6_EEOT_OT0_, symObjAddr: 0x9C60, symBinAddr: 0x10000B770, symSize: 0x3C }
  - { offsetInCU: 0x1FA10, offset: 0x2B78B, size: 0x8, addend: 0x0, symName: __ZNSt3__16__treeINS_12__value_typeIdiEENS_19__map_value_compareIdS2_NS_7greaterIdEELb1EEENS_9allocatorIS2_EEE10__end_nodeB8ue170006Ev, symObjAddr: 0x9C9C, symBinAddr: 0x10000B7AC, symSize: 0x2C }
  - { offsetInCU: 0x1FA34, offset: 0x2B7AF, size: 0x8, addend: 0x0, symName: __ZNSt3__16__treeINS_12__value_typeIdiEENS_19__map_value_compareIdS2_NS_7greaterIdEELb1EEENS_9allocatorIS2_EEE12__begin_nodeB8ue170006Ev, symObjAddr: 0x9CC8, symBinAddr: 0x10000B7D8, symSize: 0x14 }
  - { offsetInCU: 0x1FA58, offset: 0x2B7D3, size: 0x8, addend: 0x0, symName: __ZNSt3__117__compressed_pairINS_15__tree_end_nodeIPNS_16__tree_node_baseIPvEEEENS_9allocatorINS_11__tree_nodeINS_12__value_typeIdiEES3_EEEEEC2B8ue170006ILb1EvEEv, symObjAddr: 0x9CDC, symBinAddr: 0x10000B7EC, symSize: 0x34 }
  - { offsetInCU: 0x1FA8C, offset: 0x2B807, size: 0x8, addend: 0x0, symName: __ZNSt3__122__compressed_pair_elemINS_9allocatorINS_11__tree_nodeINS_12__value_typeIdiEEPvEEEELi1ELb1EEC2B8ue170006ENS_16__value_init_tagE, symObjAddr: 0x9D10, symBinAddr: 0x10000B820, symSize: 0x2C }
  - { offsetInCU: 0x1FABE, offset: 0x2B839, size: 0x8, addend: 0x0, symName: __ZNSt3__19allocatorINS_11__tree_nodeINS_12__value_typeIdiEEPvEEEC2B8ue170006Ev, symObjAddr: 0x9D3C, symBinAddr: 0x10000B84C, symSize: 0x2C }
  - { offsetInCU: 0x1FAE6, offset: 0x2B861, size: 0x8, addend: 0x0, symName: __ZNSt3__116__non_trivial_ifILb1ENS_9allocatorINS_11__tree_nodeINS_12__value_typeIdiEEPvEEEEEC2B8ue170006Ev, symObjAddr: 0x9D68, symBinAddr: 0x10000B878, symSize: 0x14 }
  - { offsetInCU: 0x1FB0E, offset: 0x2B889, size: 0x8, addend: 0x0, symName: __ZNSt3__117__compressed_pairImNS_19__map_value_compareIdNS_12__value_typeIdiEENS_7greaterIdEELb1EEEEC2B8ue170006IiRKS6_EEOT_OT0_, symObjAddr: 0x9D7C, symBinAddr: 0x10000B88C, symSize: 0x44 }
  - { offsetInCU: 0x1FB64, offset: 0x2B8DF, size: 0x8, addend: 0x0, symName: __ZNSt3__122__compressed_pair_elemINS_19__map_value_compareIdNS_12__value_typeIdiEENS_7greaterIdEELb1EEELi1ELb1EEC2B8ue170006IRKS6_vEEOT_, symObjAddr: 0x9DC0, symBinAddr: 0x10000B8D0, symSize: 0x18 }
  - { offsetInCU: 0x1FBA5, offset: 0x2B920, size: 0x8, addend: 0x0, symName: __ZNSt3__117__compressed_pairINS_15__tree_end_nodeIPNS_16__tree_node_baseIPvEEEENS_9allocatorINS_11__tree_nodeINS_12__value_typeIdiEES3_EEEEE5firstB8ue170006Ev, symObjAddr: 0x9DD8, symBinAddr: 0x10000B8E8, symSize: 0x24 }
  - { offsetInCU: 0x1FBC9, offset: 0x2B944, size: 0x8, addend: 0x0, symName: __ZNSt3__18multimapIdiNS_7greaterIdEENS_9allocatorINS_4pairIKdiEEEEED2B8ue170006Ev, symObjAddr: 0x9DFC, symBinAddr: 0x10000B90C, symSize: 0x2C }
  - { offsetInCU: 0x1FBF1, offset: 0x2B96C, size: 0x8, addend: 0x0, symName: __ZNSt3__16__treeINS_12__value_typeIdiEENS_19__map_value_compareIdS2_NS_7greaterIdEELb1EEENS_9allocatorIS2_EEED1Ev, symObjAddr: 0x9E28, symBinAddr: 0x10000B938, symSize: 0x2C }
  - { offsetInCU: 0x1FC1C, offset: 0x2B997, size: 0x8, addend: 0x0, symName: __ZNSt3__16__treeINS_12__value_typeIdiEENS_19__map_value_compareIdS2_NS_7greaterIdEELb1EEENS_9allocatorIS2_EEED2Ev, symObjAddr: 0x9E54, symBinAddr: 0x10000B964, symSize: 0x38 }
  - { offsetInCU: 0x1FC47, offset: 0x2B9C2, size: 0x8, addend: 0x0, symName: __ZNSt3__16__treeINS_12__value_typeIdiEENS_19__map_value_compareIdS2_NS_7greaterIdEELb1EEENS_9allocatorIS2_EEE7destroyEPNS_11__tree_nodeIS2_PvEE, symObjAddr: 0x9E8C, symBinAddr: 0x10000B99C, symSize: 0xC0 }
  - { offsetInCU: 0x1FC9A, offset: 0x2BA15, size: 0x8, addend: 0x0, symName: __ZNKSt3__16__treeINS_12__value_typeIdiEENS_19__map_value_compareIdS2_NS_7greaterIdEELb1EEENS_9allocatorIS2_EEE6__rootB8ue170006Ev, symObjAddr: 0x9F4C, symBinAddr: 0x10000BA5C, symSize: 0x28 }
  - { offsetInCU: 0x1FCBE, offset: 0x2BA39, size: 0x8, addend: 0x0, symName: __ZNSt3__16__treeINS_12__value_typeIdiEENS_19__map_value_compareIdS2_NS_7greaterIdEELb1EEENS_9allocatorIS2_EEE12__node_allocB8ue170006Ev, symObjAddr: 0x9F74, symBinAddr: 0x10000BA84, symSize: 0x28 }
  - { offsetInCU: 0x1FCE2, offset: 0x2BA5D, size: 0x8, addend: 0x0, symName: __ZNSt3__116allocator_traitsINS_9allocatorINS_11__tree_nodeINS_12__value_typeIdiEEPvEEEEE7destroyB8ue170006INS_4pairIKdiEEvvEEvRS7_PT_, symObjAddr: 0x9F9C, symBinAddr: 0x10000BAAC, symSize: 0x14 }
  - { offsetInCU: 0x1FD1E, offset: 0x2BA99, size: 0x8, addend: 0x0, symName: __ZNSt3__122__tree_key_value_typesINS_12__value_typeIdiEEE9__get_ptrB8ue170006ERS2_, symObjAddr: 0x9FB0, symBinAddr: 0x10000BAC0, symSize: 0x24 }
  - { offsetInCU: 0x1FD41, offset: 0x2BABC, size: 0x8, addend: 0x0, symName: __ZNSt3__116allocator_traitsINS_9allocatorINS_11__tree_nodeINS_12__value_typeIdiEEPvEEEEE10deallocateB8ue170006ERS7_PS6_m, symObjAddr: 0x9FD4, symBinAddr: 0x10000BAE4, symSize: 0x34 }
  - { offsetInCU: 0x1FD82, offset: 0x2BAFD, size: 0x8, addend: 0x0, symName: __ZNSt3__117__compressed_pairINS_15__tree_end_nodeIPNS_16__tree_node_baseIPvEEEENS_9allocatorINS_11__tree_nodeINS_12__value_typeIdiEES3_EEEEE6secondB8ue170006Ev, symObjAddr: 0xA008, symBinAddr: 0x10000BB18, symSize: 0x24 }
  - { offsetInCU: 0x1FDA6, offset: 0x2BB21, size: 0x8, addend: 0x0, symName: __ZNSt3__122__compressed_pair_elemINS_9allocatorINS_11__tree_nodeINS_12__value_typeIdiEEPvEEEELi1ELb1EE5__getB8ue170006Ev, symObjAddr: 0xA02C, symBinAddr: 0x10000BB3C, symSize: 0x14 }
  - { offsetInCU: 0x1FDCA, offset: 0x2BB45, size: 0x8, addend: 0x0, symName: __ZNSt3__112__value_typeIdiE11__get_valueB8ue170006Ev, symObjAddr: 0xA040, symBinAddr: 0x10000BB50, symSize: 0x14 }
  - { offsetInCU: 0x1FDEE, offset: 0x2BB69, size: 0x8, addend: 0x0, symName: __ZNSt3__19allocatorINS_11__tree_nodeINS_12__value_typeIdiEEPvEEE10deallocateB8ue170006EPS5_m, symObjAddr: 0xA054, symBinAddr: 0x10000BB64, symSize: 0x74 }
  - { offsetInCU: 0x1FE2E, offset: 0x2BBA9, size: 0x8, addend: 0x0, symName: __ZNKSt3__16__treeINS_12__value_typeIdiEENS_19__map_value_compareIdS2_NS_7greaterIdEELb1EEENS_9allocatorIS2_EEE10__end_nodeB8ue170006Ev, symObjAddr: 0xA0C8, symBinAddr: 0x10000BBD8, symSize: 0x2C }
  - { offsetInCU: 0x1FE52, offset: 0x2BBCD, size: 0x8, addend: 0x0, symName: __ZNKSt3__117__compressed_pairINS_15__tree_end_nodeIPNS_16__tree_node_baseIPvEEEENS_9allocatorINS_11__tree_nodeINS_12__value_typeIdiEES3_EEEEE5firstB8ue170006Ev, symObjAddr: 0xA0F4, symBinAddr: 0x10000BC04, symSize: 0x24 }
  - { offsetInCU: 0x1FE76, offset: 0x2BBF1, size: 0x8, addend: 0x0, symName: __ZNSt3__16vectorIiNS_9allocatorIiEEE19__copy_assign_allocB8ue170006ERKS3_, symObjAddr: 0xA118, symBinAddr: 0x10000BC28, symSize: 0x2C }
  - { offsetInCU: 0x1FEA9, offset: 0x2BC24, size: 0x8, addend: 0x0, symName: __ZNSt3__16vectorIiNS_9allocatorIiEEE6assignIPiLi0EEEvT_S6_, symObjAddr: 0xA144, symBinAddr: 0x10000BC54, symSize: 0x5C }
  - { offsetInCU: 0x1FEFD, offset: 0x2BC78, size: 0x8, addend: 0x0, symName: __ZNSt3__16vectorIiNS_9allocatorIiEEE19__copy_assign_allocB8ue170006ERKS3_NS_17integral_constantIbLb0EEE, symObjAddr: 0xA1A0, symBinAddr: 0x10000BCB0, symSize: 0x14 }
  - { offsetInCU: 0x1FF39, offset: 0x2BCB4, size: 0x8, addend: 0x0, symName: __ZNSt3__16vectorIiNS_9allocatorIiEEE18__assign_with_sizeB8ue170006IPiS5_EEvT_T0_l, symObjAddr: 0xA1B4, symBinAddr: 0x10000BCC4, symSize: 0x164 }
  - { offsetInCU: 0x1FFE9, offset: 0x2BD64, size: 0x8, addend: 0x0, symName: __ZNSt3__16vectorIiNS_9allocatorIiEEE18__construct_at_endIPiS5_EEvT_T0_m, symObjAddr: 0xA3B8, symBinAddr: 0x10000BEC8, symSize: 0x94 }
  - { offsetInCU: 0x2005D, offset: 0x2BDD8, size: 0x8, addend: 0x0, symName: __ZNSt3__16vectorIiNS_9allocatorIiEEE17__destruct_at_endB8ue170006EPi, symObjAddr: 0xA490, symBinAddr: 0x10000BFA0, symSize: 0x4C }
  - { offsetInCU: 0x2009F, offset: 0x2BE1A, size: 0x8, addend: 0x0, symName: __ZNSt3__16vectorIiNS_9allocatorIiEEE13__vdeallocateEv, symObjAddr: 0xA4DC, symBinAddr: 0x10000BFEC, symSize: 0x94 }
  - { offsetInCU: 0x200C5, offset: 0x2BE40, size: 0x8, addend: 0x0, symName: __ZNSt3__16vectorIiNS_9allocatorIiEEE11__vallocateB8ue170006Em, symObjAddr: 0xA570, symBinAddr: 0x10000C080, symSize: 0xAC }
  - { offsetInCU: 0x20120, offset: 0x2BE9B, size: 0x8, addend: 0x0, symName: __ZNSt3__14pairIPiS1_EC1B8ue170006ERKS1_S4_, symObjAddr: 0xA918, symBinAddr: 0x10000C428, symSize: 0x3C }
  - { offsetInCU: 0x20164, offset: 0x2BEDF, size: 0x8, addend: 0x0, symName: __ZNSt3__14pairIPiS1_EC2B8ue170006ERKS1_S4_, symObjAddr: 0xA954, symBinAddr: 0x10000C464, symSize: 0x34 }
  - { offsetInCU: 0x201A8, offset: 0x2BF23, size: 0x8, addend: 0x0, symName: __ZNSt3__129_AllocatorDestroyRangeReverseINS_9allocatorIiEEPiEC1B8ue170006ERS2_RS3_S6_, symObjAddr: 0xA9D4, symBinAddr: 0x10000C4E4, symSize: 0x44 }
  - { offsetInCU: 0x201FD, offset: 0x2BF78, size: 0x8, addend: 0x0, symName: __ZNSt3__116allocator_traitsINS_9allocatorIiEEE9constructB8ue170006IiJRiEvEEvRS2_PT_DpOT0_, symObjAddr: 0xAA18, symBinAddr: 0x10000C528, symSize: 0x34 }
  - { offsetInCU: 0x20254, offset: 0x2BFCF, size: 0x8, addend: 0x0, symName: __ZNSt3__128__exception_guard_exceptionsINS_29_AllocatorDestroyRangeReverseINS_9allocatorIiEEPiEEE10__completeB8ue170006Ev, symObjAddr: 0xAA4C, symBinAddr: 0x10000C55C, symSize: 0x1C }
  - { offsetInCU: 0x20278, offset: 0x2BFF3, size: 0x8, addend: 0x0, symName: __ZNSt3__128__exception_guard_exceptionsINS_29_AllocatorDestroyRangeReverseINS_9allocatorIiEEPiEEED1B8ue170006Ev, symObjAddr: 0xAA68, symBinAddr: 0x10000C578, symSize: 0x2C }
  - { offsetInCU: 0x202A0, offset: 0x2C01B, size: 0x8, addend: 0x0, symName: __ZNSt3__128__exception_guard_exceptionsINS_29_AllocatorDestroyRangeReverseINS_9allocatorIiEEPiEEEC1B8ue170006ES5_, symObjAddr: 0xAA94, symBinAddr: 0x10000C5A4, symSize: 0x34 }
  - { offsetInCU: 0x202D7, offset: 0x2C052, size: 0x8, addend: 0x0, symName: __ZNSt3__128__exception_guard_exceptionsINS_29_AllocatorDestroyRangeReverseINS_9allocatorIiEEPiEEEC2B8ue170006ES5_, symObjAddr: 0xAAC8, symBinAddr: 0x10000C5D8, symSize: 0x30 }
  - { offsetInCU: 0x2030E, offset: 0x2C089, size: 0x8, addend: 0x0, symName: __ZNSt3__129_AllocatorDestroyRangeReverseINS_9allocatorIiEEPiEC2B8ue170006ERS2_RS3_S6_, symObjAddr: 0xAAF8, symBinAddr: 0x10000C608, symSize: 0x38 }
  - { offsetInCU: 0x20363, offset: 0x2C0DE, size: 0x8, addend: 0x0, symName: __ZNSt3__19allocatorIiE9constructB8ue170006IiJRiEEEvPT_DpOT0_, symObjAddr: 0xAB30, symBinAddr: 0x10000C640, symSize: 0x28 }
  - { offsetInCU: 0x203B7, offset: 0x2C132, size: 0x8, addend: 0x0, symName: __ZNSt3__128__exception_guard_exceptionsINS_29_AllocatorDestroyRangeReverseINS_9allocatorIiEEPiEEED2B8ue170006Ev, symObjAddr: 0xAB58, symBinAddr: 0x10000C668, symSize: 0x48 }
  - { offsetInCU: 0x203DF, offset: 0x2C15A, size: 0x8, addend: 0x0, symName: __ZNKSt3__129_AllocatorDestroyRangeReverseINS_9allocatorIiEEPiEclB8ue170006Ev, symObjAddr: 0xABA0, symBinAddr: 0x10000C6B0, symSize: 0x68 }
  - { offsetInCU: 0x20403, offset: 0x2C17E, size: 0x8, addend: 0x0, symName: __ZNSt3__118__unwrap_iter_implIPiLb1EE8__unwrapB8ue170006ES1_, symObjAddr: 0xAC78, symBinAddr: 0x10000C788, symSize: 0x24 }
  - { offsetInCU: 0x20425, offset: 0x2C1A0, size: 0x8, addend: 0x0, symName: __ZNSt3__118__unwrap_iter_implIPiLb1EE8__rewrapB8ue170006ES1_S1_, symObjAddr: 0xAC9C, symBinAddr: 0x10000C7AC, symSize: 0x50 }
  - { offsetInCU: 0x2045F, offset: 0x2C1DA, size: 0x8, addend: 0x0, symName: __ZNKSt3__114__copy_trivialclB8ue170006IiiLi0EEENS_4pairIPT_PT0_EES4_S4_S6_, symObjAddr: 0xADE4, symBinAddr: 0x10000C8F4, symSize: 0x48 }
  - { offsetInCU: 0x204C6, offset: 0x2C241, size: 0x8, addend: 0x0, symName: __ZNSt3__15dequeIdNS_9allocatorIdEEEC2B8ue170006Ev, symObjAddr: 0xB020, symBinAddr: 0x10000CB30, symSize: 0x84 }
  - { offsetInCU: 0x204EE, offset: 0x2C269, size: 0x8, addend: 0x0, symName: __ZNSt3__114__split_bufferIPdNS_9allocatorIS1_EEEC1B8ue170006Ev, symObjAddr: 0xB0A4, symBinAddr: 0x10000CBB4, symSize: 0x2C }
  - { offsetInCU: 0x20516, offset: 0x2C291, size: 0x8, addend: 0x0, symName: __ZNSt3__117__compressed_pairImNS_9allocatorIdEEEC1B8ue170006IiNS_18__default_init_tagEEEOT_OT0_, symObjAddr: 0xB0D0, symBinAddr: 0x10000CBE0, symSize: 0x3C }
  - { offsetInCU: 0x2056C, offset: 0x2C2E7, size: 0x8, addend: 0x0, symName: __ZNKSt3__15dequeIdNS_9allocatorIdEEE14__annotate_newB8ue170006Em, symObjAddr: 0xB10C, symBinAddr: 0x10000CC1C, symSize: 0xDC }
  - { offsetInCU: 0x2059F, offset: 0x2C31A, size: 0x8, addend: 0x0, symName: __ZNSt3__114__split_bufferIPdNS_9allocatorIS1_EEED1Ev, symObjAddr: 0xB1E8, symBinAddr: 0x10000CCF8, symSize: 0x2C }
  - { offsetInCU: 0x205CA, offset: 0x2C345, size: 0x8, addend: 0x0, symName: __ZNSt3__114__split_bufferIPdNS_9allocatorIS1_EEEC2B8ue170006Ev, symObjAddr: 0xB214, symBinAddr: 0x10000CD24, symSize: 0x48 }
  - { offsetInCU: 0x205F2, offset: 0x2C36D, size: 0x8, addend: 0x0, symName: __ZNSt3__117__compressed_pairIPPdNS_9allocatorIS1_EEEC1B8ue170006IDnNS_18__default_init_tagEEEOT_OT0_, symObjAddr: 0xB25C, symBinAddr: 0x10000CD6C, symSize: 0x3C }
  - { offsetInCU: 0x20648, offset: 0x2C3C3, size: 0x8, addend: 0x0, symName: __ZNSt3__117__compressed_pairIPPdNS_9allocatorIS1_EEEC2B8ue170006IDnNS_18__default_init_tagEEEOT_OT0_, symObjAddr: 0xB298, symBinAddr: 0x10000CDA8, symSize: 0x40 }
  - { offsetInCU: 0x2069E, offset: 0x2C419, size: 0x8, addend: 0x0, symName: __ZNSt3__122__compressed_pair_elemIPPdLi0ELb0EEC2B8ue170006IDnvEEOT_, symObjAddr: 0xB2D8, symBinAddr: 0x10000CDE8, symSize: 0x1C }
  - { offsetInCU: 0x206DF, offset: 0x2C45A, size: 0x8, addend: 0x0, symName: __ZNSt3__122__compressed_pair_elemINS_9allocatorIPdEELi1ELb1EEC2B8ue170006ENS_18__default_init_tagE, symObjAddr: 0xB2F4, symBinAddr: 0x10000CE04, symSize: 0x2C }
  - { offsetInCU: 0x20711, offset: 0x2C48C, size: 0x8, addend: 0x0, symName: __ZNSt3__19allocatorIPdEC2B8ue170006Ev, symObjAddr: 0xB320, symBinAddr: 0x10000CE30, symSize: 0x2C }
  - { offsetInCU: 0x20739, offset: 0x2C4B4, size: 0x8, addend: 0x0, symName: __ZNSt3__116__non_trivial_ifILb1ENS_9allocatorIPdEEEC2B8ue170006Ev, symObjAddr: 0xB34C, symBinAddr: 0x10000CE5C, symSize: 0x14 }
  - { offsetInCU: 0x20761, offset: 0x2C4DC, size: 0x8, addend: 0x0, symName: __ZNSt3__117__compressed_pairImNS_9allocatorIdEEEC2B8ue170006IiNS_18__default_init_tagEEEOT_OT0_, symObjAddr: 0xB360, symBinAddr: 0x10000CE70, symSize: 0x40 }
  - { offsetInCU: 0x207B7, offset: 0x2C532, size: 0x8, addend: 0x0, symName: __ZNSt3__122__compressed_pair_elemINS_9allocatorIdEELi1ELb1EEC2B8ue170006ENS_18__default_init_tagE, symObjAddr: 0xB3A0, symBinAddr: 0x10000CEB0, symSize: 0x2C }
  - { offsetInCU: 0x207E9, offset: 0x2C564, size: 0x8, addend: 0x0, symName: __ZNSt3__19allocatorIdEC2B8ue170006Ev, symObjAddr: 0xB3CC, symBinAddr: 0x10000CEDC, symSize: 0x2C }
  - { offsetInCU: 0x20811, offset: 0x2C58C, size: 0x8, addend: 0x0, symName: __ZNSt3__116__non_trivial_ifILb1ENS_9allocatorIdEEEC2B8ue170006Ev, symObjAddr: 0xB3F8, symBinAddr: 0x10000CF08, symSize: 0x14 }
  - { offsetInCU: 0x20839, offset: 0x2C5B4, size: 0x8, addend: 0x0, symName: __ZNKSt3__15dequeIdNS_9allocatorIdEEE18__annotate_from_toB8ue170006EmmNS3_22__asan_annotation_typeENS3_23__asan_annotation_placeE, symObjAddr: 0xB40C, symBinAddr: 0x10000CF1C, symSize: 0x580 }
  - { offsetInCU: 0x209F5, offset: 0x2C770, size: 0x8, addend: 0x0, symName: __ZNKSt3__114__split_bufferIPdNS_9allocatorIS1_EEE4sizeB8ue170006Ev, symObjAddr: 0xB98C, symBinAddr: 0x10000D49C, symSize: 0x28 }
  - { offsetInCU: 0x20A19, offset: 0x2C794, size: 0x8, addend: 0x0, symName: __ZNKSt3__114__split_bufferIPdNS_9allocatorIS1_EEE5beginB8ue170006Ev, symObjAddr: 0xB9B4, symBinAddr: 0x10000D4C4, symSize: 0x18 }
  - { offsetInCU: 0x20A3D, offset: 0x2C7B8, size: 0x8, addend: 0x0, symName: __ZNKSt3__15dequeIdNS_9allocatorIdEEE5emptyB8ue170006Ev, symObjAddr: 0xB9CC, symBinAddr: 0x10000D4DC, symSize: 0x30 }
  - { offsetInCU: 0x20A61, offset: 0x2C7DC, size: 0x8, addend: 0x0, symName: __ZNKSt3__15dequeIdNS_9allocatorIdEEE44__annotate_double_ended_contiguous_containerB8ue170006EPKvS5_S5_S5_S5_S5_, symObjAddr: 0xBA10, symBinAddr: 0x10000D520, symSize: 0x28 }
  - { offsetInCU: 0x20ACD, offset: 0x2C848, size: 0x8, addend: 0x0, symName: __ZNSt3__114__split_bufferIPdNS_9allocatorIS1_EEED2Ev, symObjAddr: 0xBA38, symBinAddr: 0x10000D548, symSize: 0x80 }
  - { offsetInCU: 0x20AF8, offset: 0x2C873, size: 0x8, addend: 0x0, symName: __ZNSt3__114__split_bufferIPdNS_9allocatorIS1_EEE5clearB8ue170006Ev, symObjAddr: 0xBAB8, symBinAddr: 0x10000D5C8, symSize: 0x28 }
  - { offsetInCU: 0x20B1C, offset: 0x2C897, size: 0x8, addend: 0x0, symName: __ZNSt3__116allocator_traitsINS_9allocatorIPdEEE10deallocateB8ue170006ERS3_PS2_m, symObjAddr: 0xBAE0, symBinAddr: 0x10000D5F0, symSize: 0x34 }
  - { offsetInCU: 0x20B5D, offset: 0x2C8D8, size: 0x8, addend: 0x0, symName: __ZNSt3__114__split_bufferIPdNS_9allocatorIS1_EEE7__allocB8ue170006Ev, symObjAddr: 0xBB14, symBinAddr: 0x10000D624, symSize: 0x28 }
  - { offsetInCU: 0x20B81, offset: 0x2C8FC, size: 0x8, addend: 0x0, symName: __ZNKSt3__114__split_bufferIPdNS_9allocatorIS1_EEE8capacityB8ue170006Ev, symObjAddr: 0xBB3C, symBinAddr: 0x10000D64C, symSize: 0x40 }
  - { offsetInCU: 0x20BA5, offset: 0x2C920, size: 0x8, addend: 0x0, symName: __ZNSt3__114__split_bufferIPdNS_9allocatorIS1_EEE17__destruct_at_endB8ue170006EPS1_, symObjAddr: 0xBB7C, symBinAddr: 0x10000D68C, symSize: 0x2C }
  - { offsetInCU: 0x20BD7, offset: 0x2C952, size: 0x8, addend: 0x0, symName: __ZNSt3__114__split_bufferIPdNS_9allocatorIS1_EEE17__destruct_at_endB8ue170006EPS1_NS_17integral_constantIbLb0EEE, symObjAddr: 0xBBA8, symBinAddr: 0x10000D6B8, symSize: 0x94 }
  - { offsetInCU: 0x20C15, offset: 0x2C990, size: 0x8, addend: 0x0, symName: __ZNSt3__116allocator_traitsINS_9allocatorIPdEEE7destroyB8ue170006IS2_vEEvRS3_PT_, symObjAddr: 0xBC3C, symBinAddr: 0x10000D74C, symSize: 0x2C }
  - { offsetInCU: 0x20C52, offset: 0x2C9CD, size: 0x8, addend: 0x0, symName: __ZNSt3__19allocatorIPdE7destroyB8ue170006EPS1_, symObjAddr: 0xBC7C, symBinAddr: 0x10000D78C, symSize: 0x14 }
  - { offsetInCU: 0x20C84, offset: 0x2C9FF, size: 0x8, addend: 0x0, symName: __ZNSt3__19allocatorIPdE10deallocateB8ue170006EPS1_m, symObjAddr: 0xBC90, symBinAddr: 0x10000D7A0, symSize: 0x70 }
  - { offsetInCU: 0x20CC4, offset: 0x2CA3F, size: 0x8, addend: 0x0, symName: __ZNSt3__117__compressed_pairIPPdNS_9allocatorIS1_EEE6secondB8ue170006Ev, symObjAddr: 0xBD00, symBinAddr: 0x10000D810, symSize: 0x24 }
  - { offsetInCU: 0x20CE8, offset: 0x2CA63, size: 0x8, addend: 0x0, symName: __ZNSt3__122__compressed_pair_elemINS_9allocatorIPdEELi1ELb1EE5__getB8ue170006Ev, symObjAddr: 0xBD24, symBinAddr: 0x10000D834, symSize: 0x14 }
  - { offsetInCU: 0x20D0C, offset: 0x2CA87, size: 0x8, addend: 0x0, symName: __ZNKSt3__114__split_bufferIPdNS_9allocatorIS1_EEE9__end_capB8ue170006Ev, symObjAddr: 0xBD38, symBinAddr: 0x10000D848, symSize: 0x28 }
  - { offsetInCU: 0x20D30, offset: 0x2CAAB, size: 0x8, addend: 0x0, symName: __ZNKSt3__117__compressed_pairIPPdNS_9allocatorIS1_EEE5firstB8ue170006Ev, symObjAddr: 0xBD60, symBinAddr: 0x10000D870, symSize: 0x24 }
  - { offsetInCU: 0x20D54, offset: 0x2CACF, size: 0x8, addend: 0x0, symName: __ZNKSt3__122__compressed_pair_elemIPPdLi0ELb0EE5__getB8ue170006Ev, symObjAddr: 0xBD84, symBinAddr: 0x10000D894, symSize: 0x14 }
  - { offsetInCU: 0x20D78, offset: 0x2CAF3, size: 0x8, addend: 0x0, symName: __ZNSt3__15dequeIdNS_9allocatorIdEEED2B8ue170006Ev, symObjAddr: 0xBD98, symBinAddr: 0x10000D8A8, symSize: 0xA4 }
  - { offsetInCU: 0x20DCD, offset: 0x2CB48, size: 0x8, addend: 0x0, symName: __ZNSt3__15dequeIdNS_9allocatorIdEEE5clearEv, symObjAddr: 0xBE3C, symBinAddr: 0x10000D94C, symSize: 0x194 }
  - { offsetInCU: 0x20E2F, offset: 0x2CBAA, size: 0x8, addend: 0x0, symName: __ZNKSt3__15dequeIdNS_9allocatorIdEEE17__annotate_deleteB8ue170006Ev, symObjAddr: 0xBFD0, symBinAddr: 0x10000DAE0, symSize: 0xE8 }
  - { offsetInCU: 0x20E71, offset: 0x2CBEC, size: 0x8, addend: 0x0, symName: __ZNSt3__114__split_bufferIPdNS_9allocatorIS1_EEE5beginB8ue170006Ev, symObjAddr: 0xC0B8, symBinAddr: 0x10000DBC8, symSize: 0x18 }
  - { offsetInCU: 0x20E95, offset: 0x2CC10, size: 0x8, addend: 0x0, symName: __ZNSt3__114__split_bufferIPdNS_9allocatorIS1_EEE3endB8ue170006Ev, symObjAddr: 0xC0D0, symBinAddr: 0x10000DBE0, symSize: 0x18 }
  - { offsetInCU: 0x20EB9, offset: 0x2CC34, size: 0x8, addend: 0x0, symName: __ZNSt3__116allocator_traitsINS_9allocatorIdEEE10deallocateB8ue170006ERS2_Pdm, symObjAddr: 0xC0E8, symBinAddr: 0x10000DBF8, symSize: 0x34 }
  - { offsetInCU: 0x20EFA, offset: 0x2CC75, size: 0x8, addend: 0x0, symName: __ZNSt3__15dequeIdNS_9allocatorIdEEE7__allocB8ue170006Ev, symObjAddr: 0xC11C, symBinAddr: 0x10000DC2C, symSize: 0x28 }
  - { offsetInCU: 0x20F1E, offset: 0x2CC99, size: 0x8, addend: 0x0, symName: __ZNSt3__116allocator_traitsINS_9allocatorIdEEE7destroyB8ue170006IdvEEvRS2_PT_, symObjAddr: 0xC178, symBinAddr: 0x10000DC88, symSize: 0x2C }
  - { offsetInCU: 0x20F5B, offset: 0x2CCD6, size: 0x8, addend: 0x0, symName: __ZNKSt3__116__deque_iteratorIdPdRdPS1_lLl512EEdeB8ue170006Ev, symObjAddr: 0xC1A4, symBinAddr: 0x10000DCB4, symSize: 0x18 }
  - { offsetInCU: 0x20F7F, offset: 0x2CCFA, size: 0x8, addend: 0x0, symName: __ZNSt3__116__deque_iteratorIdPdRdPS1_lLl512EEppB8ue170006Ev, symObjAddr: 0xC1BC, symBinAddr: 0x10000DCCC, symSize: 0x70 }
  - { offsetInCU: 0x20FA3, offset: 0x2CD1E, size: 0x8, addend: 0x0, symName: __ZNSt3__15dequeIdNS_9allocatorIdEEE6__sizeB8ue170006Ev, symObjAddr: 0xC22C, symBinAddr: 0x10000DD3C, symSize: 0x28 }
  - { offsetInCU: 0x20FC7, offset: 0x2CD42, size: 0x8, addend: 0x0, symName: __ZNSt3__114__split_bufferIPdNS_9allocatorIS1_EEE5frontB8ue170006Ev, symObjAddr: 0xC254, symBinAddr: 0x10000DD64, symSize: 0x18 }
  - { offsetInCU: 0x20FEB, offset: 0x2CD66, size: 0x8, addend: 0x0, symName: __ZNSt3__114__split_bufferIPdNS_9allocatorIS1_EEE9pop_frontB8ue170006Ev, symObjAddr: 0xC26C, symBinAddr: 0x10000DD7C, symSize: 0x2C }
  - { offsetInCU: 0x2100F, offset: 0x2CD8A, size: 0x8, addend: 0x0, symName: __ZNSt3__19allocatorIdE7destroyB8ue170006EPd, symObjAddr: 0xC2C8, symBinAddr: 0x10000DDD8, symSize: 0x14 }
  - { offsetInCU: 0x21041, offset: 0x2CDBC, size: 0x8, addend: 0x0, symName: __ZNSt3__117__compressed_pairImNS_9allocatorIdEEE5firstB8ue170006Ev, symObjAddr: 0xC2DC, symBinAddr: 0x10000DDEC, symSize: 0x24 }
  - { offsetInCU: 0x21065, offset: 0x2CDE0, size: 0x8, addend: 0x0, symName: __ZNSt3__114__split_bufferIPdNS_9allocatorIS1_EEE19__destruct_at_beginB8ue170006EPS1_, symObjAddr: 0xC300, symBinAddr: 0x10000DE10, symSize: 0x2C }
  - { offsetInCU: 0x21097, offset: 0x2CE12, size: 0x8, addend: 0x0, symName: __ZNSt3__114__split_bufferIPdNS_9allocatorIS1_EEE19__destruct_at_beginEPS1_NS_17integral_constantIbLb1EEE, symObjAddr: 0xC32C, symBinAddr: 0x10000DE3C, symSize: 0x20 }
  - { offsetInCU: 0x210D5, offset: 0x2CE50, size: 0x8, addend: 0x0, symName: __ZNKSt3__15dequeIdNS_9allocatorIdEEE22__annotate_whole_blockB8ue170006EmNS3_22__asan_annotation_typeE, symObjAddr: 0xC34C, symBinAddr: 0x10000DE5C, symSize: 0xAC }
  - { offsetInCU: 0x21144, offset: 0x2CEBF, size: 0x8, addend: 0x0, symName: __ZNKSt3__15dequeIdNS_9allocatorIdEEE23__annotate_poison_blockB8ue170006EPKvS5_, symObjAddr: 0xC3F8, symBinAddr: 0x10000DF08, symSize: 0x44 }
  - { offsetInCU: 0x21186, offset: 0x2CF01, size: 0x8, addend: 0x0, symName: __ZNSt3__19allocatorIdE10deallocateB8ue170006EPdm, symObjAddr: 0xC43C, symBinAddr: 0x10000DF4C, symSize: 0x70 }
  - { offsetInCU: 0x211C6, offset: 0x2CF41, size: 0x8, addend: 0x0, symName: __ZNSt3__117__compressed_pairImNS_9allocatorIdEEE6secondB8ue170006Ev, symObjAddr: 0xC4AC, symBinAddr: 0x10000DFBC, symSize: 0x24 }
  - { offsetInCU: 0x211EA, offset: 0x2CF65, size: 0x8, addend: 0x0, symName: __ZNSt3__122__compressed_pair_elemINS_9allocatorIdEELi1ELb1EE5__getB8ue170006Ev, symObjAddr: 0xC4D0, symBinAddr: 0x10000DFE0, symSize: 0x14 }
  - { offsetInCU: 0x2120E, offset: 0x2CF89, size: 0x8, addend: 0x0, symName: __ZNKSt3__15dequeIdNS_9allocatorIdEEE12__back_spareB8ue170006Ev, symObjAddr: 0xC4E4, symBinAddr: 0x10000DFF4, symSize: 0x54 }
  - { offsetInCU: 0x21232, offset: 0x2CFAD, size: 0x8, addend: 0x0, symName: __ZNSt3__15dequeIdNS_9allocatorIdEEE19__add_back_capacityEv, symObjAddr: 0xC538, symBinAddr: 0x10000E048, symSize: 0x364 }
  - { offsetInCU: 0x212E8, offset: 0x2D063, size: 0x8, addend: 0x0, symName: __ZNKSt3__15dequeIdNS_9allocatorIdEEE24__annotate_increase_backB8ue170006Em, symObjAddr: 0xC89C, symBinAddr: 0x10000E3AC, symSize: 0x7C }
  - { offsetInCU: 0x2131B, offset: 0x2D096, size: 0x8, addend: 0x0, symName: __ZNSt3__116allocator_traitsINS_9allocatorIdEEE9constructB8ue170006IdJRKdEvEEvRS2_PT_DpOT0_, symObjAddr: 0xC918, symBinAddr: 0x10000E428, symSize: 0x34 }
  - { offsetInCU: 0x21372, offset: 0x2D0ED, size: 0x8, addend: 0x0, symName: __ZNKSt3__15dequeIdNS_9allocatorIdEEE10__capacityB8ue170006Ev, symObjAddr: 0xC94C, symBinAddr: 0x10000E45C, symSize: 0x60 }
  - { offsetInCU: 0x21396, offset: 0x2D111, size: 0x8, addend: 0x0, symName: __ZNKSt3__15dequeIdNS_9allocatorIdEEE13__front_spareB8ue170006Ev, symObjAddr: 0xC9AC, symBinAddr: 0x10000E4BC, symSize: 0x18 }
  - { offsetInCU: 0x213BA, offset: 0x2D135, size: 0x8, addend: 0x0, symName: __ZNSt3__114__split_bufferIPdNS_9allocatorIS1_EEE9push_backB8ue170006ERKS1_, symObjAddr: 0xC9C4, symBinAddr: 0x10000E4D4, symSize: 0x270 }
  - { offsetInCU: 0x21431, offset: 0x2D1AC, size: 0x8, addend: 0x0, symName: __ZNKSt3__114__split_bufferIPdNS_9allocatorIS1_EEE12__back_spareB8ue170006Ev, symObjAddr: 0xCC34, symBinAddr: 0x10000E744, symSize: 0x40 }
  - { offsetInCU: 0x21455, offset: 0x2D1D0, size: 0x8, addend: 0x0, symName: __ZNSt3__114__split_bufferIPdNS_9allocatorIS1_EEE9push_backEOS1_, symObjAddr: 0xCC74, symBinAddr: 0x10000E784, symSize: 0x270 }
  - { offsetInCU: 0x214CC, offset: 0x2D247, size: 0x8, addend: 0x0, symName: __ZNSt3__116allocator_traitsINS_9allocatorIdEEE8allocateB8ue170006ERS2_m, symObjAddr: 0xCEE4, symBinAddr: 0x10000E9F4, symSize: 0x2C }
  - { offsetInCU: 0x214FE, offset: 0x2D279, size: 0x8, addend: 0x0, symName: __ZNSt3__114__split_bufferIPdNS_9allocatorIS1_EEE10push_frontEOS1_, symObjAddr: 0xCF10, symBinAddr: 0x10000EA20, symSize: 0x26C }
  - { offsetInCU: 0x21575, offset: 0x2D2F0, size: 0x8, addend: 0x0, symName: __ZNSt3__114__split_bufferIPdRNS_9allocatorIS1_EEEC1EmmS4_, symObjAddr: 0xD17C, symBinAddr: 0x10000EC8C, symSize: 0x44 }
  - { offsetInCU: 0x215CF, offset: 0x2D34A, size: 0x8, addend: 0x0, symName: __ZNSt3__122__allocator_destructorINS_9allocatorIdEEEC1B8ue170006ERS2_m, symObjAddr: 0xD1C0, symBinAddr: 0x10000ECD0, symSize: 0x3C }
  - { offsetInCU: 0x21695, offset: 0x2D410, size: 0x8, addend: 0x0, symName: __ZNSt3__110unique_ptrIPdNS_22__allocator_destructorINS_9allocatorIdEEEEEC1B8ue170006ILb1EvEES1_NS_16__dependent_typeINS_27__unique_ptr_deleter_sfinaeIS5_EEXT_EE20__good_rval_ref_typeE, symObjAddr: 0xD1FC, symBinAddr: 0x10000ED0C, symSize: 0x3C }
  - { offsetInCU: 0x216E5, offset: 0x2D460, size: 0x8, addend: 0x0, symName: __ZNSt3__114__split_bufferIPdRNS_9allocatorIS1_EEE9push_backEOS1_, symObjAddr: 0xD238, symBinAddr: 0x10000ED48, symSize: 0x270 }
  - { offsetInCU: 0x2175C, offset: 0x2D4D7, size: 0x8, addend: 0x0, symName: __ZNKSt3__110unique_ptrIPdNS_22__allocator_destructorINS_9allocatorIdEEEEE3getB8ue170006Ev, symObjAddr: 0xD4A8, symBinAddr: 0x10000EFB8, symSize: 0x28 }
  - { offsetInCU: 0x21780, offset: 0x2D4FB, size: 0x8, addend: 0x0, symName: __ZNSt3__110unique_ptrIPdNS_22__allocator_destructorINS_9allocatorIdEEEEE7releaseB8ue170006Ev, symObjAddr: 0xD4D0, symBinAddr: 0x10000EFE0, symSize: 0x44 }
  - { offsetInCU: 0x217B3, offset: 0x2D52E, size: 0x8, addend: 0x0, symName: __ZNSt3__114__split_bufferIPdRNS_9allocatorIS1_EEE10push_frontERKS1_, symObjAddr: 0xD514, symBinAddr: 0x10000F024, symSize: 0x26C }
  - { offsetInCU: 0x2182A, offset: 0x2D5A5, size: 0x8, addend: 0x0, symName: __ZNSt3__114__split_bufferIPdNS_9allocatorIS1_EEE9__end_capB8ue170006Ev, symObjAddr: 0xD7BC, symBinAddr: 0x10000F2CC, symSize: 0x28 }
  - { offsetInCU: 0x2184E, offset: 0x2D5C9, size: 0x8, addend: 0x0, symName: __ZNSt3__114__split_bufferIPdRNS_9allocatorIS1_EEE9__end_capB8ue170006Ev, symObjAddr: 0xD7E4, symBinAddr: 0x10000F2F4, symSize: 0x28 }
  - { offsetInCU: 0x21872, offset: 0x2D5ED, size: 0x8, addend: 0x0, symName: __ZNSt3__110unique_ptrIPdNS_22__allocator_destructorINS_9allocatorIdEEEEED1B8ue170006Ev, symObjAddr: 0xD80C, symBinAddr: 0x10000F31C, symSize: 0x2C }
  - { offsetInCU: 0x2189A, offset: 0x2D615, size: 0x8, addend: 0x0, symName: __ZNSt3__114__split_bufferIPdRNS_9allocatorIS1_EEED1Ev, symObjAddr: 0xD838, symBinAddr: 0x10000F348, symSize: 0x2C }
  - { offsetInCU: 0x218C5, offset: 0x2D640, size: 0x8, addend: 0x0, symName: __ZNSt3__114__split_bufferIPdRNS_9allocatorIS1_EEE18__construct_at_endINS_13move_iteratorIPS1_EEEENS_9enable_ifIXsr31__has_forward_iterator_categoryIT_EE5valueEvE4typeESB_SB_, symObjAddr: 0xD8A4, symBinAddr: 0x10000F3B4, symSize: 0x60 }
  - { offsetInCU: 0x21910, offset: 0x2D68B, size: 0x8, addend: 0x0, symName: __ZNSt3__113move_iteratorIPPdEC1B8ue170006ES2_, symObjAddr: 0xD904, symBinAddr: 0x10000F414, symSize: 0x34 }
  - { offsetInCU: 0x21946, offset: 0x2D6C1, size: 0x8, addend: 0x0, symName: __ZNSt3__116allocator_traitsINS_9allocatorIPdEEE9constructB8ue170006IS2_JRKS2_EvEEvRS3_PT_DpOT0_, symObjAddr: 0xD938, symBinAddr: 0x10000F448, symSize: 0x34 }
  - { offsetInCU: 0x219C0, offset: 0x2D73B, size: 0x8, addend: 0x0, symName: __ZNKSt3__114__move_trivialclB8ue170006IPdS2_Li0EEENS_4pairIPT_PT0_EES5_S5_S7_, symObjAddr: 0xDB08, symBinAddr: 0x10000F618, symSize: 0x48 }
  - { offsetInCU: 0x21A27, offset: 0x2D7A2, size: 0x8, addend: 0x0, symName: __ZNSt3__14pairIPPdS2_EC1B8ue170006ERKS2_S5_, symObjAddr: 0xDD80, symBinAddr: 0x10000F890, symSize: 0x3C }
  - { offsetInCU: 0x21A6B, offset: 0x2D7E6, size: 0x8, addend: 0x0, symName: __ZNSt3__14pairIPPdS2_EC2B8ue170006ERKS2_S5_, symObjAddr: 0xDDBC, symBinAddr: 0x10000F8CC, symSize: 0x34 }
  - { offsetInCU: 0x21AAF, offset: 0x2D82A, size: 0x8, addend: 0x0, symName: __ZNSt3__118__unwrap_iter_implIPPdLb1EE8__unwrapB8ue170006ES2_, symObjAddr: 0xDDF0, symBinAddr: 0x10000F900, symSize: 0x24 }
  - { offsetInCU: 0x21AD1, offset: 0x2D84C, size: 0x8, addend: 0x0, symName: __ZNSt3__118__unwrap_iter_implIPPdLb1EE8__rewrapB8ue170006ES2_S2_, symObjAddr: 0xDE14, symBinAddr: 0x10000F924, symSize: 0x50 }
  - { offsetInCU: 0x21B01, offset: 0x2D87C, size: 0x8, addend: 0x0, symName: __ZNSt3__114__split_bufferIPdRNS_9allocatorIS1_EEE28__construct_at_end_with_sizeINS_13move_iteratorIPS1_EEEEvT_m, symObjAddr: 0xDE64, symBinAddr: 0x10000F974, symSize: 0xE4 }
  - { offsetInCU: 0x21B65, offset: 0x2D8E0, size: 0x8, addend: 0x0, symName: __ZNSt3__114__split_bufferIPdRNS_9allocatorIS1_EEE21_ConstructTransactionC1B8ue170006EPPS1_m, symObjAddr: 0xDF84, symBinAddr: 0x10000FA94, symSize: 0x3C }
  - { offsetInCU: 0x21BA9, offset: 0x2D924, size: 0x8, addend: 0x0, symName: __ZNSt3__116allocator_traitsINS_9allocatorIPdEEE9constructB8ue170006IS2_JS2_EvEEvRS3_PT_DpOT0_, symObjAddr: 0xDFC0, symBinAddr: 0x10000FAD0, symSize: 0x34 }
  - { offsetInCU: 0x21C00, offset: 0x2D97B, size: 0x8, addend: 0x0, symName: __ZNSt3__114__split_bufferIPdRNS_9allocatorIS1_EEE7__allocB8ue170006Ev, symObjAddr: 0xDFF4, symBinAddr: 0x10000FB04, symSize: 0x28 }
  - { offsetInCU: 0x21C24, offset: 0x2D99F, size: 0x8, addend: 0x0, symName: __ZNKSt3__113move_iteratorIPPdEdeB8ue170006Ev, symObjAddr: 0xE01C, symBinAddr: 0x10000FB2C, symSize: 0x18 }
  - { offsetInCU: 0x21C48, offset: 0x2D9C3, size: 0x8, addend: 0x0, symName: __ZNSt3__113move_iteratorIPPdEppB8ue170006Ev, symObjAddr: 0xE034, symBinAddr: 0x10000FB44, symSize: 0x20 }
  - { offsetInCU: 0x21C6C, offset: 0x2D9E7, size: 0x8, addend: 0x0, symName: __ZNSt3__114__split_bufferIPdRNS_9allocatorIS1_EEE21_ConstructTransactionD1B8ue170006Ev, symObjAddr: 0xE054, symBinAddr: 0x10000FB64, symSize: 0x2C }
  - { offsetInCU: 0x21C94, offset: 0x2DA0F, size: 0x8, addend: 0x0, symName: __ZNSt3__114__split_bufferIPdRNS_9allocatorIS1_EEE21_ConstructTransactionC2B8ue170006EPPS1_m, symObjAddr: 0xE080, symBinAddr: 0x10000FB90, symSize: 0x44 }
  - { offsetInCU: 0x21CD8, offset: 0x2DA53, size: 0x8, addend: 0x0, symName: __ZNSt3__19allocatorIPdE9constructB8ue170006IS1_JS1_EEEvPT_DpOT0_, symObjAddr: 0xE0C4, symBinAddr: 0x10000FBD4, symSize: 0x28 }
  - { offsetInCU: 0x21D2C, offset: 0x2DAA7, size: 0x8, addend: 0x0, symName: __ZNSt3__117__compressed_pairIPPdRNS_9allocatorIS1_EEE6secondB8ue170006Ev, symObjAddr: 0xE0EC, symBinAddr: 0x10000FBFC, symSize: 0x28 }
  - { offsetInCU: 0x21D50, offset: 0x2DACB, size: 0x8, addend: 0x0, symName: __ZNSt3__122__compressed_pair_elemIRNS_9allocatorIPdEELi1ELb0EE5__getB8ue170006Ev, symObjAddr: 0xE114, symBinAddr: 0x10000FC24, symSize: 0x18 }
  - { offsetInCU: 0x21D74, offset: 0x2DAEF, size: 0x8, addend: 0x0, symName: __ZNSt3__114__split_bufferIPdRNS_9allocatorIS1_EEE21_ConstructTransactionD2B8ue170006Ev, symObjAddr: 0xE12C, symBinAddr: 0x10000FC3C, symSize: 0x20 }
  - { offsetInCU: 0x21D9C, offset: 0x2DB17, size: 0x8, addend: 0x0, symName: __ZNKSt3__113move_iteratorIPPdE4baseB8ue170006Ev, symObjAddr: 0xE1C4, symBinAddr: 0x10000FCD4, symSize: 0x18 }
  - { offsetInCU: 0x21DC0, offset: 0x2DB3B, size: 0x8, addend: 0x0, symName: __ZNSt3__113move_iteratorIPPdEC2B8ue170006ES2_, symObjAddr: 0xE1DC, symBinAddr: 0x10000FCEC, symSize: 0x20 }
  - { offsetInCU: 0x21DF6, offset: 0x2DB71, size: 0x8, addend: 0x0, symName: __ZNSt3__19allocatorIPdE9constructB8ue170006IS1_JRKS1_EEEvPT_DpOT0_, symObjAddr: 0xE1FC, symBinAddr: 0x10000FD0C, symSize: 0x28 }
  - { offsetInCU: 0x21E4A, offset: 0x2DBC5, size: 0x8, addend: 0x0, symName: __ZNSt3__19allocatorIdE8allocateB8ue170006Em, symObjAddr: 0xE224, symBinAddr: 0x10000FD34, symSize: 0x84 }
  - { offsetInCU: 0x21E86, offset: 0x2DC01, size: 0x8, addend: 0x0, symName: __ZNSt3__116allocator_traitsINS_9allocatorIdEEE8max_sizeB8ue170006IS2_vEEmRKS2_, symObjAddr: 0xE2A8, symBinAddr: 0x10000FDB8, symSize: 0x24 }
  - { offsetInCU: 0x21EB4, offset: 0x2DC2F, size: 0x8, addend: 0x0, symName: __ZNKSt3__19allocatorIdE8max_sizeB8ue170006Ev, symObjAddr: 0xE2CC, symBinAddr: 0x10000FDDC, symSize: 0x14 }
  - { offsetInCU: 0x21EE2, offset: 0x2DC5D, size: 0x8, addend: 0x0, symName: __ZNKSt3__123__move_backward_trivialclB8ue170006IPdS2_Li0EEENS_4pairIPT_PT0_EES5_S5_S7_, symObjAddr: 0xE45C, symBinAddr: 0x10000FF6C, symSize: 0x48 }
  - { offsetInCU: 0x21F49, offset: 0x2DCC4, size: 0x8, addend: 0x0, symName: __ZNSt3__114__split_bufferIPdRNS_9allocatorIS1_EEEC2EmmS4_, symObjAddr: 0xE56C, symBinAddr: 0x10001007C, symSize: 0xD4 }
  - { offsetInCU: 0x21FBC, offset: 0x2DD37, size: 0x8, addend: 0x0, symName: __ZNSt3__117__compressed_pairIPPdRNS_9allocatorIS1_EEEC1B8ue170006IDnS5_EEOT_OT0_, symObjAddr: 0xE640, symBinAddr: 0x100010150, symSize: 0x3C }
  - { offsetInCU: 0x22012, offset: 0x2DD8D, size: 0x8, addend: 0x0, symName: __ZNSt3__117__compressed_pairIPPdRNS_9allocatorIS1_EEEC2B8ue170006IDnS5_EEOT_OT0_, symObjAddr: 0xE6BC, symBinAddr: 0x1000101CC, symSize: 0x48 }
  - { offsetInCU: 0x22068, offset: 0x2DDE3, size: 0x8, addend: 0x0, symName: __ZNSt3__122__compressed_pair_elemIRNS_9allocatorIPdEELi1ELb0EEC2B8ue170006IS4_vEEOT_, symObjAddr: 0xE704, symBinAddr: 0x100010214, symSize: 0x20 }
  - { offsetInCU: 0x220A9, offset: 0x2DE24, size: 0x8, addend: 0x0, symName: __ZNSt3__19allocatorIPdE8allocateB8ue170006Em, symObjAddr: 0xE724, symBinAddr: 0x100010234, symSize: 0x84 }
  - { offsetInCU: 0x220E5, offset: 0x2DE60, size: 0x8, addend: 0x0, symName: __ZNSt3__116allocator_traitsINS_9allocatorIPdEEE8max_sizeB8ue170006IS3_vEEmRKS3_, symObjAddr: 0xE7A8, symBinAddr: 0x1000102B8, symSize: 0x24 }
  - { offsetInCU: 0x22113, offset: 0x2DE8E, size: 0x8, addend: 0x0, symName: __ZNKSt3__19allocatorIPdE8max_sizeB8ue170006Ev, symObjAddr: 0xE7CC, symBinAddr: 0x1000102DC, symSize: 0x14 }
  - { offsetInCU: 0x22137, offset: 0x2DEB2, size: 0x8, addend: 0x0, symName: __ZNSt3__122__allocator_destructorINS_9allocatorIdEEEC2B8ue170006ERS2_m, symObjAddr: 0xE7E0, symBinAddr: 0x1000102F0, symSize: 0x2C }
  - { offsetInCU: 0x2217B, offset: 0x2DEF6, size: 0x8, addend: 0x0, symName: __ZNSt3__110unique_ptrIPdNS_22__allocator_destructorINS_9allocatorIdEEEEEC2B8ue170006ILb1EvEES1_NS_16__dependent_typeINS_27__unique_ptr_deleter_sfinaeIS5_EEXT_EE20__good_rval_ref_typeE, symObjAddr: 0xE80C, symBinAddr: 0x10001031C, symSize: 0x5C }
  - { offsetInCU: 0x221CB, offset: 0x2DF46, size: 0x8, addend: 0x0, symName: __ZNSt3__117__compressed_pairIPdNS_22__allocator_destructorINS_9allocatorIdEEEEEC1B8ue170006IRS1_S5_EEOT_OT0_, symObjAddr: 0xE868, symBinAddr: 0x100010378, symSize: 0x3C }
  - { offsetInCU: 0x22221, offset: 0x2DF9C, size: 0x8, addend: 0x0, symName: __ZNSt3__117__compressed_pairIPdNS_22__allocator_destructorINS_9allocatorIdEEEEEC2B8ue170006IRS1_S5_EEOT_OT0_, symObjAddr: 0xE8A4, symBinAddr: 0x1000103B4, symSize: 0x48 }
  - { offsetInCU: 0x22277, offset: 0x2DFF2, size: 0x8, addend: 0x0, symName: __ZNSt3__122__compressed_pair_elemIPdLi0ELb0EEC2B8ue170006IRS1_vEEOT_, symObjAddr: 0xE8EC, symBinAddr: 0x1000103FC, symSize: 0x24 }
  - { offsetInCU: 0x222B8, offset: 0x2E033, size: 0x8, addend: 0x0, symName: __ZNSt3__122__compressed_pair_elemINS_22__allocator_destructorINS_9allocatorIdEEEELi1ELb0EEC2B8ue170006IS4_vEEOT_, symObjAddr: 0xE910, symBinAddr: 0x100010420, symSize: 0x24 }
  - { offsetInCU: 0x222F9, offset: 0x2E074, size: 0x8, addend: 0x0, symName: __ZNKSt3__117__compressed_pairIPdNS_22__allocator_destructorINS_9allocatorIdEEEEE5firstB8ue170006Ev, symObjAddr: 0xE934, symBinAddr: 0x100010444, symSize: 0x24 }
  - { offsetInCU: 0x2231D, offset: 0x2E098, size: 0x8, addend: 0x0, symName: __ZNKSt3__122__compressed_pair_elemIPdLi0ELb0EE5__getB8ue170006Ev, symObjAddr: 0xE958, symBinAddr: 0x100010468, symSize: 0x14 }
  - { offsetInCU: 0x22341, offset: 0x2E0BC, size: 0x8, addend: 0x0, symName: __ZNSt3__117__compressed_pairIPdNS_22__allocator_destructorINS_9allocatorIdEEEEE5firstB8ue170006Ev, symObjAddr: 0xE96C, symBinAddr: 0x10001047C, symSize: 0x24 }
  - { offsetInCU: 0x22365, offset: 0x2E0E0, size: 0x8, addend: 0x0, symName: __ZNSt3__122__compressed_pair_elemIPdLi0ELb0EE5__getB8ue170006Ev, symObjAddr: 0xE990, symBinAddr: 0x1000104A0, symSize: 0x14 }
  - { offsetInCU: 0x22389, offset: 0x2E104, size: 0x8, addend: 0x0, symName: __ZNSt3__117__compressed_pairIPPdNS_9allocatorIS1_EEE5firstB8ue170006Ev, symObjAddr: 0xE9A4, symBinAddr: 0x1000104B4, symSize: 0x24 }
  - { offsetInCU: 0x223AD, offset: 0x2E128, size: 0x8, addend: 0x0, symName: __ZNSt3__122__compressed_pair_elemIPPdLi0ELb0EE5__getB8ue170006Ev, symObjAddr: 0xE9C8, symBinAddr: 0x1000104D8, symSize: 0x14 }
  - { offsetInCU: 0x223D1, offset: 0x2E14C, size: 0x8, addend: 0x0, symName: __ZNSt3__117__compressed_pairIPPdRNS_9allocatorIS1_EEE5firstB8ue170006Ev, symObjAddr: 0xE9DC, symBinAddr: 0x1000104EC, symSize: 0x24 }
  - { offsetInCU: 0x223F5, offset: 0x2E170, size: 0x8, addend: 0x0, symName: __ZNSt3__110unique_ptrIPdNS_22__allocator_destructorINS_9allocatorIdEEEEED2B8ue170006Ev, symObjAddr: 0xEA00, symBinAddr: 0x100010510, symSize: 0x30 }
  - { offsetInCU: 0x2241D, offset: 0x2E198, size: 0x8, addend: 0x0, symName: __ZNSt3__110unique_ptrIPdNS_22__allocator_destructorINS_9allocatorIdEEEEE5resetB8ue170006ES1_, symObjAddr: 0xEA30, symBinAddr: 0x100010540, symSize: 0x78 }
  - { offsetInCU: 0x2245F, offset: 0x2E1DA, size: 0x8, addend: 0x0, symName: __ZNSt3__117__compressed_pairIPdNS_22__allocator_destructorINS_9allocatorIdEEEEE6secondB8ue170006Ev, symObjAddr: 0xEAA8, symBinAddr: 0x1000105B8, symSize: 0x28 }
  - { offsetInCU: 0x22483, offset: 0x2E1FE, size: 0x8, addend: 0x0, symName: __ZNSt3__122__allocator_destructorINS_9allocatorIdEEEclB8ue170006EPd, symObjAddr: 0xEAD0, symBinAddr: 0x1000105E0, symSize: 0x34 }
  - { offsetInCU: 0x224B5, offset: 0x2E230, size: 0x8, addend: 0x0, symName: __ZNSt3__122__compressed_pair_elemINS_22__allocator_destructorINS_9allocatorIdEEEELi1ELb0EE5__getB8ue170006Ev, symObjAddr: 0xEB04, symBinAddr: 0x100010614, symSize: 0x14 }
  - { offsetInCU: 0x224D9, offset: 0x2E254, size: 0x8, addend: 0x0, symName: __ZNSt3__114__split_bufferIPdRNS_9allocatorIS1_EEED2Ev, symObjAddr: 0xEB18, symBinAddr: 0x100010628, symSize: 0x80 }
  - { offsetInCU: 0x22504, offset: 0x2E27F, size: 0x8, addend: 0x0, symName: __ZNSt3__114__split_bufferIPdRNS_9allocatorIS1_EEE5clearB8ue170006Ev, symObjAddr: 0xEB98, symBinAddr: 0x1000106A8, symSize: 0x28 }
  - { offsetInCU: 0x22528, offset: 0x2E2A3, size: 0x8, addend: 0x0, symName: __ZNKSt3__114__split_bufferIPdRNS_9allocatorIS1_EEE8capacityB8ue170006Ev, symObjAddr: 0xEBC0, symBinAddr: 0x1000106D0, symSize: 0x40 }
  - { offsetInCU: 0x2254C, offset: 0x2E2C7, size: 0x8, addend: 0x0, symName: __ZNSt3__114__split_bufferIPdRNS_9allocatorIS1_EEE17__destruct_at_endB8ue170006EPS1_, symObjAddr: 0xEC00, symBinAddr: 0x100010710, symSize: 0x2C }
  - { offsetInCU: 0x2257E, offset: 0x2E2F9, size: 0x8, addend: 0x0, symName: __ZNSt3__114__split_bufferIPdRNS_9allocatorIS1_EEE17__destruct_at_endB8ue170006EPS1_NS_17integral_constantIbLb0EEE, symObjAddr: 0xEC2C, symBinAddr: 0x10001073C, symSize: 0x94 }
  - { offsetInCU: 0x225BC, offset: 0x2E337, size: 0x8, addend: 0x0, symName: __ZNKSt3__114__split_bufferIPdRNS_9allocatorIS1_EEE9__end_capB8ue170006Ev, symObjAddr: 0xECC0, symBinAddr: 0x1000107D0, symSize: 0x28 }
  - { offsetInCU: 0x225E0, offset: 0x2E35B, size: 0x8, addend: 0x0, symName: __ZNKSt3__117__compressed_pairIPPdRNS_9allocatorIS1_EEE5firstB8ue170006Ev, symObjAddr: 0xECE8, symBinAddr: 0x1000107F8, symSize: 0x24 }
  - { offsetInCU: 0x22604, offset: 0x2E37F, size: 0x8, addend: 0x0, symName: __ZNSt3__19allocatorIdE9constructB8ue170006IdJRKdEEEvPT_DpOT0_, symObjAddr: 0xED0C, symBinAddr: 0x10001081C, symSize: 0x28 }
  - { offsetInCU: 0x22658, offset: 0x2E3D3, size: 0x8, addend: 0x0, symName: __ZNKSt3__114__split_bufferIPdNS_9allocatorIS1_EEE5emptyB8ue170006Ev, symObjAddr: 0xED34, symBinAddr: 0x100010844, symSize: 0x28 }
  - { offsetInCU: 0x2267C, offset: 0x2E3F7, size: 0x8, addend: 0x0, symName: __ZNSt3__116__deque_iteratorIdPdRdPS1_lLl512EEC1B8ue170006ES3_S1_, symObjAddr: 0xED5C, symBinAddr: 0x10001086C, symSize: 0x3C }
  - { offsetInCU: 0x226C2, offset: 0x2E43D, size: 0x8, addend: 0x0, symName: __ZNSt3__116__deque_iteratorIdPdRdPS1_lLl512EEC2B8ue170006ES3_S1_, symObjAddr: 0xED98, symBinAddr: 0x1000108A8, symSize: 0x2C }
  - { offsetInCU: 0x22708, offset: 0x2E483, size: 0x8, addend: 0x0, symName: __ZNSt3__18_IterOpsINS_17_ClassicAlgPolicyEE4nextB8ue170006INS_16__deque_iteratorIdPdRdPS5_lLl512EEEEET_S9_S9_, symObjAddr: 0xF15C, symBinAddr: 0x100010C6C, symSize: 0x2C }
  - { offsetInCU: 0x2273D, offset: 0x2E4B8, size: 0x8, addend: 0x0, symName: __ZNKSt3__17greaterIdEclB8ue170006ERKdS3_, symObjAddr: 0xF4B4, symBinAddr: 0x100010FC4, symSize: 0x34 }
  - { offsetInCU: 0x2277F, offset: 0x2E4FA, size: 0x8, addend: 0x0, symName: __ZNSt3__18_IterOpsINS_17_ClassicAlgPolicyEE9iter_swapB8ue170006IRNS_16__deque_iteratorIdPdRdPS5_lLl512EEES9_EEvOT_OT0_, symObjAddr: 0xF4E8, symBinAddr: 0x100010FF8, symSize: 0x4C }
  - { offsetInCU: 0x227C1, offset: 0x2E53C, size: 0x8, addend: 0x0, symName: __ZNKSt3__116__deque_iteratorIdPdRdPS1_lLl512EEplB8ue170006El, symObjAddr: 0xF908, symBinAddr: 0x100011418, symSize: 0x40 }
  - { offsetInCU: 0x22803, offset: 0x2E57E, size: 0x8, addend: 0x0, symName: __ZNSt3__116__deque_iteratorIdPdRdPS1_lLl512EEpLB8ue170006El, symObjAddr: 0xF948, symBinAddr: 0x100011458, symSize: 0x110 }
  - { offsetInCU: 0x22859, offset: 0x2E5D4, size: 0x8, addend: 0x0, symName: __ZNSt3__18_IterOpsINS_17_ClassicAlgPolicyEE11__iter_moveB8ue170006IRNS_16__deque_iteratorIdPdRdPS5_lLl512EEEEENS_9enable_ifIXsr12is_referenceIDTdeclsr3stdE7declvalIRT_EEEEE5valueEDTclsr3stdE4movedeclsr3stdE7declvalISC_EEEEE4typeEOSB_, symObjAddr: 0xFAEC, symBinAddr: 0x1000115FC, symSize: 0x28 }
  - { offsetInCU: 0x22884, offset: 0x2E5FF, size: 0x8, addend: 0x0, symName: __ZNSt3__18_IterOpsINS_17_ClassicAlgPolicyEE25__validate_iter_referenceB8ue170006IRNS_16__deque_iteratorIdPdRdPS5_lLl512EEEEEvv, symObjAddr: 0xFB14, symBinAddr: 0x100011624, symSize: 0x4 }
  - { offsetInCU: 0x228A1, offset: 0x2E61C, size: 0x8, addend: 0x0, symName: __ZNSt3__116__deque_iteratorIdPdRdPS1_lLl512EEmmB8ue170006Ev, symObjAddr: 0xFC74, symBinAddr: 0x100011784, symSize: 0x68 }
  - { offsetInCU: 0x228C5, offset: 0x2E640, size: 0x8, addend: 0x0, symName: __ZNSt3__118__unwrap_iter_implINS_16__deque_iteratorIdPdRdPS2_lLl512EEELb0EE8__unwrapB8ue170006ES5_, symObjAddr: 0xFFAC, symBinAddr: 0x100011ABC, symSize: 0x24 }
  - { offsetInCU: 0x228E7, offset: 0x2E662, size: 0x8, addend: 0x0, symName: __ZNKSt3__116__deque_iteratorIdPdRdPS1_lLl512EEmiB8ue170006El, symObjAddr: 0x10FF0, symBinAddr: 0x100012B00, symSize: 0x40 }
  - { offsetInCU: 0x2292E, offset: 0x2E6A9, size: 0x8, addend: 0x0, symName: __ZNSt3__18_IterOpsINS_17_ClassicAlgPolicyEE9iter_swapB8ue170006IRNS_16__deque_iteratorIdPdRdPS5_lLl512EEES8_EEvOT_OT0_, symObjAddr: 0x11030, symBinAddr: 0x100012B40, symSize: 0x4C }
  - { offsetInCU: 0x22970, offset: 0x2E6EB, size: 0x8, addend: 0x0, symName: __ZNSt3__116__deque_iteratorIdPdRdPS1_lLl512EEmIB8ue170006El, symObjAddr: 0x1217C, symBinAddr: 0x100013C8C, symSize: 0x34 }
  - { offsetInCU: 0x229A3, offset: 0x2E71E, size: 0x8, addend: 0x0, symName: __ZNSt3__18_IterOpsINS_17_ClassicAlgPolicyEE9iter_swapB8ue170006INS_16__deque_iteratorIdPdRdPS5_lLl512EEES8_EEvOT_OT0_, symObjAddr: 0x12A5C, symBinAddr: 0x10001456C, symSize: 0x4C }
  - { offsetInCU: 0x22A03, offset: 0x2E77E, size: 0x8, addend: 0x0, symName: __ZNSt3__14pairINS_16__deque_iteratorIdPdRdPS2_lLl512EEEbEC1B8ue170006ERKS5_RKb, symObjAddr: 0x12AC4, symBinAddr: 0x1000145D4, symSize: 0x3C }
  - { offsetInCU: 0x22A47, offset: 0x2E7C2, size: 0x8, addend: 0x0, symName: __ZNSt3__14pairINS_16__deque_iteratorIdPdRdPS2_lLl512EEEbEC2B8ue170006ERKS5_RKb, symObjAddr: 0x12B00, symBinAddr: 0x100014610, symSize: 0x38 }
  - { offsetInCU: 0x22A8B, offset: 0x2E806, size: 0x8, addend: 0x0, symName: __ZNKSt3__15dequeIdNS_9allocatorIdEEE23__annotate_shrink_frontB8ue170006Emm, symObjAddr: 0x12B38, symBinAddr: 0x100014648, symSize: 0x70 }
  - { offsetInCU: 0x22ACD, offset: 0x2E848, size: 0x8, addend: 0x0, symName: __ZNSt3__15dequeIdNS_9allocatorIdEEE26__maybe_remove_front_spareB8ue170006Eb, symObjAddr: 0x12BA8, symBinAddr: 0x1000146B8, symSize: 0xEC }
  - { offsetInCU: 0x22B00, offset: 0x2E87B, size: 0x8, addend: 0x0, symName: __ZNKSt3__15dequeIdNS_9allocatorIdEEE20__front_spare_blocksB8ue170006Ev, symObjAddr: 0x12C94, symBinAddr: 0x1000147A4, symSize: 0x2C }
  - { offsetInCU: 0x22B24, offset: 0x2E89F, size: 0x8, addend: 0x0, symName: __ZNKSt3__15dequeIdNS_9allocatorIdEEE22__annotate_shrink_backB8ue170006Emm, symObjAddr: 0x12CC0, symBinAddr: 0x1000147D0, symSize: 0x60 }
  - { offsetInCU: 0x22B66, offset: 0x2E8E1, size: 0x8, addend: 0x0, symName: __ZNSt3__15dequeIdNS_9allocatorIdEEE25__maybe_remove_back_spareB8ue170006Eb, symObjAddr: 0x12D20, symBinAddr: 0x100014830, symSize: 0xE8 }
  - { offsetInCU: 0x22B99, offset: 0x2E914, size: 0x8, addend: 0x0, symName: __ZNKSt3__15dequeIdNS_9allocatorIdEEE19__back_spare_blocksB8ue170006Ev, symObjAddr: 0x12E08, symBinAddr: 0x100014918, symSize: 0x2C }
  - { offsetInCU: 0x22BBD, offset: 0x2E938, size: 0x8, addend: 0x0, symName: __ZNSt3__114__split_bufferIPdNS_9allocatorIS1_EEE4backB8ue170006Ev, symObjAddr: 0x12E34, symBinAddr: 0x100014944, symSize: 0x1C }
  - { offsetInCU: 0x22BE1, offset: 0x2E95C, size: 0x8, addend: 0x0, symName: __ZNSt3__114__split_bufferIPdNS_9allocatorIS1_EEE8pop_backB8ue170006Ev, symObjAddr: 0x12E50, symBinAddr: 0x100014960, symSize: 0x2C }
  - { offsetInCU: 0x22C05, offset: 0x2E980, size: 0x8, addend: 0x0, symName: __ZNKSt3__15dequeIdNS_9allocatorIdEEE6__sizeB8ue170006Ev, symObjAddr: 0x12E7C, symBinAddr: 0x10001498C, symSize: 0x28 }
  - { offsetInCU: 0x22C29, offset: 0x2E9A4, size: 0x8, addend: 0x0, symName: __ZNKSt3__117__compressed_pairImNS_9allocatorIdEEE5firstB8ue170006Ev, symObjAddr: 0x12EA4, symBinAddr: 0x1000149B4, symSize: 0x24 }
  - { offsetInCU: 0x22C4D, offset: 0x2E9C8, size: 0x8, addend: 0x0, symName: __ZNKSt3__122__compressed_pair_elemImLi0ELb0EE5__getB8ue170006Ev, symObjAddr: 0x12EC8, symBinAddr: 0x1000149D8, symSize: 0x14 }
  - { offsetInCU: 0x22C71, offset: 0x2E9EC, size: 0x8, addend: 0x0, symName: __ZNSt3__13mapIi10competitorNS_4lessIiEENS_9allocatorINS_4pairIKiS1_EEEEE25__construct_node_with_keyERS6_, symObjAddr: 0x12EDC, symBinAddr: 0x1000149EC, symSize: 0x144 }
  - { offsetInCU: 0x22CC5, offset: 0x2EA40, size: 0x8, addend: 0x0, symName: __ZNKSt3__110unique_ptrINS_11__tree_nodeINS_12__value_typeIi10competitorEEPvEENS_21__map_node_destructorINS_9allocatorIS6_EEEEE3getB8ue170006Ev, symObjAddr: 0x13020, symBinAddr: 0x100014B30, symSize: 0x28 }
  - { offsetInCU: 0x22CE9, offset: 0x2EA64, size: 0x8, addend: 0x0, symName: __ZNSt3__110unique_ptrINS_11__tree_nodeINS_12__value_typeIi10competitorEEPvEENS_21__map_node_destructorINS_9allocatorIS6_EEEEE7releaseB8ue170006Ev, symObjAddr: 0x13048, symBinAddr: 0x100014B58, symSize: 0x44 }
  - { offsetInCU: 0x22D1C, offset: 0x2EA97, size: 0x8, addend: 0x0, symName: __ZNSt3__110unique_ptrINS_11__tree_nodeINS_12__value_typeIi10competitorEEPvEENS_21__map_node_destructorINS_9allocatorIS6_EEEEED1B8ue170006Ev, symObjAddr: 0x1308C, symBinAddr: 0x100014B9C, symSize: 0x2C }
  - { offsetInCU: 0x22D44, offset: 0x2EABF, size: 0x8, addend: 0x0, symName: __ZNSt3__121__map_node_destructorINS_9allocatorINS_11__tree_nodeINS_12__value_typeIi10competitorEEPvEEEEEC1B8ue170006ERS8_, symObjAddr: 0x130B8, symBinAddr: 0x100014BC8, symSize: 0x34 }
  - { offsetInCU: 0x22D80, offset: 0x2EAFB, size: 0x8, addend: 0x0, symName: __ZNSt3__110unique_ptrINS_11__tree_nodeINS_12__value_typeIi10competitorEEPvEENS_21__map_node_destructorINS_9allocatorIS6_EEEEEC1B8ue170006ILb1EvEEPS6_NS_16__dependent_typeINS_27__unique_ptr_deleter_sfinaeISA_EEXT_EE20__good_rval_ref_typeE, symObjAddr: 0x130EC, symBinAddr: 0x100014BFC, symSize: 0x3C }
  - { offsetInCU: 0x22DD0, offset: 0x2EB4B, size: 0x8, addend: 0x0, symName: __ZNSt3__116allocator_traitsINS_9allocatorINS_11__tree_nodeINS_12__value_typeIi10competitorEEPvEEEEE9constructB8ue170006IKiJRSB_EvEEvRS8_PT_DpOT0_, symObjAddr: 0x13128, symBinAddr: 0x100014C38, symSize: 0x34 }
  - { offsetInCU: 0x22E27, offset: 0x2EBA2, size: 0x8, addend: 0x0, symName: __ZNKSt3__110unique_ptrINS_11__tree_nodeINS_12__value_typeIi10competitorEEPvEENS_21__map_node_destructorINS_9allocatorIS6_EEEEEptB8ue170006Ev, symObjAddr: 0x1315C, symBinAddr: 0x100014C6C, symSize: 0x28 }
  - { offsetInCU: 0x22E4B, offset: 0x2EBC6, size: 0x8, addend: 0x0, symName: __ZNSt3__110unique_ptrINS_11__tree_nodeINS_12__value_typeIi10competitorEEPvEENS_21__map_node_destructorINS_9allocatorIS6_EEEEE11get_deleterB8ue170006Ev, symObjAddr: 0x13184, symBinAddr: 0x100014C94, symSize: 0x24 }
  - { offsetInCU: 0x22E74, offset: 0x2EBEF, size: 0x8, addend: 0x0, symName: __ZNSt3__116allocator_traitsINS_9allocatorINS_11__tree_nodeINS_12__value_typeIi10competitorEEPvEEEEE9constructB8ue170006IS4_JEvEEvRS8_PT_DpOT0_, symObjAddr: 0x131A8, symBinAddr: 0x100014CB8, symSize: 0x2C }
  - { offsetInCU: 0x22EB7, offset: 0x2EC32, size: 0x8, addend: 0x0, symName: __ZNSt3__121__map_node_destructorINS_9allocatorINS_11__tree_nodeINS_12__value_typeIi10competitorEEPvEEEEEC2B8ue170006ERS8_, symObjAddr: 0x131D4, symBinAddr: 0x100014CE4, symSize: 0x28 }
  - { offsetInCU: 0x22EEE, offset: 0x2EC69, size: 0x8, addend: 0x0, symName: __ZNSt3__110unique_ptrINS_11__tree_nodeINS_12__value_typeIi10competitorEEPvEENS_21__map_node_destructorINS_9allocatorIS6_EEEEEC2B8ue170006ILb1EvEEPS6_NS_16__dependent_typeINS_27__unique_ptr_deleter_sfinaeISA_EEXT_EE20__good_rval_ref_typeE, symObjAddr: 0x131FC, symBinAddr: 0x100014D0C, symSize: 0x5C }
  - { offsetInCU: 0x22F3E, offset: 0x2ECB9, size: 0x8, addend: 0x0, symName: __ZNSt3__117__compressed_pairIPNS_11__tree_nodeINS_12__value_typeIi10competitorEEPvEENS_21__map_node_destructorINS_9allocatorIS6_EEEEEC1B8ue170006IRS7_SB_EEOT_OT0_, symObjAddr: 0x13258, symBinAddr: 0x100014D68, symSize: 0x3C }
  - { offsetInCU: 0x22F94, offset: 0x2ED0F, size: 0x8, addend: 0x0, symName: __ZNSt3__117__compressed_pairIPNS_11__tree_nodeINS_12__value_typeIi10competitorEEPvEENS_21__map_node_destructorINS_9allocatorIS6_EEEEEC2B8ue170006IRS7_SB_EEOT_OT0_, symObjAddr: 0x13294, symBinAddr: 0x100014DA4, symSize: 0x48 }
  - { offsetInCU: 0x22FEA, offset: 0x2ED65, size: 0x8, addend: 0x0, symName: __ZNSt3__122__compressed_pair_elemINS_21__map_node_destructorINS_9allocatorINS_11__tree_nodeINS_12__value_typeIi10competitorEEPvEEEEEELi1ELb0EEC2B8ue170006ISA_vEEOT_, symObjAddr: 0x132DC, symBinAddr: 0x100014DEC, symSize: 0x24 }
  - { offsetInCU: 0x2302B, offset: 0x2EDA6, size: 0x8, addend: 0x0, symName: __ZNSt3__19allocatorINS_11__tree_nodeINS_12__value_typeIi10competitorEEPvEEE9constructB8ue170006IKiJRS9_EEEvPT_DpOT0_, symObjAddr: 0x13300, symBinAddr: 0x100014E10, symSize: 0x28 }
  - { offsetInCU: 0x2307F, offset: 0x2EDFA, size: 0x8, addend: 0x0, symName: __ZNKSt3__117__compressed_pairIPNS_11__tree_nodeINS_12__value_typeIi10competitorEEPvEENS_21__map_node_destructorINS_9allocatorIS6_EEEEE5firstB8ue170006Ev, symObjAddr: 0x13328, symBinAddr: 0x100014E38, symSize: 0x24 }
  - { offsetInCU: 0x230A3, offset: 0x2EE1E, size: 0x8, addend: 0x0, symName: __ZNSt3__117__compressed_pairIPNS_11__tree_nodeINS_12__value_typeIi10competitorEEPvEENS_21__map_node_destructorINS_9allocatorIS6_EEEEE6secondB8ue170006Ev, symObjAddr: 0x1334C, symBinAddr: 0x100014E5C, symSize: 0x28 }
  - { offsetInCU: 0x230C7, offset: 0x2EE42, size: 0x8, addend: 0x0, symName: __ZNSt3__122__compressed_pair_elemINS_21__map_node_destructorINS_9allocatorINS_11__tree_nodeINS_12__value_typeIi10competitorEEPvEEEEEELi1ELb0EE5__getB8ue170006Ev, symObjAddr: 0x13374, symBinAddr: 0x100014E84, symSize: 0x14 }
  - { offsetInCU: 0x230EB, offset: 0x2EE66, size: 0x8, addend: 0x0, symName: __ZNSt3__19allocatorINS_11__tree_nodeINS_12__value_typeIi10competitorEEPvEEE9constructB8ue170006IS3_JEEEvPT_DpOT0_, symObjAddr: 0x13388, symBinAddr: 0x100014E98, symSize: 0x3C }
  - { offsetInCU: 0x2312C, offset: 0x2EEA7, size: 0x8, addend: 0x0, symName: __ZNSt3__117__compressed_pairIPNS_11__tree_nodeINS_12__value_typeIi10competitorEEPvEENS_21__map_node_destructorINS_9allocatorIS6_EEEEE5firstB8ue170006Ev, symObjAddr: 0x133C4, symBinAddr: 0x100014ED4, symSize: 0x24 }
  - { offsetInCU: 0x23150, offset: 0x2EECB, size: 0x8, addend: 0x0, symName: __ZNSt3__110unique_ptrINS_11__tree_nodeINS_12__value_typeIi10competitorEEPvEENS_21__map_node_destructorINS_9allocatorIS6_EEEEED2B8ue170006Ev, symObjAddr: 0x133E8, symBinAddr: 0x100014EF8, symSize: 0x30 }
  - { offsetInCU: 0x23178, offset: 0x2EEF3, size: 0x8, addend: 0x0, symName: __ZNSt3__110unique_ptrINS_11__tree_nodeINS_12__value_typeIi10competitorEEPvEENS_21__map_node_destructorINS_9allocatorIS6_EEEEE5resetB8ue170006EPS6_, symObjAddr: 0x13418, symBinAddr: 0x100014F28, symSize: 0x78 }
  - { offsetInCU: 0x231BA, offset: 0x2EF35, size: 0x8, addend: 0x0, symName: __ZNSt3__121__map_node_destructorINS_9allocatorINS_11__tree_nodeINS_12__value_typeIi10competitorEEPvEEEEEclB8ue170006EPS7_, symObjAddr: 0x13490, symBinAddr: 0x100014FA0, symSize: 0xE4 }
  - { offsetInCU: 0x231ED, offset: 0x2EF68, size: 0x8, addend: 0x0, symName: __ZNSt3__116allocator_traitsINS_9allocatorINS_11__tree_nodeINS_12__value_typeIi10competitorEEPvEEEEE7destroyB8ue170006IS4_vvEEvRS8_PT_, symObjAddr: 0x13574, symBinAddr: 0x100015084, symSize: 0x28 }
  - { offsetInCU: 0x23229, offset: 0x2EFA4, size: 0x8, addend: 0x0, symName: __ZNSt3__116allocator_traitsINS_9allocatorINS_11__tree_nodeINS_12__value_typeIi10competitorEEPvEEEEE7destroyB8ue170006IKivvEEvRS8_PT_, symObjAddr: 0x1359C, symBinAddr: 0x1000150AC, symSize: 0x14 }
  - { offsetInCU: 0x23265, offset: 0x2EFE0, size: 0x8, addend: 0x0, symName: __ZNSt3__14pairIdiEC1B8ue170006ERKdRKi, symObjAddr: 0x135B0, symBinAddr: 0x1000150C0, symSize: 0x3C }
  - { offsetInCU: 0x232A9, offset: 0x2F024, size: 0x8, addend: 0x0, symName: __ZNSt3__14pairIdiEC2B8ue170006ERKdRKi, symObjAddr: 0x135EC, symBinAddr: 0x1000150FC, symSize: 0x34 }
  - { offsetInCU: 0x232ED, offset: 0x2F068, size: 0x8, addend: 0x0, symName: __ZNSt3__16__treeINS_12__value_typeIdiEENS_19__map_value_compareIdS2_NS_7greaterIdEELb1EEENS_9allocatorIS2_EEE14__insert_multiB8ue170006IRKNS_4pairIKdiEEEENS_15__tree_iteratorIS2_PNS_11__tree_nodeIS2_PvEElEEOT_, symObjAddr: 0x13620, symBinAddr: 0x100015130, symSize: 0x34 }
  - { offsetInCU: 0x23329, offset: 0x2F0A4, size: 0x8, addend: 0x0, symName: __ZNSt3__114__map_iteratorINS_15__tree_iteratorINS_12__value_typeIdiEEPNS_11__tree_nodeIS3_PvEElEEEC1B8ue170006ES8_, symObjAddr: 0x13654, symBinAddr: 0x100015164, symSize: 0x34 }
  - { offsetInCU: 0x23360, offset: 0x2F0DB, size: 0x8, addend: 0x0, symName: __ZNSt3__16__treeINS_12__value_typeIdiEENS_19__map_value_compareIdS2_NS_7greaterIdEELb1EEENS_9allocatorIS2_EEE15__emplace_multiIJRKNS_4pairIKdiEEEEENS_15__tree_iteratorIS2_PNS_11__tree_nodeIS2_PvEElEEDpOT_, symObjAddr: 0x13688, symBinAddr: 0x100015198, symSize: 0xE8 }
  - { offsetInCU: 0x233CD, offset: 0x2F148, size: 0x8, addend: 0x0, symName: __ZNSt3__16__treeINS_12__value_typeIdiEENS_19__map_value_compareIdS2_NS_7greaterIdEELb1EEENS_9allocatorIS2_EEE16__construct_nodeIJRKNS_4pairIKdiEEEEENS_10unique_ptrINS_11__tree_nodeIS2_PvEENS_22__tree_node_destructorINS7_ISJ_EEEEEEDpOT_, symObjAddr: 0x13770, symBinAddr: 0x100015280, symSize: 0x118 }
  - { offsetInCU: 0x2342C, offset: 0x2F1A7, size: 0x8, addend: 0x0, symName: __ZNSt3__16__treeINS_12__value_typeIdiEENS_19__map_value_compareIdS2_NS_7greaterIdEELb1EEENS_9allocatorIS2_EEE16__find_leaf_highERPNS_15__tree_end_nodeIPNS_16__tree_node_baseIPvEEEERKd, symObjAddr: 0x13888, symBinAddr: 0x100015398, symSize: 0x124 }
  - { offsetInCU: 0x2347F, offset: 0x2F1FA, size: 0x8, addend: 0x0, symName: __ZNSt3__122__tree_key_value_typesINS_12__value_typeIdiEEE9__get_keyB8ue170006ERKS2_, symObjAddr: 0x139AC, symBinAddr: 0x1000154BC, symSize: 0x24 }
  - { offsetInCU: 0x234A2, offset: 0x2F21D, size: 0x8, addend: 0x0, symName: __ZNKSt3__110unique_ptrINS_11__tree_nodeINS_12__value_typeIdiEEPvEENS_22__tree_node_destructorINS_9allocatorIS5_EEEEEptB8ue170006Ev, symObjAddr: 0x139D0, symBinAddr: 0x1000154E0, symSize: 0x28 }
  - { offsetInCU: 0x234C6, offset: 0x2F241, size: 0x8, addend: 0x0, symName: __ZNSt3__16__treeINS_12__value_typeIdiEENS_19__map_value_compareIdS2_NS_7greaterIdEELb1EEENS_9allocatorIS2_EEE16__insert_node_atEPNS_15__tree_end_nodeIPNS_16__tree_node_baseIPvEEEERSE_SE_, symObjAddr: 0x139F8, symBinAddr: 0x100015508, symSize: 0xCC }
  - { offsetInCU: 0x23519, offset: 0x2F294, size: 0x8, addend: 0x0, symName: __ZNKSt3__110unique_ptrINS_11__tree_nodeINS_12__value_typeIdiEEPvEENS_22__tree_node_destructorINS_9allocatorIS5_EEEEE3getB8ue170006Ev, symObjAddr: 0x13AC4, symBinAddr: 0x1000155D4, symSize: 0x28 }
  - { offsetInCU: 0x2353D, offset: 0x2F2B8, size: 0x8, addend: 0x0, symName: __ZNSt3__110unique_ptrINS_11__tree_nodeINS_12__value_typeIdiEEPvEENS_22__tree_node_destructorINS_9allocatorIS5_EEEEE7releaseB8ue170006Ev, symObjAddr: 0x13AEC, symBinAddr: 0x1000155FC, symSize: 0x44 }
  - { offsetInCU: 0x23570, offset: 0x2F2EB, size: 0x8, addend: 0x0, symName: __ZNSt3__115__tree_iteratorINS_12__value_typeIdiEEPNS_11__tree_nodeIS2_PvEElEC1B8ue170006ES6_, symObjAddr: 0x13B30, symBinAddr: 0x100015640, symSize: 0x34 }
  - { offsetInCU: 0x235A7, offset: 0x2F322, size: 0x8, addend: 0x0, symName: __ZNSt3__110unique_ptrINS_11__tree_nodeINS_12__value_typeIdiEEPvEENS_22__tree_node_destructorINS_9allocatorIS5_EEEEED1B8ue170006Ev, symObjAddr: 0x13B64, symBinAddr: 0x100015674, symSize: 0x2C }
  - { offsetInCU: 0x235CF, offset: 0x2F34A, size: 0x8, addend: 0x0, symName: __ZNSt3__116allocator_traitsINS_9allocatorINS_11__tree_nodeINS_12__value_typeIdiEEPvEEEEE8allocateB8ue170006ERS7_m, symObjAddr: 0x13B90, symBinAddr: 0x1000156A0, symSize: 0x2C }
  - { offsetInCU: 0x23601, offset: 0x2F37C, size: 0x8, addend: 0x0, symName: __ZNSt3__122__tree_node_destructorINS_9allocatorINS_11__tree_nodeINS_12__value_typeIdiEEPvEEEEEC1B8ue170006ERS7_b, symObjAddr: 0x13BBC, symBinAddr: 0x1000156CC, symSize: 0x48 }
  - { offsetInCU: 0x2364C, offset: 0x2F3C7, size: 0x8, addend: 0x0, symName: __ZNSt3__110unique_ptrINS_11__tree_nodeINS_12__value_typeIdiEEPvEENS_22__tree_node_destructorINS_9allocatorIS5_EEEEEC1B8ue170006ILb1EvEEPS5_NS_16__dependent_typeINS_27__unique_ptr_deleter_sfinaeIS9_EEXT_EE20__good_rval_ref_typeE, symObjAddr: 0x13C04, symBinAddr: 0x100015714, symSize: 0x3C }
  - { offsetInCU: 0x2369C, offset: 0x2F417, size: 0x8, addend: 0x0, symName: __ZNSt3__116allocator_traitsINS_9allocatorINS_11__tree_nodeINS_12__value_typeIdiEEPvEEEEE9constructB8ue170006INS_4pairIKdiEEJRKSC_EvEEvRS7_PT_DpOT0_, symObjAddr: 0x13C40, symBinAddr: 0x100015750, symSize: 0x34 }
  - { offsetInCU: 0x236F3, offset: 0x2F46E, size: 0x8, addend: 0x0, symName: __ZNSt3__110unique_ptrINS_11__tree_nodeINS_12__value_typeIdiEEPvEENS_22__tree_node_destructorINS_9allocatorIS5_EEEEE11get_deleterB8ue170006Ev, symObjAddr: 0x13C74, symBinAddr: 0x100015784, symSize: 0x24 }
  - { offsetInCU: 0x23717, offset: 0x2F492, size: 0x8, addend: 0x0, symName: __ZNSt3__19allocatorINS_11__tree_nodeINS_12__value_typeIdiEEPvEEE8allocateB8ue170006Em, symObjAddr: 0x13C98, symBinAddr: 0x1000157A8, symSize: 0x8C }
  - { offsetInCU: 0x23753, offset: 0x2F4CE, size: 0x8, addend: 0x0, symName: __ZNSt3__116allocator_traitsINS_9allocatorINS_11__tree_nodeINS_12__value_typeIdiEEPvEEEEE8max_sizeB8ue170006IS7_vEEmRKS7_, symObjAddr: 0x13D24, symBinAddr: 0x100015834, symSize: 0x24 }
  - { offsetInCU: 0x23781, offset: 0x2F4FC, size: 0x8, addend: 0x0, symName: __ZNKSt3__19allocatorINS_11__tree_nodeINS_12__value_typeIdiEEPvEEE8max_sizeB8ue170006Ev, symObjAddr: 0x13D48, symBinAddr: 0x100015858, symSize: 0x18 }
  - { offsetInCU: 0x237A5, offset: 0x2F520, size: 0x8, addend: 0x0, symName: __ZNSt3__122__tree_node_destructorINS_9allocatorINS_11__tree_nodeINS_12__value_typeIdiEEPvEEEEEC2B8ue170006ERS7_b, symObjAddr: 0x13D60, symBinAddr: 0x100015870, symSize: 0x38 }
  - { offsetInCU: 0x237EB, offset: 0x2F566, size: 0x8, addend: 0x0, symName: __ZNSt3__110unique_ptrINS_11__tree_nodeINS_12__value_typeIdiEEPvEENS_22__tree_node_destructorINS_9allocatorIS5_EEEEEC2B8ue170006ILb1EvEEPS5_NS_16__dependent_typeINS_27__unique_ptr_deleter_sfinaeIS9_EEXT_EE20__good_rval_ref_typeE, symObjAddr: 0x13D98, symBinAddr: 0x1000158A8, symSize: 0x5C }
  - { offsetInCU: 0x2383B, offset: 0x2F5B6, size: 0x8, addend: 0x0, symName: __ZNSt3__117__compressed_pairIPNS_11__tree_nodeINS_12__value_typeIdiEEPvEENS_22__tree_node_destructorINS_9allocatorIS5_EEEEEC1B8ue170006IRS6_SA_EEOT_OT0_, symObjAddr: 0x13DF4, symBinAddr: 0x100015904, symSize: 0x3C }
  - { offsetInCU: 0x23891, offset: 0x2F60C, size: 0x8, addend: 0x0, symName: __ZNSt3__117__compressed_pairIPNS_11__tree_nodeINS_12__value_typeIdiEEPvEENS_22__tree_node_destructorINS_9allocatorIS5_EEEEEC2B8ue170006IRS6_SA_EEOT_OT0_, symObjAddr: 0x13E30, symBinAddr: 0x100015940, symSize: 0x48 }
  - { offsetInCU: 0x238E7, offset: 0x2F662, size: 0x8, addend: 0x0, symName: __ZNSt3__122__compressed_pair_elemIPNS_11__tree_nodeINS_12__value_typeIdiEEPvEELi0ELb0EEC2B8ue170006IRS6_vEEOT_, symObjAddr: 0x13E78, symBinAddr: 0x100015988, symSize: 0x24 }
  - { offsetInCU: 0x23928, offset: 0x2F6A3, size: 0x8, addend: 0x0, symName: __ZNSt3__122__compressed_pair_elemINS_22__tree_node_destructorINS_9allocatorINS_11__tree_nodeINS_12__value_typeIdiEEPvEEEEEELi1ELb0EEC2B8ue170006IS9_vEEOT_, symObjAddr: 0x13E9C, symBinAddr: 0x1000159AC, symSize: 0x24 }
  - { offsetInCU: 0x23969, offset: 0x2F6E4, size: 0x8, addend: 0x0, symName: __ZNSt3__19allocatorINS_11__tree_nodeINS_12__value_typeIdiEEPvEEE9constructB8ue170006INS_4pairIKdiEEJRKSA_EEEvPT_DpOT0_, symObjAddr: 0x13EC0, symBinAddr: 0x1000159D0, symSize: 0x28 }
  - { offsetInCU: 0x239BD, offset: 0x2F738, size: 0x8, addend: 0x0, symName: __ZNSt3__117__compressed_pairIPNS_11__tree_nodeINS_12__value_typeIdiEEPvEENS_22__tree_node_destructorINS_9allocatorIS5_EEEEE6secondB8ue170006Ev, symObjAddr: 0x13EE8, symBinAddr: 0x1000159F8, symSize: 0x28 }
  - { offsetInCU: 0x239E1, offset: 0x2F75C, size: 0x8, addend: 0x0, symName: __ZNSt3__122__compressed_pair_elemINS_22__tree_node_destructorINS_9allocatorINS_11__tree_nodeINS_12__value_typeIdiEEPvEEEEEELi1ELb0EE5__getB8ue170006Ev, symObjAddr: 0x13F10, symBinAddr: 0x100015A20, symSize: 0x14 }
  - { offsetInCU: 0x23A05, offset: 0x2F780, size: 0x8, addend: 0x0, symName: __ZNSt3__16__treeINS_12__value_typeIdiEENS_19__map_value_compareIdS2_NS_7greaterIdEELb1EEENS_9allocatorIS2_EEE10value_compB8ue170006Ev, symObjAddr: 0x13F24, symBinAddr: 0x100015A34, symSize: 0x28 }
  - { offsetInCU: 0x23A29, offset: 0x2F7A4, size: 0x8, addend: 0x0, symName: __ZNKSt3__119__map_value_compareIdNS_12__value_typeIdiEENS_7greaterIdEELb1EEclB8ue170006ERKdRKS2_, symObjAddr: 0x13F4C, symBinAddr: 0x100015A5C, symSize: 0x50 }
  - { offsetInCU: 0x23A6B, offset: 0x2F7E6, size: 0x8, addend: 0x0, symName: __ZNSt3__117__compressed_pairImNS_19__map_value_compareIdNS_12__value_typeIdiEENS_7greaterIdEELb1EEEE6secondB8ue170006Ev, symObjAddr: 0x13F9C, symBinAddr: 0x100015AAC, symSize: 0x24 }
  - { offsetInCU: 0x23A8F, offset: 0x2F80A, size: 0x8, addend: 0x0, symName: __ZNSt3__122__compressed_pair_elemINS_19__map_value_compareIdNS_12__value_typeIdiEENS_7greaterIdEELb1EEELi1ELb1EE5__getB8ue170006Ev, symObjAddr: 0x13FC0, symBinAddr: 0x100015AD0, symSize: 0x14 }
  - { offsetInCU: 0x23AB3, offset: 0x2F82E, size: 0x8, addend: 0x0, symName: __ZNKSt3__112__value_typeIdiE11__get_valueB8ue170006Ev, symObjAddr: 0x13FD4, symBinAddr: 0x100015AE4, symSize: 0x14 }
  - { offsetInCU: 0x23AD7, offset: 0x2F852, size: 0x8, addend: 0x0, symName: __ZNKSt3__117__compressed_pairIPNS_11__tree_nodeINS_12__value_typeIdiEEPvEENS_22__tree_node_destructorINS_9allocatorIS5_EEEEE5firstB8ue170006Ev, symObjAddr: 0x13FE8, symBinAddr: 0x100015AF8, symSize: 0x24 }
  - { offsetInCU: 0x23AFB, offset: 0x2F876, size: 0x8, addend: 0x0, symName: __ZNKSt3__122__compressed_pair_elemIPNS_11__tree_nodeINS_12__value_typeIdiEEPvEELi0ELb0EE5__getB8ue170006Ev, symObjAddr: 0x1400C, symBinAddr: 0x100015B1C, symSize: 0x14 }
  - { offsetInCU: 0x23B1F, offset: 0x2F89A, size: 0x8, addend: 0x0, symName: __ZNSt3__16__treeINS_12__value_typeIdiEENS_19__map_value_compareIdS2_NS_7greaterIdEELb1EEENS_9allocatorIS2_EEE4sizeB8ue170006Ev, symObjAddr: 0x14020, symBinAddr: 0x100015B30, symSize: 0x28 }
  - { offsetInCU: 0x23B43, offset: 0x2F8BE, size: 0x8, addend: 0x0, symName: __ZNSt3__117__compressed_pairImNS_19__map_value_compareIdNS_12__value_typeIdiEENS_7greaterIdEELb1EEEE5firstB8ue170006Ev, symObjAddr: 0x14048, symBinAddr: 0x100015B58, symSize: 0x24 }
  - { offsetInCU: 0x23B67, offset: 0x2F8E2, size: 0x8, addend: 0x0, symName: __ZNSt3__117__compressed_pairIPNS_11__tree_nodeINS_12__value_typeIdiEEPvEENS_22__tree_node_destructorINS_9allocatorIS5_EEEEE5firstB8ue170006Ev, symObjAddr: 0x1406C, symBinAddr: 0x100015B7C, symSize: 0x24 }
  - { offsetInCU: 0x23B8B, offset: 0x2F906, size: 0x8, addend: 0x0, symName: __ZNSt3__122__compressed_pair_elemIPNS_11__tree_nodeINS_12__value_typeIdiEEPvEELi0ELb0EE5__getB8ue170006Ev, symObjAddr: 0x14090, symBinAddr: 0x100015BA0, symSize: 0x14 }
  - { offsetInCU: 0x23BAF, offset: 0x2F92A, size: 0x8, addend: 0x0, symName: __ZNSt3__115__tree_iteratorINS_12__value_typeIdiEEPNS_11__tree_nodeIS2_PvEElEC2B8ue170006ES6_, symObjAddr: 0x140A4, symBinAddr: 0x100015BB4, symSize: 0x20 }
  - { offsetInCU: 0x23BE6, offset: 0x2F961, size: 0x8, addend: 0x0, symName: __ZNSt3__110unique_ptrINS_11__tree_nodeINS_12__value_typeIdiEEPvEENS_22__tree_node_destructorINS_9allocatorIS5_EEEEED2B8ue170006Ev, symObjAddr: 0x140C4, symBinAddr: 0x100015BD4, symSize: 0x30 }
  - { offsetInCU: 0x23C0E, offset: 0x2F989, size: 0x8, addend: 0x0, symName: __ZNSt3__110unique_ptrINS_11__tree_nodeINS_12__value_typeIdiEEPvEENS_22__tree_node_destructorINS_9allocatorIS5_EEEEE5resetB8ue170006EPS5_, symObjAddr: 0x140F4, symBinAddr: 0x100015C04, symSize: 0x78 }
  - { offsetInCU: 0x23C50, offset: 0x2F9CB, size: 0x8, addend: 0x0, symName: __ZNSt3__122__tree_node_destructorINS_9allocatorINS_11__tree_nodeINS_12__value_typeIdiEEPvEEEEEclB8ue170006EPS6_, symObjAddr: 0x1416C, symBinAddr: 0x100015C7C, symSize: 0xA8 }
  - { offsetInCU: 0x23C83, offset: 0x2F9FE, size: 0x8, addend: 0x0, symName: __ZNSt3__114__map_iteratorINS_15__tree_iteratorINS_12__value_typeIdiEEPNS_11__tree_nodeIS3_PvEElEEEC2B8ue170006ES8_, symObjAddr: 0x14214, symBinAddr: 0x100015D24, symSize: 0x20 }
  - { offsetInCU: 0x23CBA, offset: 0x2FA35, size: 0x8, addend: 0x0, symName: __ZNSt3__14pairIKdiEC2B8ue170006IdiEERKNS0_IT_T0_EE, symObjAddr: 0x14234, symBinAddr: 0x100015D44, symSize: 0x30 }
  - { offsetInCU: 0x23D02, offset: 0x2FA7D, size: 0x8, addend: 0x0, symName: __ZNSt3__16__treeINS_12__value_typeIdiEENS_19__map_value_compareIdS2_NS_7greaterIdEELb1EEENS_9allocatorIS2_EEE5beginB8ue170006Ev, symObjAddr: 0x14264, symBinAddr: 0x100015D74, symSize: 0x34 }
  - { offsetInCU: 0x23D26, offset: 0x2FAA1, size: 0x8, addend: 0x0, symName: __ZNSt3__115__tree_iteratorINS_12__value_typeIdiEEPNS_11__tree_nodeIS2_PvEElEC1B8ue170006EPNS_15__tree_end_nodeIPNS_16__tree_node_baseIS4_EEEE, symObjAddr: 0x14298, symBinAddr: 0x100015DA8, symSize: 0x34 }
  - { offsetInCU: 0x23D5D, offset: 0x2FAD8, size: 0x8, addend: 0x0, symName: __ZNSt3__115__tree_iteratorINS_12__value_typeIdiEEPNS_11__tree_nodeIS2_PvEElEC2B8ue170006EPNS_15__tree_end_nodeIPNS_16__tree_node_baseIS4_EEEE, symObjAddr: 0x142CC, symBinAddr: 0x100015DDC, symSize: 0x20 }
  - { offsetInCU: 0x23D94, offset: 0x2FB0F, size: 0x8, addend: 0x0, symName: __ZNSt3__16__treeINS_12__value_typeIdiEENS_19__map_value_compareIdS2_NS_7greaterIdEELb1EEENS_9allocatorIS2_EEE3endB8ue170006Ev, symObjAddr: 0x142EC, symBinAddr: 0x100015DFC, symSize: 0x34 }
  - { offsetInCU: 0x23DB8, offset: 0x2FB33, size: 0x8, addend: 0x0, symName: __ZNSt3__114__map_iteratorINS_15__tree_iteratorINS_12__value_typeIdiEEPNS_11__tree_nodeIS3_PvEElEEEppB8ue170006Ev, symObjAddr: 0x14384, symBinAddr: 0x100015E94, symSize: 0x2C }
  - { offsetInCU: 0x23DDC, offset: 0x2FB57, size: 0x8, addend: 0x0, symName: __ZNSt3__115__tree_iteratorINS_12__value_typeIdiEEPNS_11__tree_nodeIS2_PvEElEppB8ue170006Ev, symObjAddr: 0x143B0, symBinAddr: 0x100015EC0, symSize: 0x38 }
  - { offsetInCU: 0x23E00, offset: 0x2FB7B, size: 0x8, addend: 0x0, symName: __ZNSt3__114pointer_traitsIPNS_4pairIKdiEEE10pointer_toB8ue170006ERS3_, symObjAddr: 0x144A8, symBinAddr: 0x100015FB8, symSize: 0x14 }
  - { offsetInCU: 0x23E22, offset: 0x2FB9D, size: 0x8, addend: 0x0, symName: __ZNKSt3__115__tree_iteratorINS_12__value_typeIdiEEPNS_11__tree_nodeIS2_PvEElEptB8ue170006Ev, symObjAddr: 0x144BC, symBinAddr: 0x100015FCC, symSize: 0x2C }
  - { offsetInCU: 0x23E46, offset: 0x2FBC1, size: 0x8, addend: 0x0, symName: __ZNSt3__114pointer_traitsIPNS_12__value_typeIdiEEE10pointer_toB8ue170006ERS2_, symObjAddr: 0x144E8, symBinAddr: 0x100015FF8, symSize: 0x14 }
  - { offsetInCU: 0x23E68, offset: 0x2FBE3, size: 0x8, addend: 0x0, symName: __ZNKSt3__115__tree_iteratorINS_12__value_typeIdiEEPNS_11__tree_nodeIS2_PvEElE8__get_npB8ue170006Ev, symObjAddr: 0x144FC, symBinAddr: 0x10001600C, symSize: 0x18 }
  - { offsetInCU: 0x23E8C, offset: 0x2FC07, size: 0x8, addend: 0x0, symName: __ZNSt3__16__treeINS_12__value_typeIdiEENS_19__map_value_compareIdS2_NS_7greaterIdEELb1EEENS_9allocatorIS2_EEE5clearEv, symObjAddr: 0x14514, symBinAddr: 0x100016024, symSize: 0x74 }
  - { offsetInCU: 0x23EB2, offset: 0x2FC2D, size: 0x8, addend: 0x0, symName: __ZNSt3__19basic_iosIcNS_11char_traitsIcEEEC2B8ue170006Ev, symObjAddr: 0x14588, symBinAddr: 0x100016098, symSize: 0x44 }
  - { offsetInCU: 0x23EDA, offset: 0x2FC55, size: 0x8, addend: 0x0, symName: __ZNSt3__113basic_ostreamIcNS_11char_traitsIcEEEC2B8ue170006EPNS_15basic_streambufIcS2_EE, symObjAddr: 0x145CC, symBinAddr: 0x1000160DC, symSize: 0x60 }
  - { offsetInCU: 0x23F1C, offset: 0x2FC97, size: 0x8, addend: 0x0, symName: __ZNSt3__18ios_baseC2B8ue170006Ev, symObjAddr: 0x1462C, symBinAddr: 0x10001613C, symSize: 0x24 }
  - { offsetInCU: 0x23F44, offset: 0x2FCBF, size: 0x8, addend: 0x0, symName: __ZNSt3__19basic_iosIcNS_11char_traitsIcEEE4initB8ue170006EPNS_15basic_streambufIcS2_EE, symObjAddr: 0x14650, symBinAddr: 0x100016160, symSize: 0x44 }
  - { offsetInCU: 0x23F79, offset: 0x2FCF4, size: 0x8, addend: 0x0, symName: __ZNSt3__113basic_istreamIcNS_11char_traitsIcEEEC2B8ue170006EPNS_15basic_streambufIcS2_EE, symObjAddr: 0x14694, symBinAddr: 0x1000161A4, symSize: 0x64 }
  - { offsetInCU: 0x23FBB, offset: 0x2FD36, size: 0x8, addend: 0x0, symName: __ZNKSt3__113basic_filebufIcNS_11char_traitsIcEEE7is_openEv, symObjAddr: 0x146F8, symBinAddr: 0x100016208, symSize: 0x24 }
  - { offsetInCU: 0x23FFF, offset: 0x2FD7A, size: 0x8, addend: 0x0, symName: __ZNKSt3__113basic_istreamIcNS_11char_traitsIcEEE6sentrycvbB8ue170006Ev, symObjAddr: 0x1471C, symBinAddr: 0x10001622C, symSize: 0x1C }
  - { offsetInCU: 0x24023, offset: 0x2FD9E, size: 0x8, addend: 0x0, symName: __ZNSt3__115basic_streambufIcNS_11char_traitsIcEEE6sbumpcB8ue170006Ev, symObjAddr: 0x14738, symBinAddr: 0x100016248, symSize: 0x78 }
  - { offsetInCU: 0x24047, offset: 0x2FDC2, size: 0x8, addend: 0x0, symName: __ZNSt3__111char_traitsIcE12to_char_typeB8ue170006Ei, symObjAddr: 0x147B0, symBinAddr: 0x1000162C0, symSize: 0x18 }
  - { offsetInCU: 0x24069, offset: 0x2FDE4, size: 0x8, addend: 0x0, symName: __ZNSt3__18ios_base18__setstate_nothrowB8ue170006Ej, symObjAddr: 0x147C8, symBinAddr: 0x1000162D8, symSize: 0x64 }
  - { offsetInCU: 0x2409C, offset: 0x2FE17, size: 0x8, addend: 0x0, symName: __ZNKSt3__19basic_iosIcNS_11char_traitsIcEEE10exceptionsB8ue170006Ev, symObjAddr: 0x1482C, symBinAddr: 0x10001633C, symSize: 0x24 }
  - { offsetInCU: 0x240C0, offset: 0x2FE3B, size: 0x8, addend: 0x0, symName: __ZNSt3__111char_traitsIcE11to_int_typeB8ue170006Ec, symObjAddr: 0x14850, symBinAddr: 0x100016360, symSize: 0x14 }
  - { offsetInCU: 0x240E3, offset: 0x2FE5E, size: 0x8, addend: 0x0, symName: __ZNKSt3__18ios_base10exceptionsB8ue170006Ev, symObjAddr: 0x14864, symBinAddr: 0x100016374, symSize: 0x18 }
  - { offsetInCU: 0x24109, offset: 0x2FE84, size: 0x8, addend: 0x0, symName: __ZNKSt3__18ios_base3eofB8ue170006Ev, symObjAddr: 0x1487C, symBinAddr: 0x10001638C, symSize: 0x24 }
  - { offsetInCU: 0x2412F, offset: 0x2FEAA, size: 0x8, addend: 0x0, symName: __ZNSt3__112basic_stringIcNS_11char_traitsIcEENS_9allocatorIcEEE5clearB8ue170006Ev, symObjAddr: 0x14AD4, symBinAddr: 0x1000165E4, symSize: 0x78 }
  - { offsetInCU: 0x24155, offset: 0x2FED0, size: 0x8, addend: 0x0, symName: __ZNSt3__111char_traitsIcE2eqEcc, symObjAddr: 0x14B4C, symBinAddr: 0x10001665C, symSize: 0x28 }
  - { offsetInCU: 0x24185, offset: 0x2FF00, size: 0x8, addend: 0x0, symName: __ZNKSt3__112basic_stringIcNS_11char_traitsIcEENS_9allocatorIcEEE8max_sizeB8ue170006Ev, symObjAddr: 0x14B74, symBinAddr: 0x100016684, symSize: 0xAC }
  - { offsetInCU: 0x241D6, offset: 0x2FF51, size: 0x8, addend: 0x0, symName: __ZNSt3__111char_traitsIcE6assignB8ue170006ERcRKc, symObjAddr: 0x14C20, symBinAddr: 0x100016730, symSize: 0x24 }
  - { offsetInCU: 0x24206, offset: 0x2FF81, size: 0x8, addend: 0x0, symName: __ZNSt3__112basic_stringIcNS_11char_traitsIcEENS_9allocatorIcEEE16__set_short_sizeB8ue170006Em, symObjAddr: 0x14C44, symBinAddr: 0x100016754, symSize: 0x78 }
  - { offsetInCU: 0x24239, offset: 0x2FFB4, size: 0x8, addend: 0x0, symName: __ZNKSt3__112basic_stringIcNS_11char_traitsIcEENS_9allocatorIcEEE7__allocB8ue170006Ev, symObjAddr: 0x14CBC, symBinAddr: 0x1000167CC, symSize: 0x24 }
  - { offsetInCU: 0x2425D, offset: 0x2FFD8, size: 0x8, addend: 0x0, symName: __ZNKSt3__117__compressed_pairINS_12basic_stringIcNS_11char_traitsIcEENS_9allocatorIcEEE5__repES5_E6secondB8ue170006Ev, symObjAddr: 0x14CE0, symBinAddr: 0x1000167F0, symSize: 0x24 }
  - { offsetInCU: 0x24281, offset: 0x2FFFC, size: 0x8, addend: 0x0, symName: __ZNKSt3__122__compressed_pair_elemINS_9allocatorIcEELi1ELb1EE5__getB8ue170006Ev, symObjAddr: 0x14D04, symBinAddr: 0x100016814, symSize: 0x14 }
  - { offsetInCU: 0x242A5, offset: 0x30020, size: 0x8, addend: 0x0, symName: __ZNKSt3__19basic_iosIcNS_11char_traitsIcEEE4failB8ue170006Ev, symObjAddr: 0x14D18, symBinAddr: 0x100016828, symSize: 0x28 }
  - { offsetInCU: 0x242C9, offset: 0x30044, size: 0x8, addend: 0x0, symName: __ZNKSt3__18ios_base4failB8ue170006Ev, symObjAddr: 0x14D40, symBinAddr: 0x100016850, symSize: 0x28 }
  - { offsetInCU: 0x242EF, offset: 0x3006A, size: 0x8, addend: 0x0, symName: __ZNSt3__16vectorINS_12basic_stringIcNS_11char_traitsIcEENS_9allocatorIcEEEENS4_IS6_EEEC2B8ue170006Ev, symObjAddr: 0x14D68, symBinAddr: 0x100016878, symSize: 0x44 }
  - { offsetInCU: 0x24317, offset: 0x30092, size: 0x8, addend: 0x0, symName: __ZNSt3__117__compressed_pairIPNS_12basic_stringIcNS_11char_traitsIcEENS_9allocatorIcEEEENS4_IS6_EEEC1B8ue170006IDnNS_18__default_init_tagEEEOT_OT0_, symObjAddr: 0x14DAC, symBinAddr: 0x1000168BC, symSize: 0x3C }
  - { offsetInCU: 0x2436D, offset: 0x300E8, size: 0x8, addend: 0x0, symName: __ZNSt3__117__compressed_pairIPNS_12basic_stringIcNS_11char_traitsIcEENS_9allocatorIcEEEENS4_IS6_EEEC2B8ue170006IDnNS_18__default_init_tagEEEOT_OT0_, symObjAddr: 0x14DE8, symBinAddr: 0x1000168F8, symSize: 0x40 }
  - { offsetInCU: 0x243C3, offset: 0x3013E, size: 0x8, addend: 0x0, symName: __ZNSt3__122__compressed_pair_elemIPNS_12basic_stringIcNS_11char_traitsIcEENS_9allocatorIcEEEELi0ELb0EEC2B8ue170006IDnvEEOT_, symObjAddr: 0x14E28, symBinAddr: 0x100016938, symSize: 0x1C }
  - { offsetInCU: 0x24404, offset: 0x3017F, size: 0x8, addend: 0x0, symName: __ZNSt3__122__compressed_pair_elemINS_9allocatorINS_12basic_stringIcNS_11char_traitsIcEENS1_IcEEEEEELi1ELb1EEC2B8ue170006ENS_18__default_init_tagE, symObjAddr: 0x14E44, symBinAddr: 0x100016954, symSize: 0x2C }
  - { offsetInCU: 0x24436, offset: 0x301B1, size: 0x8, addend: 0x0, symName: __ZNSt3__19allocatorINS_12basic_stringIcNS_11char_traitsIcEENS0_IcEEEEEC2B8ue170006Ev, symObjAddr: 0x14E70, symBinAddr: 0x100016980, symSize: 0x2C }
  - { offsetInCU: 0x2445E, offset: 0x301D9, size: 0x8, addend: 0x0, symName: __ZNSt3__116__non_trivial_ifILb1ENS_9allocatorINS_12basic_stringIcNS_11char_traitsIcEENS1_IcEEEEEEEC2B8ue170006Ev, symObjAddr: 0x14E9C, symBinAddr: 0x1000169AC, symSize: 0x14 }
  - { offsetInCU: 0x24486, offset: 0x30201, size: 0x8, addend: 0x0, symName: __ZNSt3__16vectorINS_12basic_stringIcNS_11char_traitsIcEENS_9allocatorIcEEEENS4_IS6_EEED2B8ue170006Ev, symObjAddr: 0x14EB0, symBinAddr: 0x1000169C0, symSize: 0x3C }
  - { offsetInCU: 0x244AE, offset: 0x30229, size: 0x8, addend: 0x0, symName: __ZNSt3__16vectorINS_12basic_stringIcNS_11char_traitsIcEENS_9allocatorIcEEEENS4_IS6_EEE16__destroy_vectorC1B8ue170006ERS8_, symObjAddr: 0x14EEC, symBinAddr: 0x1000169FC, symSize: 0x34 }
  - { offsetInCU: 0x244E5, offset: 0x30260, size: 0x8, addend: 0x0, symName: __ZNSt3__16vectorINS_12basic_stringIcNS_11char_traitsIcEENS_9allocatorIcEEEENS4_IS6_EEE16__destroy_vectorclB8ue170006Ev, symObjAddr: 0x14F20, symBinAddr: 0x100016A30, symSize: 0x90 }
  - { offsetInCU: 0x24509, offset: 0x30284, size: 0x8, addend: 0x0, symName: __ZNSt3__16vectorINS_12basic_stringIcNS_11char_traitsIcEENS_9allocatorIcEEEENS4_IS6_EEE16__destroy_vectorC2B8ue170006ERS8_, symObjAddr: 0x14FB0, symBinAddr: 0x100016AC0, symSize: 0x20 }
  - { offsetInCU: 0x24540, offset: 0x302BB, size: 0x8, addend: 0x0, symName: __ZNSt3__16vectorINS_12basic_stringIcNS_11char_traitsIcEENS_9allocatorIcEEEENS4_IS6_EEE7__clearB8ue170006Ev, symObjAddr: 0x14FD0, symBinAddr: 0x100016AE0, symSize: 0x28 }
  - { offsetInCU: 0x24564, offset: 0x302DF, size: 0x8, addend: 0x0, symName: __ZNKSt3__16vectorINS_12basic_stringIcNS_11char_traitsIcEENS_9allocatorIcEEEENS4_IS6_EEE17__annotate_deleteB8ue170006Ev, symObjAddr: 0x14FF8, symBinAddr: 0x100016B08, symSize: 0xD4 }
  - { offsetInCU: 0x24588, offset: 0x30303, size: 0x8, addend: 0x0, symName: __ZNSt3__116allocator_traitsINS_9allocatorINS_12basic_stringIcNS_11char_traitsIcEENS1_IcEEEEEEE10deallocateB8ue170006ERS7_PS6_m, symObjAddr: 0x150CC, symBinAddr: 0x100016BDC, symSize: 0x34 }
  - { offsetInCU: 0x245C9, offset: 0x30344, size: 0x8, addend: 0x0, symName: __ZNSt3__16vectorINS_12basic_stringIcNS_11char_traitsIcEENS_9allocatorIcEEEENS4_IS6_EEE7__allocB8ue170006Ev, symObjAddr: 0x15100, symBinAddr: 0x100016C10, symSize: 0x28 }
  - { offsetInCU: 0x245ED, offset: 0x30368, size: 0x8, addend: 0x0, symName: __ZNKSt3__16vectorINS_12basic_stringIcNS_11char_traitsIcEENS_9allocatorIcEEEENS4_IS6_EEE8capacityB8ue170006Ev, symObjAddr: 0x15128, symBinAddr: 0x100016C38, symSize: 0x40 }
  - { offsetInCU: 0x24611, offset: 0x3038C, size: 0x8, addend: 0x0, symName: __ZNSt3__16vectorINS_12basic_stringIcNS_11char_traitsIcEENS_9allocatorIcEEEENS4_IS6_EEE22__base_destruct_at_endB8ue170006EPS6_, symObjAddr: 0x15168, symBinAddr: 0x100016C78, symSize: 0xA0 }
  - { offsetInCU: 0x24653, offset: 0x303CE, size: 0x8, addend: 0x0, symName: __ZNSt3__116allocator_traitsINS_9allocatorINS_12basic_stringIcNS_11char_traitsIcEENS1_IcEEEEEEE7destroyB8ue170006IS6_vEEvRS7_PT_, symObjAddr: 0x15208, symBinAddr: 0x100016D18, symSize: 0x2C }
  - { offsetInCU: 0x24690, offset: 0x3040B, size: 0x8, addend: 0x0, symName: __ZNSt3__19allocatorINS_12basic_stringIcNS_11char_traitsIcEENS0_IcEEEEE7destroyB8ue170006EPS5_, symObjAddr: 0x15248, symBinAddr: 0x100016D58, symSize: 0x28 }
  - { offsetInCU: 0x246C2, offset: 0x3043D, size: 0x8, addend: 0x0, symName: __ZNKSt3__16vectorINS_12basic_stringIcNS_11char_traitsIcEENS_9allocatorIcEEEENS4_IS6_EEE31__annotate_contiguous_containerB8ue170006EPKvSA_SA_SA_, symObjAddr: 0x15270, symBinAddr: 0x100016D80, symSize: 0x20 }
  - { offsetInCU: 0x24716, offset: 0x30491, size: 0x8, addend: 0x0, symName: __ZNKSt3__16vectorINS_12basic_stringIcNS_11char_traitsIcEENS_9allocatorIcEEEENS4_IS6_EEE4dataB8ue170006Ev, symObjAddr: 0x15290, symBinAddr: 0x100016DA0, symSize: 0x28 }
  - { offsetInCU: 0x2473A, offset: 0x304B5, size: 0x8, addend: 0x0, symName: __ZNKSt3__16vectorINS_12basic_stringIcNS_11char_traitsIcEENS_9allocatorIcEEEENS4_IS6_EEE4sizeB8ue170006Ev, symObjAddr: 0x152B8, symBinAddr: 0x100016DC8, symSize: 0x28 }
  - { offsetInCU: 0x2475E, offset: 0x304D9, size: 0x8, addend: 0x0, symName: __ZNSt3__19allocatorINS_12basic_stringIcNS_11char_traitsIcEENS0_IcEEEEE10deallocateB8ue170006EPS5_m, symObjAddr: 0x152E0, symBinAddr: 0x100016DF0, symSize: 0x74 }
  - { offsetInCU: 0x2479E, offset: 0x30519, size: 0x8, addend: 0x0, symName: __ZNSt3__117__compressed_pairIPNS_12basic_stringIcNS_11char_traitsIcEENS_9allocatorIcEEEENS4_IS6_EEE6secondB8ue170006Ev, symObjAddr: 0x15354, symBinAddr: 0x100016E64, symSize: 0x24 }
  - { offsetInCU: 0x247C2, offset: 0x3053D, size: 0x8, addend: 0x0, symName: __ZNSt3__122__compressed_pair_elemINS_9allocatorINS_12basic_stringIcNS_11char_traitsIcEENS1_IcEEEEEELi1ELb1EE5__getB8ue170006Ev, symObjAddr: 0x15378, symBinAddr: 0x100016E88, symSize: 0x14 }
  - { offsetInCU: 0x247E6, offset: 0x30561, size: 0x8, addend: 0x0, symName: __ZNKSt3__16vectorINS_12basic_stringIcNS_11char_traitsIcEENS_9allocatorIcEEEENS4_IS6_EEE9__end_capB8ue170006Ev, symObjAddr: 0x1538C, symBinAddr: 0x100016E9C, symSize: 0x28 }
  - { offsetInCU: 0x2480A, offset: 0x30585, size: 0x8, addend: 0x0, symName: __ZNKSt3__117__compressed_pairIPNS_12basic_stringIcNS_11char_traitsIcEENS_9allocatorIcEEEENS4_IS6_EEE5firstB8ue170006Ev, symObjAddr: 0x153B4, symBinAddr: 0x100016EC4, symSize: 0x24 }
  - { offsetInCU: 0x2482E, offset: 0x305A9, size: 0x8, addend: 0x0, symName: __ZNKSt3__122__compressed_pair_elemIPNS_12basic_stringIcNS_11char_traitsIcEENS_9allocatorIcEEEELi0ELb0EE5__getB8ue170006Ev, symObjAddr: 0x153D8, symBinAddr: 0x100016EE8, symSize: 0x14 }
  - { offsetInCU: 0x24852, offset: 0x305CD, size: 0x8, addend: 0x0, symName: __ZNSt3__19allocatorIcEC1B8ue170006Ev, symObjAddr: 0x153EC, symBinAddr: 0x100016EFC, symSize: 0x2C }
  - { offsetInCU: 0x2487A, offset: 0x305F5, size: 0x8, addend: 0x0, symName: __ZNSt3__16vectorINS_12basic_stringIcNS_11char_traitsIcEENS_9allocatorIcEEEENS4_IS6_EEE9__end_capB8ue170006Ev, symObjAddr: 0x15418, symBinAddr: 0x100016F28, symSize: 0x28 }
  - { offsetInCU: 0x2489E, offset: 0x30619, size: 0x8, addend: 0x0, symName: __ZNSt3__16vectorINS_12basic_stringIcNS_11char_traitsIcEENS_9allocatorIcEEEENS4_IS6_EEE22__construct_one_at_endB8ue170006IJRKS6_EEEvDpOT_, symObjAddr: 0x15440, symBinAddr: 0x100016F50, symSize: 0x98 }
  - { offsetInCU: 0x248EB, offset: 0x30666, size: 0x8, addend: 0x0, symName: __ZNSt3__16vectorINS_12basic_stringIcNS_11char_traitsIcEENS_9allocatorIcEEEENS4_IS6_EEE21__push_back_slow_pathIRKS6_EEvOT_, symObjAddr: 0x154D8, symBinAddr: 0x100016FE8, symSize: 0xE0 }
  - { offsetInCU: 0x24947, offset: 0x306C2, size: 0x8, addend: 0x0, symName: __ZNSt3__117__compressed_pairIPNS_12basic_stringIcNS_11char_traitsIcEENS_9allocatorIcEEEENS4_IS6_EEE5firstB8ue170006Ev, symObjAddr: 0x155B8, symBinAddr: 0x1000170C8, symSize: 0x24 }
  - { offsetInCU: 0x2496B, offset: 0x306E6, size: 0x8, addend: 0x0, symName: __ZNSt3__122__compressed_pair_elemIPNS_12basic_stringIcNS_11char_traitsIcEENS_9allocatorIcEEEELi0ELb0EE5__getB8ue170006Ev, symObjAddr: 0x155DC, symBinAddr: 0x1000170EC, symSize: 0x14 }
  - { offsetInCU: 0x249A8, offset: 0x30723, size: 0x8, addend: 0x0, symName: __ZNSt3__16vectorINS_12basic_stringIcNS_11char_traitsIcEENS_9allocatorIcEEEENS4_IS6_EEE21_ConstructTransactionC1B8ue170006ERS8_m, symObjAddr: 0x155F0, symBinAddr: 0x100017100, symSize: 0x3C }
  - { offsetInCU: 0x249EE, offset: 0x30769, size: 0x8, addend: 0x0, symName: __ZNSt3__116allocator_traitsINS_9allocatorINS_12basic_stringIcNS_11char_traitsIcEENS1_IcEEEEEEE9constructB8ue170006IS6_JRKS6_EvEEvRS7_PT_DpOT0_, symObjAddr: 0x1562C, symBinAddr: 0x10001713C, symSize: 0x34 }
  - { offsetInCU: 0x24A45, offset: 0x307C0, size: 0x8, addend: 0x0, symName: __ZNSt3__16vectorINS_12basic_stringIcNS_11char_traitsIcEENS_9allocatorIcEEEENS4_IS6_EEE21_ConstructTransactionD1B8ue170006Ev, symObjAddr: 0x15660, symBinAddr: 0x100017170, symSize: 0x2C }
  - { offsetInCU: 0x24A6D, offset: 0x307E8, size: 0x8, addend: 0x0, symName: __ZNSt3__16vectorINS_12basic_stringIcNS_11char_traitsIcEENS_9allocatorIcEEEENS4_IS6_EEE21_ConstructTransactionC2B8ue170006ERS8_m, symObjAddr: 0x1568C, symBinAddr: 0x10001719C, symSize: 0x4C }
  - { offsetInCU: 0x24AB3, offset: 0x3082E, size: 0x8, addend: 0x0, symName: __ZNSt3__19allocatorINS_12basic_stringIcNS_11char_traitsIcEENS0_IcEEEEE9constructB8ue170006IS5_JRKS5_EEEvPT_DpOT0_, symObjAddr: 0x156D8, symBinAddr: 0x1000171E8, symSize: 0x30 }
  - { offsetInCU: 0x24B07, offset: 0x30882, size: 0x8, addend: 0x0, symName: __ZNSt3__16vectorINS_12basic_stringIcNS_11char_traitsIcEENS_9allocatorIcEEEENS4_IS6_EEE21_ConstructTransactionD2B8ue170006Ev, symObjAddr: 0x15708, symBinAddr: 0x100017218, symSize: 0x20 }
  - { offsetInCU: 0x24B2F, offset: 0x308AA, size: 0x8, addend: 0x0, symName: __ZNKSt3__16vectorINS_12basic_stringIcNS_11char_traitsIcEENS_9allocatorIcEEEENS4_IS6_EEE11__recommendB8ue170006Em, symObjAddr: 0x15728, symBinAddr: 0x100017238, symSize: 0xB4 }
  - { offsetInCU: 0x24B82, offset: 0x308FD, size: 0x8, addend: 0x0, symName: __ZNSt3__114__split_bufferINS_12basic_stringIcNS_11char_traitsIcEENS_9allocatorIcEEEERNS4_IS6_EEEC1EmmS8_, symObjAddr: 0x157DC, symBinAddr: 0x1000172EC, symSize: 0x44 }
  - { offsetInCU: 0x24BD7, offset: 0x30952, size: 0x8, addend: 0x0, symName: __ZNSt3__114__split_bufferINS_12basic_stringIcNS_11char_traitsIcEENS_9allocatorIcEEEERNS4_IS6_EEED1Ev, symObjAddr: 0x15930, symBinAddr: 0x100017440, symSize: 0x2C }
  - { offsetInCU: 0x24C02, offset: 0x3097D, size: 0x8, addend: 0x0, symName: __ZNKSt3__16vectorINS_12basic_stringIcNS_11char_traitsIcEENS_9allocatorIcEEEENS4_IS6_EEE8max_sizeEv, symObjAddr: 0x1595C, symBinAddr: 0x10001746C, symSize: 0x74 }
  - { offsetInCU: 0x24C28, offset: 0x309A3, size: 0x8, addend: 0x0, symName: __ZNKSt3__16vectorINS_12basic_stringIcNS_11char_traitsIcEENS_9allocatorIcEEEENS4_IS6_EEE20__throw_length_errorB8ue170006Ev, symObjAddr: 0x159D0, symBinAddr: 0x1000174E0, symSize: 0x1C }
  - { offsetInCU: 0x24C56, offset: 0x309D1, size: 0x8, addend: 0x0, symName: __ZNSt3__116allocator_traitsINS_9allocatorINS_12basic_stringIcNS_11char_traitsIcEENS1_IcEEEEEEE8max_sizeB8ue170006IS7_vEEmRKS7_, symObjAddr: 0x159EC, symBinAddr: 0x1000174FC, symSize: 0x24 }
  - { offsetInCU: 0x24C84, offset: 0x309FF, size: 0x8, addend: 0x0, symName: __ZNKSt3__16vectorINS_12basic_stringIcNS_11char_traitsIcEENS_9allocatorIcEEEENS4_IS6_EEE7__allocB8ue170006Ev, symObjAddr: 0x15A10, symBinAddr: 0x100017520, symSize: 0x28 }
  - { offsetInCU: 0x24CA8, offset: 0x30A23, size: 0x8, addend: 0x0, symName: __ZNKSt3__19allocatorINS_12basic_stringIcNS_11char_traitsIcEENS0_IcEEEEE8max_sizeB8ue170006Ev, symObjAddr: 0x15A38, symBinAddr: 0x100017548, symSize: 0x18 }
  - { offsetInCU: 0x24CCC, offset: 0x30A47, size: 0x8, addend: 0x0, symName: __ZNKSt3__117__compressed_pairIPNS_12basic_stringIcNS_11char_traitsIcEENS_9allocatorIcEEEENS4_IS6_EEE6secondB8ue170006Ev, symObjAddr: 0x15A50, symBinAddr: 0x100017560, symSize: 0x24 }
  - { offsetInCU: 0x24CF0, offset: 0x30A6B, size: 0x8, addend: 0x0, symName: __ZNKSt3__122__compressed_pair_elemINS_9allocatorINS_12basic_stringIcNS_11char_traitsIcEENS1_IcEEEEEELi1ELb1EE5__getB8ue170006Ev, symObjAddr: 0x15A74, symBinAddr: 0x100017584, symSize: 0x14 }
  - { offsetInCU: 0x24D14, offset: 0x30A8F, size: 0x8, addend: 0x0, symName: __ZNSt3__114__split_bufferINS_12basic_stringIcNS_11char_traitsIcEENS_9allocatorIcEEEERNS4_IS6_EEEC2EmmS8_, symObjAddr: 0x15A88, symBinAddr: 0x100017598, symSize: 0xE0 }
  - { offsetInCU: 0x24D87, offset: 0x30B02, size: 0x8, addend: 0x0, symName: __ZNSt3__117__compressed_pairIPNS_12basic_stringIcNS_11char_traitsIcEENS_9allocatorIcEEEERNS4_IS6_EEEC1B8ue170006IDnS9_EEOT_OT0_, symObjAddr: 0x15B68, symBinAddr: 0x100017678, symSize: 0x3C }
  - { offsetInCU: 0x24DDD, offset: 0x30B58, size: 0x8, addend: 0x0, symName: __ZNSt3__114__split_bufferINS_12basic_stringIcNS_11char_traitsIcEENS_9allocatorIcEEEERNS4_IS6_EEE7__allocB8ue170006Ev, symObjAddr: 0x15BE4, symBinAddr: 0x1000176F4, symSize: 0x28 }
  - { offsetInCU: 0x24E01, offset: 0x30B7C, size: 0x8, addend: 0x0, symName: __ZNSt3__114__split_bufferINS_12basic_stringIcNS_11char_traitsIcEENS_9allocatorIcEEEERNS4_IS6_EEE9__end_capB8ue170006Ev, symObjAddr: 0x15C0C, symBinAddr: 0x10001771C, symSize: 0x28 }
  - { offsetInCU: 0x24E25, offset: 0x30BA0, size: 0x8, addend: 0x0, symName: __ZNSt3__117__compressed_pairIPNS_12basic_stringIcNS_11char_traitsIcEENS_9allocatorIcEEEERNS4_IS6_EEEC2B8ue170006IDnS9_EEOT_OT0_, symObjAddr: 0x15C34, symBinAddr: 0x100017744, symSize: 0x48 }
  - { offsetInCU: 0x24E7B, offset: 0x30BF6, size: 0x8, addend: 0x0, symName: __ZNSt3__122__compressed_pair_elemIRNS_9allocatorINS_12basic_stringIcNS_11char_traitsIcEENS1_IcEEEEEELi1ELb0EEC2B8ue170006IS8_vEEOT_, symObjAddr: 0x15C7C, symBinAddr: 0x10001778C, symSize: 0x20 }
  - { offsetInCU: 0x24EBC, offset: 0x30C37, size: 0x8, addend: 0x0, symName: __ZNSt3__19allocatorINS_12basic_stringIcNS_11char_traitsIcEENS0_IcEEEEE8allocateB8ue170006Em, symObjAddr: 0x15C9C, symBinAddr: 0x1000177AC, symSize: 0x8C }
  - { offsetInCU: 0x24EEE, offset: 0x30C69, size: 0x8, addend: 0x0, symName: __ZNSt3__117__compressed_pairIPNS_12basic_stringIcNS_11char_traitsIcEENS_9allocatorIcEEEERNS4_IS6_EEE6secondB8ue170006Ev, symObjAddr: 0x15D28, symBinAddr: 0x100017838, symSize: 0x28 }
  - { offsetInCU: 0x24F12, offset: 0x30C8D, size: 0x8, addend: 0x0, symName: __ZNSt3__122__compressed_pair_elemIRNS_9allocatorINS_12basic_stringIcNS_11char_traitsIcEENS1_IcEEEEEELi1ELb0EE5__getB8ue170006Ev, symObjAddr: 0x15D50, symBinAddr: 0x100017860, symSize: 0x18 }
  - { offsetInCU: 0x24F36, offset: 0x30CB1, size: 0x8, addend: 0x0, symName: __ZNSt3__117__compressed_pairIPNS_12basic_stringIcNS_11char_traitsIcEENS_9allocatorIcEEEERNS4_IS6_EEE5firstB8ue170006Ev, symObjAddr: 0x15D68, symBinAddr: 0x100017878, symSize: 0x24 }
  - { offsetInCU: 0x24F5A, offset: 0x30CD5, size: 0x8, addend: 0x0, symName: __ZNSt3__116reverse_iteratorIPNS_12basic_stringIcNS_11char_traitsIcEENS_9allocatorIcEEEEEC1B8ue170006ES7_, symObjAddr: 0x15EC0, symBinAddr: 0x1000179D0, symSize: 0x34 }
  - { offsetInCU: 0x24F90, offset: 0x30D0B, size: 0x8, addend: 0x0, symName: __ZNKSt3__116reverse_iteratorIPNS_12basic_stringIcNS_11char_traitsIcEENS_9allocatorIcEEEEE4baseB8ue170006Ev, symObjAddr: 0x15EF4, symBinAddr: 0x100017A04, symSize: 0x18 }
  - { offsetInCU: 0x24FB4, offset: 0x30D2F, size: 0x8, addend: 0x0, symName: __ZNKSt3__16vectorINS_12basic_stringIcNS_11char_traitsIcEENS_9allocatorIcEEEENS4_IS6_EEE14__annotate_newB8ue170006Em, symObjAddr: 0x15F48, symBinAddr: 0x100017A58, symSize: 0xC8 }
  - { offsetInCU: 0x24FE7, offset: 0x30D62, size: 0x8, addend: 0x0, symName: __ZNSt3__129_AllocatorDestroyRangeReverseINS_9allocatorINS_12basic_stringIcNS_11char_traitsIcEENS1_IcEEEEEENS_16reverse_iteratorIPS6_EEEC1B8ue170006ERS7_RSA_SD_, symObjAddr: 0x1605C, symBinAddr: 0x100017B6C, symSize: 0x44 }
  - { offsetInCU: 0x2503C, offset: 0x30DB7, size: 0x8, addend: 0x0, symName: __ZNKSt3__116reverse_iteratorIPNS_12basic_stringIcNS_11char_traitsIcEENS_9allocatorIcEEEEEdeB8ue170006Ev, symObjAddr: 0x1610C, symBinAddr: 0x100017C1C, symSize: 0x28 }
  - { offsetInCU: 0x2506E, offset: 0x30DE9, size: 0x8, addend: 0x0, symName: __ZNSt3__116reverse_iteratorIPNS_12basic_stringIcNS_11char_traitsIcEENS_9allocatorIcEEEEEppB8ue170006Ev, symObjAddr: 0x16134, symBinAddr: 0x100017C44, symSize: 0x20 }
  - { offsetInCU: 0x25092, offset: 0x30E0D, size: 0x8, addend: 0x0, symName: __ZNSt3__128__exception_guard_exceptionsINS_29_AllocatorDestroyRangeReverseINS_9allocatorINS_12basic_stringIcNS_11char_traitsIcEENS2_IcEEEEEENS_16reverse_iteratorIPS7_EEEEE10__completeB8ue170006Ev, symObjAddr: 0x16154, symBinAddr: 0x100017C64, symSize: 0x1C }
  - { offsetInCU: 0x250B6, offset: 0x30E31, size: 0x8, addend: 0x0, symName: __ZNSt3__128__exception_guard_exceptionsINS_29_AllocatorDestroyRangeReverseINS_9allocatorINS_12basic_stringIcNS_11char_traitsIcEENS2_IcEEEEEENS_16reverse_iteratorIPS7_EEEEED1B8ue170006Ev, symObjAddr: 0x16170, symBinAddr: 0x100017C80, symSize: 0x2C }
  - { offsetInCU: 0x250DE, offset: 0x30E59, size: 0x8, addend: 0x0, symName: __ZNSt3__128__exception_guard_exceptionsINS_29_AllocatorDestroyRangeReverseINS_9allocatorINS_12basic_stringIcNS_11char_traitsIcEENS2_IcEEEEEENS_16reverse_iteratorIPS7_EEEEEC1B8ue170006ESC_, symObjAddr: 0x1619C, symBinAddr: 0x100017CAC, symSize: 0x34 }
  - { offsetInCU: 0x25115, offset: 0x30E90, size: 0x8, addend: 0x0, symName: __ZNSt3__128__exception_guard_exceptionsINS_29_AllocatorDestroyRangeReverseINS_9allocatorINS_12basic_stringIcNS_11char_traitsIcEENS2_IcEEEEEENS_16reverse_iteratorIPS7_EEEEEC2B8ue170006ESC_, symObjAddr: 0x161D0, symBinAddr: 0x100017CE0, symSize: 0x30 }
  - { offsetInCU: 0x2514C, offset: 0x30EC7, size: 0x8, addend: 0x0, symName: __ZNSt3__129_AllocatorDestroyRangeReverseINS_9allocatorINS_12basic_stringIcNS_11char_traitsIcEENS1_IcEEEEEENS_16reverse_iteratorIPS6_EEEC2B8ue170006ERS7_RSA_SD_, symObjAddr: 0x16200, symBinAddr: 0x100017D10, symSize: 0x38 }
  - { offsetInCU: 0x251A6, offset: 0x30F21, size: 0x8, addend: 0x0, symName: __ZNSt3__119__to_address_helperINS_16reverse_iteratorIPNS_12basic_stringIcNS_11char_traitsIcEENS_9allocatorIcEEEEEEvE6__callB8ue170006ERKS9_, symObjAddr: 0x16238, symBinAddr: 0x100017D48, symSize: 0x4C }
  - { offsetInCU: 0x251C8, offset: 0x30F43, size: 0x8, addend: 0x0, symName: __ZNKSt3__116reverse_iteratorIPNS_12basic_stringIcNS_11char_traitsIcEENS_9allocatorIcEEEEEptB8ue170006Ev, symObjAddr: 0x16284, symBinAddr: 0x100017D94, symSize: 0x24 }
  - { offsetInCU: 0x251EC, offset: 0x30F67, size: 0x8, addend: 0x0, symName: __ZNSt3__128__exception_guard_exceptionsINS_29_AllocatorDestroyRangeReverseINS_9allocatorINS_12basic_stringIcNS_11char_traitsIcEENS2_IcEEEEEENS_16reverse_iteratorIPS7_EEEEED2B8ue170006Ev, symObjAddr: 0x162A8, symBinAddr: 0x100017DB8, symSize: 0x48 }
  - { offsetInCU: 0x25214, offset: 0x30F8F, size: 0x8, addend: 0x0, symName: __ZNKSt3__129_AllocatorDestroyRangeReverseINS_9allocatorINS_12basic_stringIcNS_11char_traitsIcEENS1_IcEEEEEENS_16reverse_iteratorIPS6_EEEclB8ue170006Ev, symObjAddr: 0x162F0, symBinAddr: 0x100017E00, symSize: 0xB4 }
  - { offsetInCU: 0x25239, offset: 0x30FB4, size: 0x8, addend: 0x0, symName: __ZNSt3__116reverse_iteratorINS0_IPNS_12basic_stringIcNS_11char_traitsIcEENS_9allocatorIcEEEEEEEC1B8ue170006ES8_, symObjAddr: 0x16414, symBinAddr: 0x100017F24, symSize: 0x3C }
  - { offsetInCU: 0x2526F, offset: 0x30FEA, size: 0x8, addend: 0x0, symName: __ZNSt3__116reverse_iteratorINS0_IPNS_12basic_stringIcNS_11char_traitsIcEENS_9allocatorIcEEEEEEEppB8ue170006Ev, symObjAddr: 0x164D4, symBinAddr: 0x100017FE4, symSize: 0x30 }
  - { offsetInCU: 0x25293, offset: 0x3100E, size: 0x8, addend: 0x0, symName: __ZNKSt3__116reverse_iteratorINS0_IPNS_12basic_stringIcNS_11char_traitsIcEENS_9allocatorIcEEEEEEE4baseB8ue170006Ev, symObjAddr: 0x16504, symBinAddr: 0x100018014, symSize: 0x24 }
  - { offsetInCU: 0x252BC, offset: 0x31037, size: 0x8, addend: 0x0, symName: __ZNSt3__119__to_address_helperINS_16reverse_iteratorINS1_IPNS_12basic_stringIcNS_11char_traitsIcEENS_9allocatorIcEEEEEEEEvE6__callB8ue170006ERKSA_, symObjAddr: 0x16528, symBinAddr: 0x100018038, symSize: 0x4C }
  - { offsetInCU: 0x252DE, offset: 0x31059, size: 0x8, addend: 0x0, symName: __ZNKSt3__116reverse_iteratorINS0_IPNS_12basic_stringIcNS_11char_traitsIcEENS_9allocatorIcEEEEEEEptB8ue170006Ev, symObjAddr: 0x16574, symBinAddr: 0x100018084, symSize: 0x24 }
  - { offsetInCU: 0x25302, offset: 0x3107D, size: 0x8, addend: 0x0, symName: __ZNKSt3__116reverse_iteratorINS0_IPNS_12basic_stringIcNS_11char_traitsIcEENS_9allocatorIcEEEEEEEdeB8ue170006Ev, symObjAddr: 0x16598, symBinAddr: 0x1000180A8, symSize: 0x34 }
  - { offsetInCU: 0x25334, offset: 0x310AF, size: 0x8, addend: 0x0, symName: __ZNSt3__116reverse_iteratorIPNS_12basic_stringIcNS_11char_traitsIcEENS_9allocatorIcEEEEEmmB8ue170006Ev, symObjAddr: 0x165CC, symBinAddr: 0x1000180DC, symSize: 0x20 }
  - { offsetInCU: 0x25358, offset: 0x310D3, size: 0x8, addend: 0x0, symName: __ZNSt3__116reverse_iteratorINS0_IPNS_12basic_stringIcNS_11char_traitsIcEENS_9allocatorIcEEEEEEEC2B8ue170006ES8_, symObjAddr: 0x165EC, symBinAddr: 0x1000180FC, symSize: 0x2C }
  - { offsetInCU: 0x2538E, offset: 0x31109, size: 0x8, addend: 0x0, symName: __ZNSt3__116reverse_iteratorIPNS_12basic_stringIcNS_11char_traitsIcEENS_9allocatorIcEEEEEC2B8ue170006ES7_, symObjAddr: 0x16618, symBinAddr: 0x100018128, symSize: 0x28 }
  - { offsetInCU: 0x253C4, offset: 0x3113F, size: 0x8, addend: 0x0, symName: __ZNSt3__114__split_bufferINS_12basic_stringIcNS_11char_traitsIcEENS_9allocatorIcEEEERNS4_IS6_EEED2Ev, symObjAddr: 0x16640, symBinAddr: 0x100018150, symSize: 0x80 }
  - { offsetInCU: 0x253EF, offset: 0x3116A, size: 0x8, addend: 0x0, symName: __ZNSt3__114__split_bufferINS_12basic_stringIcNS_11char_traitsIcEENS_9allocatorIcEEEERNS4_IS6_EEE5clearB8ue170006Ev, symObjAddr: 0x166C0, symBinAddr: 0x1000181D0, symSize: 0x28 }
  - { offsetInCU: 0x25413, offset: 0x3118E, size: 0x8, addend: 0x0, symName: __ZNKSt3__114__split_bufferINS_12basic_stringIcNS_11char_traitsIcEENS_9allocatorIcEEEERNS4_IS6_EEE8capacityB8ue170006Ev, symObjAddr: 0x166E8, symBinAddr: 0x1000181F8, symSize: 0x40 }
  - { offsetInCU: 0x25437, offset: 0x311B2, size: 0x8, addend: 0x0, symName: __ZNSt3__114__split_bufferINS_12basic_stringIcNS_11char_traitsIcEENS_9allocatorIcEEEERNS4_IS6_EEE17__destruct_at_endB8ue170006EPS6_, symObjAddr: 0x16728, symBinAddr: 0x100018238, symSize: 0x2C }
  - { offsetInCU: 0x25469, offset: 0x311E4, size: 0x8, addend: 0x0, symName: __ZNSt3__114__split_bufferINS_12basic_stringIcNS_11char_traitsIcEENS_9allocatorIcEEEERNS4_IS6_EEE17__destruct_at_endB8ue170006EPS6_NS_17integral_constantIbLb0EEE, symObjAddr: 0x16754, symBinAddr: 0x100018264, symSize: 0x94 }
  - { offsetInCU: 0x254A7, offset: 0x31222, size: 0x8, addend: 0x0, symName: __ZNKSt3__114__split_bufferINS_12basic_stringIcNS_11char_traitsIcEENS_9allocatorIcEEEERNS4_IS6_EEE9__end_capB8ue170006Ev, symObjAddr: 0x167E8, symBinAddr: 0x1000182F8, symSize: 0x28 }
  - { offsetInCU: 0x254CB, offset: 0x31246, size: 0x8, addend: 0x0, symName: __ZNKSt3__117__compressed_pairIPNS_12basic_stringIcNS_11char_traitsIcEENS_9allocatorIcEEEERNS4_IS6_EEE5firstB8ue170006Ev, symObjAddr: 0x16810, symBinAddr: 0x100018320, symSize: 0x24 }
  - { offsetInCU: 0x254EF, offset: 0x3126A, size: 0x8, addend: 0x0, symName: __ZNSt3__14pairIiNS_6vectorINS_12basic_stringIcNS_11char_traitsIcEENS_9allocatorIcEEEENS5_IS7_EEEEEC1B8ue170006ERKiRKS9_, symObjAddr: 0x16834, symBinAddr: 0x100018344, symSize: 0x3C }
  - { offsetInCU: 0x25533, offset: 0x312AE, size: 0x8, addend: 0x0, symName: __ZNSt3__14pairIiNS_6vectorINS_12basic_stringIcNS_11char_traitsIcEENS_9allocatorIcEEEENS5_IS7_EEEEEC2B8ue170006ERKiRKS9_, symObjAddr: 0x16870, symBinAddr: 0x100018380, symSize: 0x48 }
  - { offsetInCU: 0x25577, offset: 0x312F2, size: 0x8, addend: 0x0, symName: __ZNSt3__16vectorINS_12basic_stringIcNS_11char_traitsIcEENS_9allocatorIcEEEENS4_IS6_EEEC1ERKS8_, symObjAddr: 0x168B8, symBinAddr: 0x1000183C8, symSize: 0x34 }
  - { offsetInCU: 0x255B1, offset: 0x3132C, size: 0x8, addend: 0x0, symName: __ZNSt3__16vectorINS_12basic_stringIcNS_11char_traitsIcEENS_9allocatorIcEEEENS4_IS6_EEEC2ERKS8_, symObjAddr: 0x168EC, symBinAddr: 0x1000183FC, symSize: 0x94 }
  - { offsetInCU: 0x255EB, offset: 0x31366, size: 0x8, addend: 0x0, symName: __ZNSt3__116allocator_traitsINS_9allocatorINS_12basic_stringIcNS_11char_traitsIcEENS1_IcEEEEEEE37select_on_container_copy_constructionB8ue170006IS7_vvEES7_RKS7_, symObjAddr: 0x16980, symBinAddr: 0x100018490, symSize: 0x10 }
  - { offsetInCU: 0x25620, offset: 0x3139B, size: 0x8, addend: 0x0, symName: __ZNSt3__117__compressed_pairIPNS_12basic_stringIcNS_11char_traitsIcEENS_9allocatorIcEEEENS4_IS6_EEEC1B8ue170006IDnS8_EEOT_OT0_, symObjAddr: 0x16990, symBinAddr: 0x1000184A0, symSize: 0x3C }
  - { offsetInCU: 0x25676, offset: 0x313F1, size: 0x8, addend: 0x0, symName: __ZNSt3__16vectorINS_12basic_stringIcNS_11char_traitsIcEENS_9allocatorIcEEEENS4_IS6_EEE16__init_with_sizeB8ue170006IPS6_SA_EEvT_T0_m, symObjAddr: 0x169CC, symBinAddr: 0x1000184DC, symSize: 0xC0 }
  - { offsetInCU: 0x256E8, offset: 0x31463, size: 0x8, addend: 0x0, symName: __ZNSt3__117__compressed_pairIPNS_12basic_stringIcNS_11char_traitsIcEENS_9allocatorIcEEEENS4_IS6_EEEC2B8ue170006IDnS8_EEOT_OT0_, symObjAddr: 0x16A8C, symBinAddr: 0x10001859C, symSize: 0x44 }
  - { offsetInCU: 0x2573E, offset: 0x314B9, size: 0x8, addend: 0x0, symName: __ZNSt3__122__compressed_pair_elemINS_9allocatorINS_12basic_stringIcNS_11char_traitsIcEENS1_IcEEEEEELi1ELb1EEC2B8ue170006IS7_vEEOT_, symObjAddr: 0x16AD0, symBinAddr: 0x1000185E0, symSize: 0x18 }
  - { offsetInCU: 0x2577F, offset: 0x314FA, size: 0x8, addend: 0x0, symName: __ZNSt3__16vectorINS_12basic_stringIcNS_11char_traitsIcEENS_9allocatorIcEEEENS4_IS6_EEE11__vallocateB8ue170006Em, symObjAddr: 0x16B28, symBinAddr: 0x100018638, symSize: 0xB4 }
  - { offsetInCU: 0x257C1, offset: 0x3153C, size: 0x8, addend: 0x0, symName: __ZNSt3__16vectorINS_12basic_stringIcNS_11char_traitsIcEENS_9allocatorIcEEEENS4_IS6_EEE18__construct_at_endIPS6_SA_EEvT_T0_m, symObjAddr: 0x16BDC, symBinAddr: 0x1000186EC, symSize: 0x94 }
  - { offsetInCU: 0x25835, offset: 0x315B0, size: 0x8, addend: 0x0, symName: __ZNSt3__128__exception_guard_exceptionsINS_6vectorINS_12basic_stringIcNS_11char_traitsIcEENS_9allocatorIcEEEENS5_IS7_EEE16__destroy_vectorEE10__completeB8ue170006Ev, symObjAddr: 0x16C70, symBinAddr: 0x100018780, symSize: 0x1C }
  - { offsetInCU: 0x25859, offset: 0x315D4, size: 0x8, addend: 0x0, symName: __ZNSt3__128__exception_guard_exceptionsINS_6vectorINS_12basic_stringIcNS_11char_traitsIcEENS_9allocatorIcEEEENS5_IS7_EEE16__destroy_vectorEED1B8ue170006Ev, symObjAddr: 0x16C8C, symBinAddr: 0x10001879C, symSize: 0x2C }
  - { offsetInCU: 0x25881, offset: 0x315FC, size: 0x8, addend: 0x0, symName: __ZNSt3__128__exception_guard_exceptionsINS_6vectorINS_12basic_stringIcNS_11char_traitsIcEENS_9allocatorIcEEEENS5_IS7_EEE16__destroy_vectorEEC1B8ue170006ESA_, symObjAddr: 0x16CB8, symBinAddr: 0x1000187C8, symSize: 0x34 }
  - { offsetInCU: 0x258B7, offset: 0x31632, size: 0x8, addend: 0x0, symName: __ZNSt3__128__exception_guard_exceptionsINS_6vectorINS_12basic_stringIcNS_11char_traitsIcEENS_9allocatorIcEEEENS5_IS7_EEE16__destroy_vectorEEC2B8ue170006ESA_, symObjAddr: 0x16CEC, symBinAddr: 0x1000187FC, symSize: 0x24 }
  - { offsetInCU: 0x25906, offset: 0x31681, size: 0x8, addend: 0x0, symName: __ZNSt3__14pairIPNS_12basic_stringIcNS_11char_traitsIcEENS_9allocatorIcEEEES7_EC1B8ue170006ERKS7_SA_, symObjAddr: 0x16F98, symBinAddr: 0x100018AA8, symSize: 0x3C }
  - { offsetInCU: 0x2594A, offset: 0x316C5, size: 0x8, addend: 0x0, symName: __ZNSt3__14pairIPNS_12basic_stringIcNS_11char_traitsIcEENS_9allocatorIcEEEES7_EC2B8ue170006ERKS7_SA_, symObjAddr: 0x16FD4, symBinAddr: 0x100018AE4, symSize: 0x34 }
  - { offsetInCU: 0x2598E, offset: 0x31709, size: 0x8, addend: 0x0, symName: __ZNSt3__129_AllocatorDestroyRangeReverseINS_9allocatorINS_12basic_stringIcNS_11char_traitsIcEENS1_IcEEEEEEPS6_EC1B8ue170006ERS7_RS8_SB_, symObjAddr: 0x17054, symBinAddr: 0x100018B64, symSize: 0x44 }
  - { offsetInCU: 0x259E3, offset: 0x3175E, size: 0x8, addend: 0x0, symName: __ZNSt3__116allocator_traitsINS_9allocatorINS_12basic_stringIcNS_11char_traitsIcEENS1_IcEEEEEEE9constructB8ue170006IS6_JRS6_EvEEvRS7_PT_DpOT0_, symObjAddr: 0x17098, symBinAddr: 0x100018BA8, symSize: 0x34 }
  - { offsetInCU: 0x25A3A, offset: 0x317B5, size: 0x8, addend: 0x0, symName: __ZNSt3__128__exception_guard_exceptionsINS_29_AllocatorDestroyRangeReverseINS_9allocatorINS_12basic_stringIcNS_11char_traitsIcEENS2_IcEEEEEEPS7_EEE10__completeB8ue170006Ev, symObjAddr: 0x170CC, symBinAddr: 0x100018BDC, symSize: 0x1C }
  - { offsetInCU: 0x25A5E, offset: 0x317D9, size: 0x8, addend: 0x0, symName: __ZNSt3__128__exception_guard_exceptionsINS_29_AllocatorDestroyRangeReverseINS_9allocatorINS_12basic_stringIcNS_11char_traitsIcEENS2_IcEEEEEEPS7_EEED1B8ue170006Ev, symObjAddr: 0x170E8, symBinAddr: 0x100018BF8, symSize: 0x2C }
  - { offsetInCU: 0x25A86, offset: 0x31801, size: 0x8, addend: 0x0, symName: __ZNSt3__128__exception_guard_exceptionsINS_29_AllocatorDestroyRangeReverseINS_9allocatorINS_12basic_stringIcNS_11char_traitsIcEENS2_IcEEEEEEPS7_EEEC1B8ue170006ESA_, symObjAddr: 0x17114, symBinAddr: 0x100018C24, symSize: 0x34 }
  - { offsetInCU: 0x25ABD, offset: 0x31838, size: 0x8, addend: 0x0, symName: __ZNSt3__128__exception_guard_exceptionsINS_29_AllocatorDestroyRangeReverseINS_9allocatorINS_12basic_stringIcNS_11char_traitsIcEENS2_IcEEEEEEPS7_EEEC2B8ue170006ESA_, symObjAddr: 0x17148, symBinAddr: 0x100018C58, symSize: 0x30 }
  - { offsetInCU: 0x25AF4, offset: 0x3186F, size: 0x8, addend: 0x0, symName: __ZNSt3__129_AllocatorDestroyRangeReverseINS_9allocatorINS_12basic_stringIcNS_11char_traitsIcEENS1_IcEEEEEEPS6_EC2B8ue170006ERS7_RS8_SB_, symObjAddr: 0x17178, symBinAddr: 0x100018C88, symSize: 0x38 }
  - { offsetInCU: 0x25B49, offset: 0x318C4, size: 0x8, addend: 0x0, symName: __ZNSt3__19allocatorINS_12basic_stringIcNS_11char_traitsIcEENS0_IcEEEEE9constructB8ue170006IS5_JRS5_EEEvPT_DpOT0_, symObjAddr: 0x171B0, symBinAddr: 0x100018CC0, symSize: 0x30 }
  - { offsetInCU: 0x25B9D, offset: 0x31918, size: 0x8, addend: 0x0, symName: __ZNSt3__128__exception_guard_exceptionsINS_29_AllocatorDestroyRangeReverseINS_9allocatorINS_12basic_stringIcNS_11char_traitsIcEENS2_IcEEEEEEPS7_EEED2B8ue170006Ev, symObjAddr: 0x171E0, symBinAddr: 0x100018CF0, symSize: 0x48 }
  - { offsetInCU: 0x25BC5, offset: 0x31940, size: 0x8, addend: 0x0, symName: __ZNKSt3__129_AllocatorDestroyRangeReverseINS_9allocatorINS_12basic_stringIcNS_11char_traitsIcEENS1_IcEEEEEEPS6_EclB8ue170006Ev, symObjAddr: 0x17228, symBinAddr: 0x100018D38, symSize: 0x68 }
  - { offsetInCU: 0x25BE9, offset: 0x31964, size: 0x8, addend: 0x0, symName: __ZNSt3__118__unwrap_iter_implIPNS_12basic_stringIcNS_11char_traitsIcEENS_9allocatorIcEEEELb1EE8__unwrapB8ue170006ES7_, symObjAddr: 0x17300, symBinAddr: 0x100018E10, symSize: 0x24 }
  - { offsetInCU: 0x25C0B, offset: 0x31986, size: 0x8, addend: 0x0, symName: __ZNSt3__118__unwrap_iter_implIPNS_12basic_stringIcNS_11char_traitsIcEENS_9allocatorIcEEEELb1EE8__rewrapB8ue170006ES7_S7_, symObjAddr: 0x17324, symBinAddr: 0x100018E34, symSize: 0x58 }
  - { offsetInCU: 0x25C3B, offset: 0x319B6, size: 0x8, addend: 0x0, symName: __ZNSt3__128__exception_guard_exceptionsINS_6vectorINS_12basic_stringIcNS_11char_traitsIcEENS_9allocatorIcEEEENS5_IS7_EEE16__destroy_vectorEED2B8ue170006Ev, symObjAddr: 0x1737C, symBinAddr: 0x100018E8C, symSize: 0x48 }
  - { offsetInCU: 0x25C63, offset: 0x319DE, size: 0x8, addend: 0x0, symName: __ZNSt3__16__treeINS_12__value_typeIiNS_6vectorINS_12basic_stringIcNS_11char_traitsIcEENS_9allocatorIcEEEENS6_IS8_EEEEEENS_19__map_value_compareIiSB_NS_4lessIiEELb1EEENS6_ISB_EEE15__insert_uniqueB8ue170006ERKNS_4pairIKiSA_EE, symObjAddr: 0x173C4, symBinAddr: 0x100018ED4, symSize: 0x50 }
  - { offsetInCU: 0x25C96, offset: 0x31A11, size: 0x8, addend: 0x0, symName: __ZNSt3__14pairINS_14__map_iteratorINS_15__tree_iteratorINS_12__value_typeIiNS_6vectorINS_12basic_stringIcNS_11char_traitsIcEENS_9allocatorIcEEEENS8_ISA_EEEEEEPNS_11__tree_nodeISD_PvEElEEEEbEC1B8ue170006ISI_bEERKNS0_IT_T0_EE, symObjAddr: 0x17414, symBinAddr: 0x100018F24, symSize: 0x34 }
  - { offsetInCU: 0x25CDE, offset: 0x31A59, size: 0x8, addend: 0x0, symName: __ZNSt3__16__treeINS_12__value_typeIiNS_6vectorINS_12basic_stringIcNS_11char_traitsIcEENS_9allocatorIcEEEENS6_IS8_EEEEEENS_19__map_value_compareIiSB_NS_4lessIiEELb1EEENS6_ISB_EEE25__emplace_unique_key_argsIiJRKNS_4pairIKiSA_EEEEENSJ_INS_15__tree_iteratorISB_PNS_11__tree_nodeISB_PvEElEEbEERKT_DpOT0_, symObjAddr: 0x17448, symBinAddr: 0x100018F58, symSize: 0xF0 }
  - { offsetInCU: 0x25D88, offset: 0x31B03, size: 0x8, addend: 0x0, symName: __ZNSt3__122__tree_key_value_typesINS_12__value_typeIiNS_6vectorINS_12basic_stringIcNS_11char_traitsIcEENS_9allocatorIcEEEENS6_IS8_EEEEEEE9__get_keyB8ue170006IKNS_4pairIKiSA_EEEENS_9enable_ifIXsr17__is_same_uncvrefIT_SG_EE5valueERSF_E4typeERSJ_, symObjAddr: 0x17538, symBinAddr: 0x100019048, symSize: 0x14 }
  - { offsetInCU: 0x25DB4, offset: 0x31B2F, size: 0x8, addend: 0x0, symName: __ZNSt3__16__treeINS_12__value_typeIiNS_6vectorINS_12basic_stringIcNS_11char_traitsIcEENS_9allocatorIcEEEENS6_IS8_EEEEEENS_19__map_value_compareIiSB_NS_4lessIiEELb1EEENS6_ISB_EEE12__find_equalIiEERPNS_16__tree_node_baseIPvEERPNS_15__tree_end_nodeISM_EERKT_, symObjAddr: 0x1754C, symBinAddr: 0x10001905C, symSize: 0x184 }
  - { offsetInCU: 0x25E1F, offset: 0x31B9A, size: 0x8, addend: 0x0, symName: __ZNSt3__16__treeINS_12__value_typeIiNS_6vectorINS_12basic_stringIcNS_11char_traitsIcEENS_9allocatorIcEEEENS6_IS8_EEEEEENS_19__map_value_compareIiSB_NS_4lessIiEELb1EEENS6_ISB_EEE16__construct_nodeIJRKNS_4pairIKiSA_EEEEENS_10unique_ptrINS_11__tree_nodeISB_PvEENS_22__tree_node_destructorINS6_ISR_EEEEEEDpOT_, symObjAddr: 0x176D0, symBinAddr: 0x1000191E0, symSize: 0x118 }
  - { offsetInCU: 0x25E7E, offset: 0x31BF9, size: 0x8, addend: 0x0, symName: __ZNSt3__16__treeINS_12__value_typeIiNS_6vectorINS_12basic_stringIcNS_11char_traitsIcEENS_9allocatorIcEEEENS6_IS8_EEEEEENS_19__map_value_compareIiSB_NS_4lessIiEELb1EEENS6_ISB_EEE16__insert_node_atEPNS_15__tree_end_nodeIPNS_16__tree_node_baseIPvEEEERSM_SM_, symObjAddr: 0x177E8, symBinAddr: 0x1000192F8, symSize: 0xCC }
  - { offsetInCU: 0x25ED1, offset: 0x31C4C, size: 0x8, addend: 0x0, symName: __ZNKSt3__110unique_ptrINS_11__tree_nodeINS_12__value_typeIiNS_6vectorINS_12basic_stringIcNS_11char_traitsIcEENS_9allocatorIcEEEENS7_IS9_EEEEEEPvEENS_22__tree_node_destructorINS7_ISE_EEEEE3getB8ue170006Ev, symObjAddr: 0x178B4, symBinAddr: 0x1000193C4, symSize: 0x28 }
  - { offsetInCU: 0x25EF5, offset: 0x31C70, size: 0x8, addend: 0x0, symName: __ZNSt3__110unique_ptrINS_11__tree_nodeINS_12__value_typeIiNS_6vectorINS_12basic_stringIcNS_11char_traitsIcEENS_9allocatorIcEEEENS7_IS9_EEEEEEPvEENS_22__tree_node_destructorINS7_ISE_EEEEE7releaseB8ue170006Ev, symObjAddr: 0x178DC, symBinAddr: 0x1000193EC, symSize: 0x44 }
  - { offsetInCU: 0x25F28, offset: 0x31CA3, size: 0x8, addend: 0x0, symName: __ZNSt3__110unique_ptrINS_11__tree_nodeINS_12__value_typeIiNS_6vectorINS_12basic_stringIcNS_11char_traitsIcEENS_9allocatorIcEEEENS7_IS9_EEEEEEPvEENS_22__tree_node_destructorINS7_ISE_EEEEED1B8ue170006Ev, symObjAddr: 0x17920, symBinAddr: 0x100019430, symSize: 0x2C }
  - { offsetInCU: 0x25F50, offset: 0x31CCB, size: 0x8, addend: 0x0, symName: __ZNSt3__115__tree_iteratorINS_12__value_typeIiNS_6vectorINS_12basic_stringIcNS_11char_traitsIcEENS_9allocatorIcEEEENS6_IS8_EEEEEEPNS_11__tree_nodeISB_PvEElEC1B8ue170006ESF_, symObjAddr: 0x1794C, symBinAddr: 0x10001945C, symSize: 0x34 }
  - { offsetInCU: 0x25F87, offset: 0x31D02, size: 0x8, addend: 0x0, symName: __ZNSt3__14pairINS_15__tree_iteratorINS_12__value_typeIiNS_6vectorINS_12basic_stringIcNS_11char_traitsIcEENS_9allocatorIcEEEENS7_IS9_EEEEEEPNS_11__tree_nodeISC_PvEElEEbEC1B8ue170006ERKSH_RKb, symObjAddr: 0x17980, symBinAddr: 0x100019490, symSize: 0x3C }
  - { offsetInCU: 0x25FCB, offset: 0x31D46, size: 0x8, addend: 0x0, symName: __ZNKSt3__16__treeINS_12__value_typeIiNS_6vectorINS_12basic_stringIcNS_11char_traitsIcEENS_9allocatorIcEEEENS6_IS8_EEEEEENS_19__map_value_compareIiSB_NS_4lessIiEELb1EEENS6_ISB_EEE10__root_ptrB8ue170006Ev, symObjAddr: 0x179BC, symBinAddr: 0x1000194CC, symSize: 0x24 }
  - { offsetInCU: 0x25FEF, offset: 0x31D6A, size: 0x8, addend: 0x0, symName: __ZNSt3__16__treeINS_12__value_typeIiNS_6vectorINS_12basic_stringIcNS_11char_traitsIcEENS_9allocatorIcEEEENS6_IS8_EEEEEENS_19__map_value_compareIiSB_NS_4lessIiEELb1EEENS6_ISB_EEE10value_compB8ue170006Ev, symObjAddr: 0x179E0, symBinAddr: 0x1000194F0, symSize: 0x28 }
  - { offsetInCU: 0x26013, offset: 0x31D8E, size: 0x8, addend: 0x0, symName: __ZNKSt3__119__map_value_compareIiNS_12__value_typeIiNS_6vectorINS_12basic_stringIcNS_11char_traitsIcEENS_9allocatorIcEEEENS6_IS8_EEEEEENS_4lessIiEELb1EEclB8ue170006ERKiRKSB_, symObjAddr: 0x17A08, symBinAddr: 0x100019518, symSize: 0x50 }
  - { offsetInCU: 0x26055, offset: 0x31DD0, size: 0x8, addend: 0x0, symName: __ZNKSt3__119__map_value_compareIiNS_12__value_typeIiNS_6vectorINS_12basic_stringIcNS_11char_traitsIcEENS_9allocatorIcEEEENS6_IS8_EEEEEENS_4lessIiEELb1EEclB8ue170006ERKSB_RKi, symObjAddr: 0x17A58, symBinAddr: 0x100019568, symSize: 0x48 }
  - { offsetInCU: 0x26097, offset: 0x31E12, size: 0x8, addend: 0x0, symName: __ZNSt3__117__compressed_pairImNS_19__map_value_compareIiNS_12__value_typeIiNS_6vectorINS_12basic_stringIcNS_11char_traitsIcEENS_9allocatorIcEEEENS7_IS9_EEEEEENS_4lessIiEELb1EEEE6secondB8ue170006Ev, symObjAddr: 0x17AA0, symBinAddr: 0x1000195B0, symSize: 0x24 }
  - { offsetInCU: 0x260BB, offset: 0x31E36, size: 0x8, addend: 0x0, symName: __ZNSt3__122__compressed_pair_elemINS_19__map_value_compareIiNS_12__value_typeIiNS_6vectorINS_12basic_stringIcNS_11char_traitsIcEENS_9allocatorIcEEEENS7_IS9_EEEEEENS_4lessIiEELb1EEELi1ELb1EE5__getB8ue170006Ev, symObjAddr: 0x17AC4, symBinAddr: 0x1000195D4, symSize: 0x14 }
  - { offsetInCU: 0x260DF, offset: 0x31E5A, size: 0x8, addend: 0x0, symName: __ZNKSt3__112__value_typeIiNS_6vectorINS_12basic_stringIcNS_11char_traitsIcEENS_9allocatorIcEEEENS5_IS7_EEEEE11__get_valueB8ue170006Ev, symObjAddr: 0x17AD8, symBinAddr: 0x1000195E8, symSize: 0x14 }
  - { offsetInCU: 0x26103, offset: 0x31E7E, size: 0x8, addend: 0x0, symName: __ZNSt3__116allocator_traitsINS_9allocatorINS_11__tree_nodeINS_12__value_typeIiNS_6vectorINS_12basic_stringIcNS_11char_traitsIcEENS1_IcEEEENS1_IS9_EEEEEEPvEEEEE8allocateB8ue170006ERSF_m, symObjAddr: 0x17AEC, symBinAddr: 0x1000195FC, symSize: 0x2C }
  - { offsetInCU: 0x26135, offset: 0x31EB0, size: 0x8, addend: 0x0, symName: __ZNSt3__122__tree_node_destructorINS_9allocatorINS_11__tree_nodeINS_12__value_typeIiNS_6vectorINS_12basic_stringIcNS_11char_traitsIcEENS1_IcEEEENS1_IS9_EEEEEEPvEEEEEC1B8ue170006ERSF_b, symObjAddr: 0x17B18, symBinAddr: 0x100019628, symSize: 0x48 }
  - { offsetInCU: 0x26180, offset: 0x31EFB, size: 0x8, addend: 0x0, symName: __ZNSt3__110unique_ptrINS_11__tree_nodeINS_12__value_typeIiNS_6vectorINS_12basic_stringIcNS_11char_traitsIcEENS_9allocatorIcEEEENS7_IS9_EEEEEEPvEENS_22__tree_node_destructorINS7_ISE_EEEEEC1B8ue170006ILb1EvEEPSE_NS_16__dependent_typeINS_27__unique_ptr_deleter_sfinaeISH_EEXT_EE20__good_rval_ref_typeE, symObjAddr: 0x17B60, symBinAddr: 0x100019670, symSize: 0x3C }
  - { offsetInCU: 0x261D0, offset: 0x31F4B, size: 0x8, addend: 0x0, symName: __ZNSt3__116allocator_traitsINS_9allocatorINS_11__tree_nodeINS_12__value_typeIiNS_6vectorINS_12basic_stringIcNS_11char_traitsIcEENS1_IcEEEENS1_IS9_EEEEEEPvEEEEE9constructB8ue170006INS_4pairIKiSB_EEJRKSK_EvEEvRSF_PT_DpOT0_, symObjAddr: 0x17B9C, symBinAddr: 0x1000196AC, symSize: 0x34 }
  - { offsetInCU: 0x26227, offset: 0x31FA2, size: 0x8, addend: 0x0, symName: __ZNKSt3__110unique_ptrINS_11__tree_nodeINS_12__value_typeIiNS_6vectorINS_12basic_stringIcNS_11char_traitsIcEENS_9allocatorIcEEEENS7_IS9_EEEEEEPvEENS_22__tree_node_destructorINS7_ISE_EEEEEptB8ue170006Ev, symObjAddr: 0x17BD0, symBinAddr: 0x1000196E0, symSize: 0x28 }
  - { offsetInCU: 0x2624B, offset: 0x31FC6, size: 0x8, addend: 0x0, symName: __ZNSt3__110unique_ptrINS_11__tree_nodeINS_12__value_typeIiNS_6vectorINS_12basic_stringIcNS_11char_traitsIcEENS_9allocatorIcEEEENS7_IS9_EEEEEEPvEENS_22__tree_node_destructorINS7_ISE_EEEEE11get_deleterB8ue170006Ev, symObjAddr: 0x17BF8, symBinAddr: 0x100019708, symSize: 0x24 }
  - { offsetInCU: 0x2626F, offset: 0x31FEA, size: 0x8, addend: 0x0, symName: __ZNSt3__19allocatorINS_11__tree_nodeINS_12__value_typeIiNS_6vectorINS_12basic_stringIcNS_11char_traitsIcEENS0_IcEEEENS0_IS8_EEEEEEPvEEE8allocateB8ue170006Em, symObjAddr: 0x17C1C, symBinAddr: 0x10001972C, symSize: 0x84 }
  - { offsetInCU: 0x262AB, offset: 0x32026, size: 0x8, addend: 0x0, symName: __ZNSt3__116allocator_traitsINS_9allocatorINS_11__tree_nodeINS_12__value_typeIiNS_6vectorINS_12basic_stringIcNS_11char_traitsIcEENS1_IcEEEENS1_IS9_EEEEEEPvEEEEE8max_sizeB8ue170006ISF_vEEmRKSF_, symObjAddr: 0x17CA0, symBinAddr: 0x1000197B0, symSize: 0x24 }
  - { offsetInCU: 0x262D9, offset: 0x32054, size: 0x8, addend: 0x0, symName: __ZNKSt3__19allocatorINS_11__tree_nodeINS_12__value_typeIiNS_6vectorINS_12basic_stringIcNS_11char_traitsIcEENS0_IcEEEENS0_IS8_EEEEEEPvEEE8max_sizeB8ue170006Ev, symObjAddr: 0x17CC4, symBinAddr: 0x1000197D4, symSize: 0x14 }
  - { offsetInCU: 0x262FD, offset: 0x32078, size: 0x8, addend: 0x0, symName: __ZNSt3__122__tree_node_destructorINS_9allocatorINS_11__tree_nodeINS_12__value_typeIiNS_6vectorINS_12basic_stringIcNS_11char_traitsIcEENS1_IcEEEENS1_IS9_EEEEEEPvEEEEEC2B8ue170006ERSF_b, symObjAddr: 0x17CD8, symBinAddr: 0x1000197E8, symSize: 0x38 }
  - { offsetInCU: 0x26343, offset: 0x320BE, size: 0x8, addend: 0x0, symName: __ZNSt3__110unique_ptrINS_11__tree_nodeINS_12__value_typeIiNS_6vectorINS_12basic_stringIcNS_11char_traitsIcEENS_9allocatorIcEEEENS7_IS9_EEEEEEPvEENS_22__tree_node_destructorINS7_ISE_EEEEEC2B8ue170006ILb1EvEEPSE_NS_16__dependent_typeINS_27__unique_ptr_deleter_sfinaeISH_EEXT_EE20__good_rval_ref_typeE, symObjAddr: 0x17D10, symBinAddr: 0x100019820, symSize: 0x5C }
  - { offsetInCU: 0x26393, offset: 0x3210E, size: 0x8, addend: 0x0, symName: __ZNSt3__117__compressed_pairIPNS_11__tree_nodeINS_12__value_typeIiNS_6vectorINS_12basic_stringIcNS_11char_traitsIcEENS_9allocatorIcEEEENS7_IS9_EEEEEEPvEENS_22__tree_node_destructorINS7_ISE_EEEEEC1B8ue170006IRSF_SI_EEOT_OT0_, symObjAddr: 0x17D6C, symBinAddr: 0x10001987C, symSize: 0x3C }
  - { offsetInCU: 0x263E9, offset: 0x32164, size: 0x8, addend: 0x0, symName: __ZNSt3__117__compressed_pairIPNS_11__tree_nodeINS_12__value_typeIiNS_6vectorINS_12basic_stringIcNS_11char_traitsIcEENS_9allocatorIcEEEENS7_IS9_EEEEEEPvEENS_22__tree_node_destructorINS7_ISE_EEEEEC2B8ue170006IRSF_SI_EEOT_OT0_, symObjAddr: 0x17DA8, symBinAddr: 0x1000198B8, symSize: 0x48 }
  - { offsetInCU: 0x2643F, offset: 0x321BA, size: 0x8, addend: 0x0, symName: __ZNSt3__122__compressed_pair_elemIPNS_11__tree_nodeINS_12__value_typeIiNS_6vectorINS_12basic_stringIcNS_11char_traitsIcEENS_9allocatorIcEEEENS7_IS9_EEEEEEPvEELi0ELb0EEC2B8ue170006IRSF_vEEOT_, symObjAddr: 0x17DF0, symBinAddr: 0x100019900, symSize: 0x24 }
  - { offsetInCU: 0x26480, offset: 0x321FB, size: 0x8, addend: 0x0, symName: __ZNSt3__122__compressed_pair_elemINS_22__tree_node_destructorINS_9allocatorINS_11__tree_nodeINS_12__value_typeIiNS_6vectorINS_12basic_stringIcNS_11char_traitsIcEENS2_IcEEEENS2_ISA_EEEEEEPvEEEEEELi1ELb0EEC2B8ue170006ISH_vEEOT_, symObjAddr: 0x17E14, symBinAddr: 0x100019924, symSize: 0x24 }
  - { offsetInCU: 0x264C1, offset: 0x3223C, size: 0x8, addend: 0x0, symName: __ZNSt3__19allocatorINS_11__tree_nodeINS_12__value_typeIiNS_6vectorINS_12basic_stringIcNS_11char_traitsIcEENS0_IcEEEENS0_IS8_EEEEEEPvEEE9constructB8ue170006INS_4pairIKiSA_EEJRKSI_EEEvPT_DpOT0_, symObjAddr: 0x17E38, symBinAddr: 0x100019948, symSize: 0x30 }
  - { offsetInCU: 0x26515, offset: 0x32290, size: 0x8, addend: 0x0, symName: __ZNSt3__14pairIKiNS_6vectorINS_12basic_stringIcNS_11char_traitsIcEENS_9allocatorIcEEEENS6_IS8_EEEEEC1B8ue170006ERKSB_, symObjAddr: 0x17E68, symBinAddr: 0x100019978, symSize: 0x34 }
  - { offsetInCU: 0x26547, offset: 0x322C2, size: 0x8, addend: 0x0, symName: __ZNSt3__14pairIKiNS_6vectorINS_12basic_stringIcNS_11char_traitsIcEENS_9allocatorIcEEEENS6_IS8_EEEEEC2B8ue170006ERKSB_, symObjAddr: 0x17E9C, symBinAddr: 0x1000199AC, symSize: 0x48 }
  - { offsetInCU: 0x26579, offset: 0x322F4, size: 0x8, addend: 0x0, symName: __ZNKSt3__117__compressed_pairIPNS_11__tree_nodeINS_12__value_typeIiNS_6vectorINS_12basic_stringIcNS_11char_traitsIcEENS_9allocatorIcEEEENS7_IS9_EEEEEEPvEENS_22__tree_node_destructorINS7_ISE_EEEEE5firstB8ue170006Ev, symObjAddr: 0x17EE4, symBinAddr: 0x1000199F4, symSize: 0x24 }
  - { offsetInCU: 0x2659D, offset: 0x32318, size: 0x8, addend: 0x0, symName: __ZNKSt3__122__compressed_pair_elemIPNS_11__tree_nodeINS_12__value_typeIiNS_6vectorINS_12basic_stringIcNS_11char_traitsIcEENS_9allocatorIcEEEENS7_IS9_EEEEEEPvEELi0ELb0EE5__getB8ue170006Ev, symObjAddr: 0x17F08, symBinAddr: 0x100019A18, symSize: 0x14 }
  - { offsetInCU: 0x265C1, offset: 0x3233C, size: 0x8, addend: 0x0, symName: __ZNSt3__117__compressed_pairIPNS_11__tree_nodeINS_12__value_typeIiNS_6vectorINS_12basic_stringIcNS_11char_traitsIcEENS_9allocatorIcEEEENS7_IS9_EEEEEEPvEENS_22__tree_node_destructorINS7_ISE_EEEEE6secondB8ue170006Ev, symObjAddr: 0x17F1C, symBinAddr: 0x100019A2C, symSize: 0x28 }
  - { offsetInCU: 0x265E5, offset: 0x32360, size: 0x8, addend: 0x0, symName: __ZNSt3__122__compressed_pair_elemINS_22__tree_node_destructorINS_9allocatorINS_11__tree_nodeINS_12__value_typeIiNS_6vectorINS_12basic_stringIcNS_11char_traitsIcEENS2_IcEEEENS2_ISA_EEEEEEPvEEEEEELi1ELb0EE5__getB8ue170006Ev, symObjAddr: 0x17F44, symBinAddr: 0x100019A54, symSize: 0x14 }
  - { offsetInCU: 0x26609, offset: 0x32384, size: 0x8, addend: 0x0, symName: __ZNSt3__117__compressed_pairIPNS_11__tree_nodeINS_12__value_typeIiNS_6vectorINS_12basic_stringIcNS_11char_traitsIcEENS_9allocatorIcEEEENS7_IS9_EEEEEEPvEENS_22__tree_node_destructorINS7_ISE_EEEEE5firstB8ue170006Ev, symObjAddr: 0x17F58, symBinAddr: 0x100019A68, symSize: 0x24 }
  - { offsetInCU: 0x2662D, offset: 0x323A8, size: 0x8, addend: 0x0, symName: __ZNSt3__122__compressed_pair_elemIPNS_11__tree_nodeINS_12__value_typeIiNS_6vectorINS_12basic_stringIcNS_11char_traitsIcEENS_9allocatorIcEEEENS7_IS9_EEEEEEPvEELi0ELb0EE5__getB8ue170006Ev, symObjAddr: 0x17F7C, symBinAddr: 0x100019A8C, symSize: 0x14 }
  - { offsetInCU: 0x26651, offset: 0x323CC, size: 0x8, addend: 0x0, symName: __ZNSt3__110unique_ptrINS_11__tree_nodeINS_12__value_typeIiNS_6vectorINS_12basic_stringIcNS_11char_traitsIcEENS_9allocatorIcEEEENS7_IS9_EEEEEEPvEENS_22__tree_node_destructorINS7_ISE_EEEEED2B8ue170006Ev, symObjAddr: 0x17F90, symBinAddr: 0x100019AA0, symSize: 0x30 }
  - { offsetInCU: 0x26679, offset: 0x323F4, size: 0x8, addend: 0x0, symName: __ZNSt3__110unique_ptrINS_11__tree_nodeINS_12__value_typeIiNS_6vectorINS_12basic_stringIcNS_11char_traitsIcEENS_9allocatorIcEEEENS7_IS9_EEEEEEPvEENS_22__tree_node_destructorINS7_ISE_EEEEE5resetB8ue170006EPSE_, symObjAddr: 0x17FC0, symBinAddr: 0x100019AD0, symSize: 0x78 }
  - { offsetInCU: 0x266BB, offset: 0x32436, size: 0x8, addend: 0x0, symName: __ZNSt3__122__tree_node_destructorINS_9allocatorINS_11__tree_nodeINS_12__value_typeIiNS_6vectorINS_12basic_stringIcNS_11char_traitsIcEENS1_IcEEEENS1_IS9_EEEEEEPvEEEEEclB8ue170006EPSE_, symObjAddr: 0x18038, symBinAddr: 0x100019B48, symSize: 0xAC }
  - { offsetInCU: 0x266EE, offset: 0x32469, size: 0x8, addend: 0x0, symName: __ZNSt3__115__tree_iteratorINS_12__value_typeIiNS_6vectorINS_12basic_stringIcNS_11char_traitsIcEENS_9allocatorIcEEEENS6_IS8_EEEEEEPNS_11__tree_nodeISB_PvEElEC2B8ue170006ESF_, symObjAddr: 0x180E4, symBinAddr: 0x100019BF4, symSize: 0x20 }
  - { offsetInCU: 0x26725, offset: 0x324A0, size: 0x8, addend: 0x0, symName: __ZNSt3__14pairINS_15__tree_iteratorINS_12__value_typeIiNS_6vectorINS_12basic_stringIcNS_11char_traitsIcEENS_9allocatorIcEEEENS7_IS9_EEEEEEPNS_11__tree_nodeISC_PvEElEEbEC2B8ue170006ERKSH_RKb, symObjAddr: 0x18104, symBinAddr: 0x100019C14, symSize: 0x38 }
  - { offsetInCU: 0x26769, offset: 0x324E4, size: 0x8, addend: 0x0, symName: __ZNSt3__14pairINS_14__map_iteratorINS_15__tree_iteratorINS_12__value_typeIiNS_6vectorINS_12basic_stringIcNS_11char_traitsIcEENS_9allocatorIcEEEENS8_ISA_EEEEEEPNS_11__tree_nodeISD_PvEElEEEEbEC2B8ue170006ISI_bEERKNS0_IT_T0_EE, symObjAddr: 0x1813C, symBinAddr: 0x100019C4C, symSize: 0x50 }
  - { offsetInCU: 0x267B1, offset: 0x3252C, size: 0x8, addend: 0x0, symName: __ZNSt3__114__map_iteratorINS_15__tree_iteratorINS_12__value_typeIiNS_6vectorINS_12basic_stringIcNS_11char_traitsIcEENS_9allocatorIcEEEENS7_IS9_EEEEEEPNS_11__tree_nodeISC_PvEElEEEC1B8ue170006ESH_, symObjAddr: 0x1818C, symBinAddr: 0x100019C9C, symSize: 0x34 }
  - { offsetInCU: 0x267E8, offset: 0x32563, size: 0x8, addend: 0x0, symName: __ZNSt3__114__map_iteratorINS_15__tree_iteratorINS_12__value_typeIiNS_6vectorINS_12basic_stringIcNS_11char_traitsIcEENS_9allocatorIcEEEENS7_IS9_EEEEEEPNS_11__tree_nodeISC_PvEElEEEC2B8ue170006ESH_, symObjAddr: 0x181C0, symBinAddr: 0x100019CD0, symSize: 0x20 }
  - { offsetInCU: 0x2681F, offset: 0x3259A, size: 0x8, addend: 0x0, symName: __ZNSt3__14pairIKiNS_6vectorINS_12basic_stringIcNS_11char_traitsIcEENS_9allocatorIcEEEENS6_IS8_EEEEEC2B8ue170006IiSA_EERKNS0_IT_T0_EE, symObjAddr: 0x181E0, symBinAddr: 0x100019CF0, symSize: 0x48 }
  - { offsetInCU: 0x26867, offset: 0x325E2, size: 0x8, addend: 0x0, symName: __ZNSt3__16__treeINS_12__value_typeIiNS_6vectorINS_12basic_stringIcNS_11char_traitsIcEENS_9allocatorIcEEEENS6_IS8_EEEEEENS_19__map_value_compareIiSB_NS_4lessIiEELb1EEENS6_ISB_EEE5beginB8ue170006Ev, symObjAddr: 0x18228, symBinAddr: 0x100019D38, symSize: 0x34 }
  - { offsetInCU: 0x2688B, offset: 0x32606, size: 0x8, addend: 0x0, symName: __ZNSt3__115__tree_iteratorINS_12__value_typeIiNS_6vectorINS_12basic_stringIcNS_11char_traitsIcEENS_9allocatorIcEEEENS6_IS8_EEEEEEPNS_11__tree_nodeISB_PvEElEC1B8ue170006EPNS_15__tree_end_nodeIPNS_16__tree_node_baseISD_EEEE, symObjAddr: 0x1825C, symBinAddr: 0x100019D6C, symSize: 0x34 }
  - { offsetInCU: 0x268C2, offset: 0x3263D, size: 0x8, addend: 0x0, symName: __ZNSt3__115__tree_iteratorINS_12__value_typeIiNS_6vectorINS_12basic_stringIcNS_11char_traitsIcEENS_9allocatorIcEEEENS6_IS8_EEEEEEPNS_11__tree_nodeISB_PvEElEC2B8ue170006EPNS_15__tree_end_nodeIPNS_16__tree_node_baseISD_EEEE, symObjAddr: 0x18290, symBinAddr: 0x100019DA0, symSize: 0x20 }
  - { offsetInCU: 0x268F9, offset: 0x32674, size: 0x8, addend: 0x0, symName: __ZNSt3__16__treeINS_12__value_typeIiNS_6vectorINS_12basic_stringIcNS_11char_traitsIcEENS_9allocatorIcEEEENS6_IS8_EEEEEENS_19__map_value_compareIiSB_NS_4lessIiEELb1EEENS6_ISB_EEE3endB8ue170006Ev, symObjAddr: 0x182B0, symBinAddr: 0x100019DC0, symSize: 0x34 }
  - { offsetInCU: 0x2691D, offset: 0x32698, size: 0x8, addend: 0x0, symName: __ZNSt3__114__map_iteratorINS_15__tree_iteratorINS_12__value_typeIiNS_6vectorINS_12basic_stringIcNS_11char_traitsIcEENS_9allocatorIcEEEENS7_IS9_EEEEEEPNS_11__tree_nodeISC_PvEElEEEppB8ue170006Ev, symObjAddr: 0x18348, symBinAddr: 0x100019E58, symSize: 0x2C }
  - { offsetInCU: 0x26941, offset: 0x326BC, size: 0x8, addend: 0x0, symName: __ZNSt3__115__tree_iteratorINS_12__value_typeIiNS_6vectorINS_12basic_stringIcNS_11char_traitsIcEENS_9allocatorIcEEEENS6_IS8_EEEEEEPNS_11__tree_nodeISB_PvEElEppB8ue170006Ev, symObjAddr: 0x18374, symBinAddr: 0x100019E84, symSize: 0x38 }
  - { offsetInCU: 0x26965, offset: 0x326E0, size: 0x8, addend: 0x0, symName: __ZNSt3__114pointer_traitsIPNS_4pairIKiNS_6vectorINS_12basic_stringIcNS_11char_traitsIcEENS_9allocatorIcEEEENS7_IS9_EEEEEEE10pointer_toB8ue170006ERSC_, symObjAddr: 0x183AC, symBinAddr: 0x100019EBC, symSize: 0x14 }
  - { offsetInCU: 0x26987, offset: 0x32702, size: 0x8, addend: 0x0, symName: __ZNKSt3__115__tree_iteratorINS_12__value_typeIiNS_6vectorINS_12basic_stringIcNS_11char_traitsIcEENS_9allocatorIcEEEENS6_IS8_EEEEEEPNS_11__tree_nodeISB_PvEElEptB8ue170006Ev, symObjAddr: 0x183C0, symBinAddr: 0x100019ED0, symSize: 0x2C }
  - { offsetInCU: 0x269AB, offset: 0x32726, size: 0x8, addend: 0x0, symName: __ZNSt3__114pointer_traitsIPNS_12__value_typeIiNS_6vectorINS_12basic_stringIcNS_11char_traitsIcEENS_9allocatorIcEEEENS6_IS8_EEEEEEE10pointer_toB8ue170006ERSB_, symObjAddr: 0x183EC, symBinAddr: 0x100019EFC, symSize: 0x14 }
  - { offsetInCU: 0x269CD, offset: 0x32748, size: 0x8, addend: 0x0, symName: __ZNKSt3__115__tree_iteratorINS_12__value_typeIiNS_6vectorINS_12basic_stringIcNS_11char_traitsIcEENS_9allocatorIcEEEENS6_IS8_EEEEEEPNS_11__tree_nodeISB_PvEElE8__get_npB8ue170006Ev, symObjAddr: 0x18400, symBinAddr: 0x100019F10, symSize: 0x18 }
...
